
EP9.elf:     file format elf32-littlearm

Sections:
Idx Name          Size      VMA       LMA       File off  Algn
  0 .isr_vector   000000bc  08000000  08000000  00001000  2**0
                  CONTENTS, ALLOC, LOAD, READONLY, DATA
  1 .text         00005590  080000bc  080000bc  000010bc  2**2
                  CONTENTS, ALLOC, LOAD, READONLY, CODE
  2 .rodata       000000e0  0800564c  0800564c  0000664c  2**2
                  CONTENTS, ALLOC, LOAD, READONLY, DATA
  3 .ARM.extab    00000000  0800572c  0800572c  00007068  2**0
                  CONTENTS, READONLY
  4 .ARM          00000008  0800572c  0800572c  0000672c  2**2
                  CONTENTS, ALLOC, LOAD, READONLY, DATA
  5 .preinit_array 00000000  08005734  08005734  00007068  2**0
                  CONTENTS, ALLOC, LOAD, DATA
  6 .init_array   00000004  08005734  08005734  00006734  2**2
                  CONTENTS, ALLOC, LOAD, READONLY, DATA
  7 .fini_array   00000004  08005738  08005738  00006738  2**2
                  CONTENTS, ALLOC, LOAD, READONLY, DATA
  8 .data         00000068  20000000  0800573c  00007000  2**2
                  CONTENTS, ALLOC, LOAD, DATA
  9 .bss          000002c8  20000068  080057a4  00007068  2**2
                  ALLOC
 10 ._user_heap_stack 00000600  20000330  080057a4  00007330  2**0
                  ALLOC
 11 .ARM.attributes 00000028  00000000  00000000  00007068  2**0
                  CONTENTS, READONLY
 12 .debug_info   0000f473  00000000  00000000  00007090  2**0
                  CONTENTS, READONLY, DEBUGGING, OCTETS
 13 .debug_abbrev 00002a41  00000000  00000000  00016503  2**0
                  CONTENTS, READONLY, DEBUGGING, OCTETS
 14 .debug_aranges 00000cb8  00000000  00000000  00018f48  2**3
                  CONTENTS, READONLY, DEBUGGING, OCTETS
 15 .debug_rnglists 000009a6  00000000  00000000  00019c00  2**0
                  CONTENTS, READONLY, DEBUGGING, OCTETS
 16 .debug_macro  0001a6d4  00000000  00000000  0001a5a6  2**0
                  CONTENTS, READONLY, DEBUGGING, OCTETS
 17 .debug_line   000116a9  00000000  00000000  00034c7a  2**0
                  CONTENTS, READONLY, DEBUGGING, OCTETS
 18 .debug_str    000a2aac  00000000  00000000  00046323  2**0
                  CONTENTS, READONLY, DEBUGGING, OCTETS
 19 .comment      00000043  00000000  00000000  000e8dcf  2**0
                  CONTENTS, READONLY
 20 .debug_frame  00003318  00000000  00000000  000e8e14  2**2
                  CONTENTS, READONLY, DEBUGGING, OCTETS
 21 .debug_line_str 0000006a  00000000  00000000  000ec12c  2**0
                  CONTENTS, READONLY, DEBUGGING, OCTETS

Disassembly of section .text:

080000bc <__do_global_dtors_aux>:
 80000bc:	b510      	push	{r4, lr}
 80000be:	4c06      	ldr	r4, [pc, #24]	@ (80000d8 <__do_global_dtors_aux+0x1c>)
 80000c0:	7823      	ldrb	r3, [r4, #0]
 80000c2:	2b00      	cmp	r3, #0
 80000c4:	d107      	bne.n	80000d6 <__do_global_dtors_aux+0x1a>
 80000c6:	4b05      	ldr	r3, [pc, #20]	@ (80000dc <__do_global_dtors_aux+0x20>)
 80000c8:	2b00      	cmp	r3, #0
 80000ca:	d002      	beq.n	80000d2 <__do_global_dtors_aux+0x16>
 80000cc:	4804      	ldr	r0, [pc, #16]	@ (80000e0 <__do_global_dtors_aux+0x24>)
 80000ce:	e000      	b.n	80000d2 <__do_global_dtors_aux+0x16>
 80000d0:	bf00      	nop
 80000d2:	2301      	movs	r3, #1
 80000d4:	7023      	strb	r3, [r4, #0]
 80000d6:	bd10      	pop	{r4, pc}
 80000d8:	20000068 	.word	0x20000068
 80000dc:	00000000 	.word	0x00000000
 80000e0:	08005634 	.word	0x08005634

080000e4 <frame_dummy>:
 80000e4:	4b04      	ldr	r3, [pc, #16]	@ (80000f8 <frame_dummy+0x14>)
 80000e6:	b510      	push	{r4, lr}
 80000e8:	2b00      	cmp	r3, #0
 80000ea:	d003      	beq.n	80000f4 <frame_dummy+0x10>
 80000ec:	4903      	ldr	r1, [pc, #12]	@ (80000fc <frame_dummy+0x18>)
 80000ee:	4804      	ldr	r0, [pc, #16]	@ (8000100 <frame_dummy+0x1c>)
 80000f0:	e000      	b.n	80000f4 <frame_dummy+0x10>
 80000f2:	bf00      	nop
 80000f4:	bd10      	pop	{r4, pc}
 80000f6:	46c0      	nop			@ (mov r8, r8)
 80000f8:	00000000 	.word	0x00000000
 80000fc:	2000006c 	.word	0x2000006c
 8000100:	08005634 	.word	0x08005634

08000104 <__gnu_thumb1_case_shi>:
 8000104:	b403      	push	{r0, r1}
 8000106:	4671      	mov	r1, lr
 8000108:	0849      	lsrs	r1, r1, #1
 800010a:	0040      	lsls	r0, r0, #1
 800010c:	0049      	lsls	r1, r1, #1
 800010e:	5e09      	ldrsh	r1, [r1, r0]
 8000110:	0049      	lsls	r1, r1, #1
 8000112:	448e      	add	lr, r1
 8000114:	bc03      	pop	{r0, r1}
 8000116:	4770      	bx	lr

08000118 <__udivsi3>:
 8000118:	2200      	movs	r2, #0
 800011a:	0843      	lsrs	r3, r0, #1
 800011c:	428b      	cmp	r3, r1
 800011e:	d374      	bcc.n	800020a <__udivsi3+0xf2>
 8000120:	0903      	lsrs	r3, r0, #4
 8000122:	428b      	cmp	r3, r1
 8000124:	d35f      	bcc.n	80001e6 <__udivsi3+0xce>
 8000126:	0a03      	lsrs	r3, r0, #8
 8000128:	428b      	cmp	r3, r1
 800012a:	d344      	bcc.n	80001b6 <__udivsi3+0x9e>
 800012c:	0b03      	lsrs	r3, r0, #12
 800012e:	428b      	cmp	r3, r1
 8000130:	d328      	bcc.n	8000184 <__udivsi3+0x6c>
 8000132:	0c03      	lsrs	r3, r0, #16
 8000134:	428b      	cmp	r3, r1
 8000136:	d30d      	bcc.n	8000154 <__udivsi3+0x3c>
 8000138:	22ff      	movs	r2, #255	@ 0xff
 800013a:	0209      	lsls	r1, r1, #8
 800013c:	ba12      	rev	r2, r2
 800013e:	0c03      	lsrs	r3, r0, #16
 8000140:	428b      	cmp	r3, r1
 8000142:	d302      	bcc.n	800014a <__udivsi3+0x32>
 8000144:	1212      	asrs	r2, r2, #8
 8000146:	0209      	lsls	r1, r1, #8
 8000148:	d065      	beq.n	8000216 <__udivsi3+0xfe>
 800014a:	0b03      	lsrs	r3, r0, #12
 800014c:	428b      	cmp	r3, r1
 800014e:	d319      	bcc.n	8000184 <__udivsi3+0x6c>
 8000150:	e000      	b.n	8000154 <__udivsi3+0x3c>
 8000152:	0a09      	lsrs	r1, r1, #8
 8000154:	0bc3      	lsrs	r3, r0, #15
 8000156:	428b      	cmp	r3, r1
 8000158:	d301      	bcc.n	800015e <__udivsi3+0x46>
 800015a:	03cb      	lsls	r3, r1, #15
 800015c:	1ac0      	subs	r0, r0, r3
 800015e:	4152      	adcs	r2, r2
 8000160:	0b83      	lsrs	r3, r0, #14
 8000162:	428b      	cmp	r3, r1
 8000164:	d301      	bcc.n	800016a <__udivsi3+0x52>
 8000166:	038b      	lsls	r3, r1, #14
 8000168:	1ac0      	subs	r0, r0, r3
 800016a:	4152      	adcs	r2, r2
 800016c:	0b43      	lsrs	r3, r0, #13
 800016e:	428b      	cmp	r3, r1
 8000170:	d301      	bcc.n	8000176 <__udivsi3+0x5e>
 8000172:	034b      	lsls	r3, r1, #13
 8000174:	1ac0      	subs	r0, r0, r3
 8000176:	4152      	adcs	r2, r2
 8000178:	0b03      	lsrs	r3, r0, #12
 800017a:	428b      	cmp	r3, r1
 800017c:	d301      	bcc.n	8000182 <__udivsi3+0x6a>
 800017e:	030b      	lsls	r3, r1, #12
 8000180:	1ac0      	subs	r0, r0, r3
 8000182:	4152      	adcs	r2, r2
 8000184:	0ac3      	lsrs	r3, r0, #11
 8000186:	428b      	cmp	r3, r1
 8000188:	d301      	bcc.n	800018e <__udivsi3+0x76>
 800018a:	02cb      	lsls	r3, r1, #11
 800018c:	1ac0      	subs	r0, r0, r3
 800018e:	4152      	adcs	r2, r2
 8000190:	0a83      	lsrs	r3, r0, #10
 8000192:	428b      	cmp	r3, r1
 8000194:	d301      	bcc.n	800019a <__udivsi3+0x82>
 8000196:	028b      	lsls	r3, r1, #10
 8000198:	1ac0      	subs	r0, r0, r3
 800019a:	4152      	adcs	r2, r2
 800019c:	0a43      	lsrs	r3, r0, #9
 800019e:	428b      	cmp	r3, r1
 80001a0:	d301      	bcc.n	80001a6 <__udivsi3+0x8e>
 80001a2:	024b      	lsls	r3, r1, #9
 80001a4:	1ac0      	subs	r0, r0, r3
 80001a6:	4152      	adcs	r2, r2
 80001a8:	0a03      	lsrs	r3, r0, #8
 80001aa:	428b      	cmp	r3, r1
 80001ac:	d301      	bcc.n	80001b2 <__udivsi3+0x9a>
 80001ae:	020b      	lsls	r3, r1, #8
 80001b0:	1ac0      	subs	r0, r0, r3
 80001b2:	4152      	adcs	r2, r2
 80001b4:	d2cd      	bcs.n	8000152 <__udivsi3+0x3a>
 80001b6:	09c3      	lsrs	r3, r0, #7
 80001b8:	428b      	cmp	r3, r1
 80001ba:	d301      	bcc.n	80001c0 <__udivsi3+0xa8>
 80001bc:	01cb      	lsls	r3, r1, #7
 80001be:	1ac0      	subs	r0, r0, r3
 80001c0:	4152      	adcs	r2, r2
 80001c2:	0983      	lsrs	r3, r0, #6
 80001c4:	428b      	cmp	r3, r1
 80001c6:	d301      	bcc.n	80001cc <__udivsi3+0xb4>
 80001c8:	018b      	lsls	r3, r1, #6
 80001ca:	1ac0      	subs	r0, r0, r3
 80001cc:	4152      	adcs	r2, r2
 80001ce:	0943      	lsrs	r3, r0, #5
 80001d0:	428b      	cmp	r3, r1
 80001d2:	d301      	bcc.n	80001d8 <__udivsi3+0xc0>
 80001d4:	014b      	lsls	r3, r1, #5
 80001d6:	1ac0      	subs	r0, r0, r3
 80001d8:	4152      	adcs	r2, r2
 80001da:	0903      	lsrs	r3, r0, #4
 80001dc:	428b      	cmp	r3, r1
 80001de:	d301      	bcc.n	80001e4 <__udivsi3+0xcc>
 80001e0:	010b      	lsls	r3, r1, #4
 80001e2:	1ac0      	subs	r0, r0, r3
 80001e4:	4152      	adcs	r2, r2
 80001e6:	08c3      	lsrs	r3, r0, #3
 80001e8:	428b      	cmp	r3, r1
 80001ea:	d301      	bcc.n	80001f0 <__udivsi3+0xd8>
 80001ec:	00cb      	lsls	r3, r1, #3
 80001ee:	1ac0      	subs	r0, r0, r3
 80001f0:	4152      	adcs	r2, r2
 80001f2:	0883      	lsrs	r3, r0, #2
 80001f4:	428b      	cmp	r3, r1
 80001f6:	d301      	bcc.n	80001fc <__udivsi3+0xe4>
 80001f8:	008b      	lsls	r3, r1, #2
 80001fa:	1ac0      	subs	r0, r0, r3
 80001fc:	4152      	adcs	r2, r2
 80001fe:	0843      	lsrs	r3, r0, #1
 8000200:	428b      	cmp	r3, r1
 8000202:	d301      	bcc.n	8000208 <__udivsi3+0xf0>
 8000204:	004b      	lsls	r3, r1, #1
 8000206:	1ac0      	subs	r0, r0, r3
 8000208:	4152      	adcs	r2, r2
 800020a:	1a41      	subs	r1, r0, r1
 800020c:	d200      	bcs.n	8000210 <__udivsi3+0xf8>
 800020e:	4601      	mov	r1, r0
 8000210:	4152      	adcs	r2, r2
 8000212:	4610      	mov	r0, r2
 8000214:	4770      	bx	lr
 8000216:	e7ff      	b.n	8000218 <__udivsi3+0x100>
 8000218:	b501      	push	{r0, lr}
 800021a:	2000      	movs	r0, #0
 800021c:	f000 f8f0 	bl	8000400 <__aeabi_idiv0>
 8000220:	bd02      	pop	{r1, pc}
 8000222:	46c0      	nop			@ (mov r8, r8)

08000224 <__aeabi_uidivmod>:
 8000224:	2900      	cmp	r1, #0
 8000226:	d0f7      	beq.n	8000218 <__udivsi3+0x100>
 8000228:	e776      	b.n	8000118 <__udivsi3>
 800022a:	4770      	bx	lr

0800022c <__divsi3>:
 800022c:	4603      	mov	r3, r0
 800022e:	430b      	orrs	r3, r1
 8000230:	d47f      	bmi.n	8000332 <__divsi3+0x106>
 8000232:	2200      	movs	r2, #0
 8000234:	0843      	lsrs	r3, r0, #1
 8000236:	428b      	cmp	r3, r1
 8000238:	d374      	bcc.n	8000324 <__divsi3+0xf8>
 800023a:	0903      	lsrs	r3, r0, #4
 800023c:	428b      	cmp	r3, r1
 800023e:	d35f      	bcc.n	8000300 <__divsi3+0xd4>
 8000240:	0a03      	lsrs	r3, r0, #8
 8000242:	428b      	cmp	r3, r1
 8000244:	d344      	bcc.n	80002d0 <__divsi3+0xa4>
 8000246:	0b03      	lsrs	r3, r0, #12
 8000248:	428b      	cmp	r3, r1
 800024a:	d328      	bcc.n	800029e <__divsi3+0x72>
 800024c:	0c03      	lsrs	r3, r0, #16
 800024e:	428b      	cmp	r3, r1
 8000250:	d30d      	bcc.n	800026e <__divsi3+0x42>
 8000252:	22ff      	movs	r2, #255	@ 0xff
 8000254:	0209      	lsls	r1, r1, #8
 8000256:	ba12      	rev	r2, r2
 8000258:	0c03      	lsrs	r3, r0, #16
 800025a:	428b      	cmp	r3, r1
 800025c:	d302      	bcc.n	8000264 <__divsi3+0x38>
 800025e:	1212      	asrs	r2, r2, #8
 8000260:	0209      	lsls	r1, r1, #8
 8000262:	d065      	beq.n	8000330 <__divsi3+0x104>
 8000264:	0b03      	lsrs	r3, r0, #12
 8000266:	428b      	cmp	r3, r1
 8000268:	d319      	bcc.n	800029e <__divsi3+0x72>
 800026a:	e000      	b.n	800026e <__divsi3+0x42>
 800026c:	0a09      	lsrs	r1, r1, #8
 800026e:	0bc3      	lsrs	r3, r0, #15
 8000270:	428b      	cmp	r3, r1
 8000272:	d301      	bcc.n	8000278 <__divsi3+0x4c>
 8000274:	03cb      	lsls	r3, r1, #15
 8000276:	1ac0      	subs	r0, r0, r3
 8000278:	4152      	adcs	r2, r2
 800027a:	0b83      	lsrs	r3, r0, #14
 800027c:	428b      	cmp	r3, r1
 800027e:	d301      	bcc.n	8000284 <__divsi3+0x58>
 8000280:	038b      	lsls	r3, r1, #14
 8000282:	1ac0      	subs	r0, r0, r3
 8000284:	4152      	adcs	r2, r2
 8000286:	0b43      	lsrs	r3, r0, #13
 8000288:	428b      	cmp	r3, r1
 800028a:	d301      	bcc.n	8000290 <__divsi3+0x64>
 800028c:	034b      	lsls	r3, r1, #13
 800028e:	1ac0      	subs	r0, r0, r3
 8000290:	4152      	adcs	r2, r2
 8000292:	0b03      	lsrs	r3, r0, #12
 8000294:	428b      	cmp	r3, r1
 8000296:	d301      	bcc.n	800029c <__divsi3+0x70>
 8000298:	030b      	lsls	r3, r1, #12
 800029a:	1ac0      	subs	r0, r0, r3
 800029c:	4152      	adcs	r2, r2
 800029e:	0ac3      	lsrs	r3, r0, #11
 80002a0:	428b      	cmp	r3, r1
 80002a2:	d301      	bcc.n	80002a8 <__divsi3+0x7c>
 80002a4:	02cb      	lsls	r3, r1, #11
 80002a6:	1ac0      	subs	r0, r0, r3
 80002a8:	4152      	adcs	r2, r2
 80002aa:	0a83      	lsrs	r3, r0, #10
 80002ac:	428b      	cmp	r3, r1
 80002ae:	d301      	bcc.n	80002b4 <__divsi3+0x88>
 80002b0:	028b      	lsls	r3, r1, #10
 80002b2:	1ac0      	subs	r0, r0, r3
 80002b4:	4152      	adcs	r2, r2
 80002b6:	0a43      	lsrs	r3, r0, #9
 80002b8:	428b      	cmp	r3, r1
 80002ba:	d301      	bcc.n	80002c0 <__divsi3+0x94>
 80002bc:	024b      	lsls	r3, r1, #9
 80002be:	1ac0      	subs	r0, r0, r3
 80002c0:	4152      	adcs	r2, r2
 80002c2:	0a03      	lsrs	r3, r0, #8
 80002c4:	428b      	cmp	r3, r1
 80002c6:	d301      	bcc.n	80002cc <__divsi3+0xa0>
 80002c8:	020b      	lsls	r3, r1, #8
 80002ca:	1ac0      	subs	r0, r0, r3
 80002cc:	4152      	adcs	r2, r2
 80002ce:	d2cd      	bcs.n	800026c <__divsi3+0x40>
 80002d0:	09c3      	lsrs	r3, r0, #7
 80002d2:	428b      	cmp	r3, r1
 80002d4:	d301      	bcc.n	80002da <__divsi3+0xae>
 80002d6:	01cb      	lsls	r3, r1, #7
 80002d8:	1ac0      	subs	r0, r0, r3
 80002da:	4152      	adcs	r2, r2
 80002dc:	0983      	lsrs	r3, r0, #6
 80002de:	428b      	cmp	r3, r1
 80002e0:	d301      	bcc.n	80002e6 <__divsi3+0xba>
 80002e2:	018b      	lsls	r3, r1, #6
 80002e4:	1ac0      	subs	r0, r0, r3
 80002e6:	4152      	adcs	r2, r2
 80002e8:	0943      	lsrs	r3, r0, #5
 80002ea:	428b      	cmp	r3, r1
 80002ec:	d301      	bcc.n	80002f2 <__divsi3+0xc6>
 80002ee:	014b      	lsls	r3, r1, #5
 80002f0:	1ac0      	subs	r0, r0, r3
 80002f2:	4152      	adcs	r2, r2
 80002f4:	0903      	lsrs	r3, r0, #4
 80002f6:	428b      	cmp	r3, r1
 80002f8:	d301      	bcc.n	80002fe <__divsi3+0xd2>
 80002fa:	010b      	lsls	r3, r1, #4
 80002fc:	1ac0      	subs	r0, r0, r3
 80002fe:	4152      	adcs	r2, r2
 8000300:	08c3      	lsrs	r3, r0, #3
 8000302:	428b      	cmp	r3, r1
 8000304:	d301      	bcc.n	800030a <__divsi3+0xde>
 8000306:	00cb      	lsls	r3, r1, #3
 8000308:	1ac0      	subs	r0, r0, r3
 800030a:	4152      	adcs	r2, r2
 800030c:	0883      	lsrs	r3, r0, #2
 800030e:	428b      	cmp	r3, r1
 8000310:	d301      	bcc.n	8000316 <__divsi3+0xea>
 8000312:	008b      	lsls	r3, r1, #2
 8000314:	1ac0      	subs	r0, r0, r3
 8000316:	4152      	adcs	r2, r2
 8000318:	0843      	lsrs	r3, r0, #1
 800031a:	428b      	cmp	r3, r1
 800031c:	d301      	bcc.n	8000322 <__divsi3+0xf6>
 800031e:	004b      	lsls	r3, r1, #1
 8000320:	1ac0      	subs	r0, r0, r3
 8000322:	4152      	adcs	r2, r2
 8000324:	1a41      	subs	r1, r0, r1
 8000326:	d200      	bcs.n	800032a <__divsi3+0xfe>
 8000328:	4601      	mov	r1, r0
 800032a:	4152      	adcs	r2, r2
 800032c:	4610      	mov	r0, r2
 800032e:	4770      	bx	lr
 8000330:	e05d      	b.n	80003ee <__divsi3+0x1c2>
 8000332:	0fca      	lsrs	r2, r1, #31
 8000334:	d000      	beq.n	8000338 <__divsi3+0x10c>
 8000336:	4249      	negs	r1, r1
 8000338:	1003      	asrs	r3, r0, #32
 800033a:	d300      	bcc.n	800033e <__divsi3+0x112>
 800033c:	4240      	negs	r0, r0
 800033e:	4053      	eors	r3, r2
 8000340:	2200      	movs	r2, #0
 8000342:	469c      	mov	ip, r3
 8000344:	0903      	lsrs	r3, r0, #4
 8000346:	428b      	cmp	r3, r1
 8000348:	d32d      	bcc.n	80003a6 <__divsi3+0x17a>
 800034a:	0a03      	lsrs	r3, r0, #8
 800034c:	428b      	cmp	r3, r1
 800034e:	d312      	bcc.n	8000376 <__divsi3+0x14a>
 8000350:	22fc      	movs	r2, #252	@ 0xfc
 8000352:	0189      	lsls	r1, r1, #6
 8000354:	ba12      	rev	r2, r2
 8000356:	0a03      	lsrs	r3, r0, #8
 8000358:	428b      	cmp	r3, r1
 800035a:	d30c      	bcc.n	8000376 <__divsi3+0x14a>
 800035c:	0189      	lsls	r1, r1, #6
 800035e:	1192      	asrs	r2, r2, #6
 8000360:	428b      	cmp	r3, r1
 8000362:	d308      	bcc.n	8000376 <__divsi3+0x14a>
 8000364:	0189      	lsls	r1, r1, #6
 8000366:	1192      	asrs	r2, r2, #6
 8000368:	428b      	cmp	r3, r1
 800036a:	d304      	bcc.n	8000376 <__divsi3+0x14a>
 800036c:	0189      	lsls	r1, r1, #6
 800036e:	d03a      	beq.n	80003e6 <__divsi3+0x1ba>
 8000370:	1192      	asrs	r2, r2, #6
 8000372:	e000      	b.n	8000376 <__divsi3+0x14a>
 8000374:	0989      	lsrs	r1, r1, #6
 8000376:	09c3      	lsrs	r3, r0, #7
 8000378:	428b      	cmp	r3, r1
 800037a:	d301      	bcc.n	8000380 <__divsi3+0x154>
 800037c:	01cb      	lsls	r3, r1, #7
 800037e:	1ac0      	subs	r0, r0, r3
 8000380:	4152      	adcs	r2, r2
 8000382:	0983      	lsrs	r3, r0, #6
 8000384:	428b      	cmp	r3, r1
 8000386:	d301      	bcc.n	800038c <__divsi3+0x160>
 8000388:	018b      	lsls	r3, r1, #6
 800038a:	1ac0      	subs	r0, r0, r3
 800038c:	4152      	adcs	r2, r2
 800038e:	0943      	lsrs	r3, r0, #5
 8000390:	428b      	cmp	r3, r1
 8000392:	d301      	bcc.n	8000398 <__divsi3+0x16c>
 8000394:	014b      	lsls	r3, r1, #5
 8000396:	1ac0      	subs	r0, r0, r3
 8000398:	4152      	adcs	r2, r2
 800039a:	0903      	lsrs	r3, r0, #4
 800039c:	428b      	cmp	r3, r1
 800039e:	d301      	bcc.n	80003a4 <__divsi3+0x178>
 80003a0:	010b      	lsls	r3, r1, #4
 80003a2:	1ac0      	subs	r0, r0, r3
 80003a4:	4152      	adcs	r2, r2
 80003a6:	08c3      	lsrs	r3, r0, #3
 80003a8:	428b      	cmp	r3, r1
 80003aa:	d301      	bcc.n	80003b0 <__divsi3+0x184>
 80003ac:	00cb      	lsls	r3, r1, #3
 80003ae:	1ac0      	subs	r0, r0, r3
 80003b0:	4152      	adcs	r2, r2
 80003b2:	0883      	lsrs	r3, r0, #2
 80003b4:	428b      	cmp	r3, r1
 80003b6:	d301      	bcc.n	80003bc <__divsi3+0x190>
 80003b8:	008b      	lsls	r3, r1, #2
 80003ba:	1ac0      	subs	r0, r0, r3
 80003bc:	4152      	adcs	r2, r2
 80003be:	d2d9      	bcs.n	8000374 <__divsi3+0x148>
 80003c0:	0843      	lsrs	r3, r0, #1
 80003c2:	428b      	cmp	r3, r1
 80003c4:	d301      	bcc.n	80003ca <__divsi3+0x19e>
 80003c6:	004b      	lsls	r3, r1, #1
 80003c8:	1ac0      	subs	r0, r0, r3
 80003ca:	4152      	adcs	r2, r2
 80003cc:	1a41      	subs	r1, r0, r1
 80003ce:	d200      	bcs.n	80003d2 <__divsi3+0x1a6>
 80003d0:	4601      	mov	r1, r0
 80003d2:	4663      	mov	r3, ip
 80003d4:	4152      	adcs	r2, r2
 80003d6:	105b      	asrs	r3, r3, #1
 80003d8:	4610      	mov	r0, r2
 80003da:	d301      	bcc.n	80003e0 <__divsi3+0x1b4>
 80003dc:	4240      	negs	r0, r0
 80003de:	2b00      	cmp	r3, #0
 80003e0:	d500      	bpl.n	80003e4 <__divsi3+0x1b8>
 80003e2:	4249      	negs	r1, r1
 80003e4:	4770      	bx	lr
 80003e6:	4663      	mov	r3, ip
 80003e8:	105b      	asrs	r3, r3, #1
 80003ea:	d300      	bcc.n	80003ee <__divsi3+0x1c2>
 80003ec:	4240      	negs	r0, r0
 80003ee:	b501      	push	{r0, lr}
 80003f0:	2000      	movs	r0, #0
 80003f2:	f000 f805 	bl	8000400 <__aeabi_idiv0>
 80003f6:	bd02      	pop	{r1, pc}

080003f8 <__aeabi_idivmod>:
 80003f8:	2900      	cmp	r1, #0
 80003fa:	d0f8      	beq.n	80003ee <__divsi3+0x1c2>
 80003fc:	e716      	b.n	800022c <__divsi3>
 80003fe:	4770      	bx	lr

08000400 <__aeabi_idiv0>:
 8000400:	4770      	bx	lr
 8000402:	46c0      	nop			@ (mov r8, r8)

08000404 <__aeabi_uldivmod>:
 8000404:	2b00      	cmp	r3, #0
 8000406:	d111      	bne.n	800042c <__aeabi_uldivmod+0x28>
 8000408:	2a00      	cmp	r2, #0
 800040a:	d10f      	bne.n	800042c <__aeabi_uldivmod+0x28>
 800040c:	2900      	cmp	r1, #0
 800040e:	d100      	bne.n	8000412 <__aeabi_uldivmod+0xe>
 8000410:	2800      	cmp	r0, #0
 8000412:	d002      	beq.n	800041a <__aeabi_uldivmod+0x16>
 8000414:	2100      	movs	r1, #0
 8000416:	43c9      	mvns	r1, r1
 8000418:	0008      	movs	r0, r1
 800041a:	b407      	push	{r0, r1, r2}
 800041c:	4802      	ldr	r0, [pc, #8]	@ (8000428 <__aeabi_uldivmod+0x24>)
 800041e:	a102      	add	r1, pc, #8	@ (adr r1, 8000428 <__aeabi_uldivmod+0x24>)
 8000420:	1840      	adds	r0, r0, r1
 8000422:	9002      	str	r0, [sp, #8]
 8000424:	bd03      	pop	{r0, r1, pc}
 8000426:	46c0      	nop			@ (mov r8, r8)
 8000428:	ffffffd9 	.word	0xffffffd9
 800042c:	b403      	push	{r0, r1}
 800042e:	4668      	mov	r0, sp
 8000430:	b501      	push	{r0, lr}
 8000432:	9802      	ldr	r0, [sp, #8]
 8000434:	f000 f806 	bl	8000444 <__udivmoddi4>
 8000438:	9b01      	ldr	r3, [sp, #4]
 800043a:	469e      	mov	lr, r3
 800043c:	b002      	add	sp, #8
 800043e:	bc0c      	pop	{r2, r3}
 8000440:	4770      	bx	lr
 8000442:	46c0      	nop			@ (mov r8, r8)

08000444 <__udivmoddi4>:
 8000444:	b5f0      	push	{r4, r5, r6, r7, lr}
 8000446:	4657      	mov	r7, sl
 8000448:	464e      	mov	r6, r9
 800044a:	4645      	mov	r5, r8
 800044c:	46de      	mov	lr, fp
 800044e:	b5e0      	push	{r5, r6, r7, lr}
 8000450:	0004      	movs	r4, r0
 8000452:	000d      	movs	r5, r1
 8000454:	4692      	mov	sl, r2
 8000456:	4699      	mov	r9, r3
 8000458:	b083      	sub	sp, #12
 800045a:	428b      	cmp	r3, r1
 800045c:	d830      	bhi.n	80004c0 <__udivmoddi4+0x7c>
 800045e:	d02d      	beq.n	80004bc <__udivmoddi4+0x78>
 8000460:	4649      	mov	r1, r9
 8000462:	4650      	mov	r0, sl
 8000464:	f000 f8ba 	bl	80005dc <__clzdi2>
 8000468:	0029      	movs	r1, r5
 800046a:	0006      	movs	r6, r0
 800046c:	0020      	movs	r0, r4
 800046e:	f000 f8b5 	bl	80005dc <__clzdi2>
 8000472:	1a33      	subs	r3, r6, r0
 8000474:	4698      	mov	r8, r3
 8000476:	3b20      	subs	r3, #32
 8000478:	d434      	bmi.n	80004e4 <__udivmoddi4+0xa0>
 800047a:	469b      	mov	fp, r3
 800047c:	4653      	mov	r3, sl
 800047e:	465a      	mov	r2, fp
 8000480:	4093      	lsls	r3, r2
 8000482:	4642      	mov	r2, r8
 8000484:	001f      	movs	r7, r3
 8000486:	4653      	mov	r3, sl
 8000488:	4093      	lsls	r3, r2
 800048a:	001e      	movs	r6, r3
 800048c:	42af      	cmp	r7, r5
 800048e:	d83b      	bhi.n	8000508 <__udivmoddi4+0xc4>
 8000490:	42af      	cmp	r7, r5
 8000492:	d100      	bne.n	8000496 <__udivmoddi4+0x52>
 8000494:	e079      	b.n	800058a <__udivmoddi4+0x146>
 8000496:	465b      	mov	r3, fp
 8000498:	1ba4      	subs	r4, r4, r6
 800049a:	41bd      	sbcs	r5, r7
 800049c:	2b00      	cmp	r3, #0
 800049e:	da00      	bge.n	80004a2 <__udivmoddi4+0x5e>
 80004a0:	e076      	b.n	8000590 <__udivmoddi4+0x14c>
 80004a2:	2200      	movs	r2, #0
 80004a4:	2300      	movs	r3, #0
 80004a6:	9200      	str	r2, [sp, #0]
 80004a8:	9301      	str	r3, [sp, #4]
 80004aa:	2301      	movs	r3, #1
 80004ac:	465a      	mov	r2, fp
 80004ae:	4093      	lsls	r3, r2
 80004b0:	9301      	str	r3, [sp, #4]
 80004b2:	2301      	movs	r3, #1
 80004b4:	4642      	mov	r2, r8
 80004b6:	4093      	lsls	r3, r2
 80004b8:	9300      	str	r3, [sp, #0]
 80004ba:	e029      	b.n	8000510 <__udivmoddi4+0xcc>
 80004bc:	4282      	cmp	r2, r0
 80004be:	d9cf      	bls.n	8000460 <__udivmoddi4+0x1c>
 80004c0:	2200      	movs	r2, #0
 80004c2:	2300      	movs	r3, #0
 80004c4:	9200      	str	r2, [sp, #0]
 80004c6:	9301      	str	r3, [sp, #4]
 80004c8:	9b0c      	ldr	r3, [sp, #48]	@ 0x30
 80004ca:	2b00      	cmp	r3, #0
 80004cc:	d001      	beq.n	80004d2 <__udivmoddi4+0x8e>
 80004ce:	601c      	str	r4, [r3, #0]
 80004d0:	605d      	str	r5, [r3, #4]
 80004d2:	9800      	ldr	r0, [sp, #0]
 80004d4:	9901      	ldr	r1, [sp, #4]
 80004d6:	b003      	add	sp, #12
 80004d8:	bcf0      	pop	{r4, r5, r6, r7}
 80004da:	46bb      	mov	fp, r7
 80004dc:	46b2      	mov	sl, r6
 80004de:	46a9      	mov	r9, r5
 80004e0:	46a0      	mov	r8, r4
 80004e2:	bdf0      	pop	{r4, r5, r6, r7, pc}
 80004e4:	4642      	mov	r2, r8
 80004e6:	469b      	mov	fp, r3
 80004e8:	2320      	movs	r3, #32
 80004ea:	1a9b      	subs	r3, r3, r2
 80004ec:	4652      	mov	r2, sl
 80004ee:	40da      	lsrs	r2, r3
 80004f0:	4641      	mov	r1, r8
 80004f2:	0013      	movs	r3, r2
 80004f4:	464a      	mov	r2, r9
 80004f6:	408a      	lsls	r2, r1
 80004f8:	0017      	movs	r7, r2
 80004fa:	4642      	mov	r2, r8
 80004fc:	431f      	orrs	r7, r3
 80004fe:	4653      	mov	r3, sl
 8000500:	4093      	lsls	r3, r2
 8000502:	001e      	movs	r6, r3
 8000504:	42af      	cmp	r7, r5
 8000506:	d9c3      	bls.n	8000490 <__udivmoddi4+0x4c>
 8000508:	2200      	movs	r2, #0
 800050a:	2300      	movs	r3, #0
 800050c:	9200      	str	r2, [sp, #0]
 800050e:	9301      	str	r3, [sp, #4]
 8000510:	4643      	mov	r3, r8
 8000512:	2b00      	cmp	r3, #0
 8000514:	d0d8      	beq.n	80004c8 <__udivmoddi4+0x84>
 8000516:	07fb      	lsls	r3, r7, #31
 8000518:	0872      	lsrs	r2, r6, #1
 800051a:	431a      	orrs	r2, r3
 800051c:	4646      	mov	r6, r8
 800051e:	087b      	lsrs	r3, r7, #1
 8000520:	e00e      	b.n	8000540 <__udivmoddi4+0xfc>
 8000522:	42ab      	cmp	r3, r5
 8000524:	d101      	bne.n	800052a <__udivmoddi4+0xe6>
 8000526:	42a2      	cmp	r2, r4
 8000528:	d80c      	bhi.n	8000544 <__udivmoddi4+0x100>
 800052a:	1aa4      	subs	r4, r4, r2
 800052c:	419d      	sbcs	r5, r3
 800052e:	2001      	movs	r0, #1
 8000530:	1924      	adds	r4, r4, r4
 8000532:	416d      	adcs	r5, r5
 8000534:	2100      	movs	r1, #0
 8000536:	3e01      	subs	r6, #1
 8000538:	1824      	adds	r4, r4, r0
 800053a:	414d      	adcs	r5, r1
 800053c:	2e00      	cmp	r6, #0
 800053e:	d006      	beq.n	800054e <__udivmoddi4+0x10a>
 8000540:	42ab      	cmp	r3, r5
 8000542:	d9ee      	bls.n	8000522 <__udivmoddi4+0xde>
 8000544:	3e01      	subs	r6, #1
 8000546:	1924      	adds	r4, r4, r4
 8000548:	416d      	adcs	r5, r5
 800054a:	2e00      	cmp	r6, #0
 800054c:	d1f8      	bne.n	8000540 <__udivmoddi4+0xfc>
 800054e:	9800      	ldr	r0, [sp, #0]
 8000550:	9901      	ldr	r1, [sp, #4]
 8000552:	465b      	mov	r3, fp
 8000554:	1900      	adds	r0, r0, r4
 8000556:	4169      	adcs	r1, r5
 8000558:	2b00      	cmp	r3, #0
 800055a:	db24      	blt.n	80005a6 <__udivmoddi4+0x162>
 800055c:	002b      	movs	r3, r5
 800055e:	465a      	mov	r2, fp
 8000560:	4644      	mov	r4, r8
 8000562:	40d3      	lsrs	r3, r2
 8000564:	002a      	movs	r2, r5
 8000566:	40e2      	lsrs	r2, r4
 8000568:	001c      	movs	r4, r3
 800056a:	465b      	mov	r3, fp
 800056c:	0015      	movs	r5, r2
 800056e:	2b00      	cmp	r3, #0
 8000570:	db2a      	blt.n	80005c8 <__udivmoddi4+0x184>
 8000572:	0026      	movs	r6, r4
 8000574:	409e      	lsls	r6, r3
 8000576:	0033      	movs	r3, r6
 8000578:	0026      	movs	r6, r4
 800057a:	4647      	mov	r7, r8
 800057c:	40be      	lsls	r6, r7
 800057e:	0032      	movs	r2, r6
 8000580:	1a80      	subs	r0, r0, r2
 8000582:	4199      	sbcs	r1, r3
 8000584:	9000      	str	r0, [sp, #0]
 8000586:	9101      	str	r1, [sp, #4]
 8000588:	e79e      	b.n	80004c8 <__udivmoddi4+0x84>
 800058a:	42a3      	cmp	r3, r4
 800058c:	d8bc      	bhi.n	8000508 <__udivmoddi4+0xc4>
 800058e:	e782      	b.n	8000496 <__udivmoddi4+0x52>
 8000590:	4642      	mov	r2, r8
 8000592:	2320      	movs	r3, #32
 8000594:	2100      	movs	r1, #0
 8000596:	1a9b      	subs	r3, r3, r2
 8000598:	2200      	movs	r2, #0
 800059a:	9100      	str	r1, [sp, #0]
 800059c:	9201      	str	r2, [sp, #4]
 800059e:	2201      	movs	r2, #1
 80005a0:	40da      	lsrs	r2, r3
 80005a2:	9201      	str	r2, [sp, #4]
 80005a4:	e785      	b.n	80004b2 <__udivmoddi4+0x6e>
 80005a6:	4642      	mov	r2, r8
 80005a8:	2320      	movs	r3, #32
 80005aa:	1a9b      	subs	r3, r3, r2
 80005ac:	002a      	movs	r2, r5
 80005ae:	4646      	mov	r6, r8
 80005b0:	409a      	lsls	r2, r3
 80005b2:	0023      	movs	r3, r4
 80005b4:	40f3      	lsrs	r3, r6
 80005b6:	4644      	mov	r4, r8
 80005b8:	4313      	orrs	r3, r2
 80005ba:	002a      	movs	r2, r5
 80005bc:	40e2      	lsrs	r2, r4
 80005be:	001c      	movs	r4, r3
 80005c0:	465b      	mov	r3, fp
 80005c2:	0015      	movs	r5, r2
 80005c4:	2b00      	cmp	r3, #0
 80005c6:	dad4      	bge.n	8000572 <__udivmoddi4+0x12e>
 80005c8:	4642      	mov	r2, r8
 80005ca:	002f      	movs	r7, r5
 80005cc:	2320      	movs	r3, #32
 80005ce:	0026      	movs	r6, r4
 80005d0:	4097      	lsls	r7, r2
 80005d2:	1a9b      	subs	r3, r3, r2
 80005d4:	40de      	lsrs	r6, r3
 80005d6:	003b      	movs	r3, r7
 80005d8:	4333      	orrs	r3, r6
 80005da:	e7cd      	b.n	8000578 <__udivmoddi4+0x134>

080005dc <__clzdi2>:
 80005dc:	b510      	push	{r4, lr}
 80005de:	2900      	cmp	r1, #0
 80005e0:	d103      	bne.n	80005ea <__clzdi2+0xe>
 80005e2:	f000 f807 	bl	80005f4 <__clzsi2>
 80005e6:	3020      	adds	r0, #32
 80005e8:	e002      	b.n	80005f0 <__clzdi2+0x14>
 80005ea:	0008      	movs	r0, r1
 80005ec:	f000 f802 	bl	80005f4 <__clzsi2>
 80005f0:	bd10      	pop	{r4, pc}
 80005f2:	46c0      	nop			@ (mov r8, r8)

080005f4 <__clzsi2>:
 80005f4:	211c      	movs	r1, #28
 80005f6:	2301      	movs	r3, #1
 80005f8:	041b      	lsls	r3, r3, #16
 80005fa:	4298      	cmp	r0, r3
 80005fc:	d301      	bcc.n	8000602 <__clzsi2+0xe>
 80005fe:	0c00      	lsrs	r0, r0, #16
 8000600:	3910      	subs	r1, #16
 8000602:	0a1b      	lsrs	r3, r3, #8
 8000604:	4298      	cmp	r0, r3
 8000606:	d301      	bcc.n	800060c <__clzsi2+0x18>
 8000608:	0a00      	lsrs	r0, r0, #8
 800060a:	3908      	subs	r1, #8
 800060c:	091b      	lsrs	r3, r3, #4
 800060e:	4298      	cmp	r0, r3
 8000610:	d301      	bcc.n	8000616 <__clzsi2+0x22>
 8000612:	0900      	lsrs	r0, r0, #4
 8000614:	3904      	subs	r1, #4
 8000616:	a202      	add	r2, pc, #8	@ (adr r2, 8000620 <__clzsi2+0x2c>)
 8000618:	5c10      	ldrb	r0, [r2, r0]
 800061a:	1840      	adds	r0, r0, r1
 800061c:	4770      	bx	lr
 800061e:	46c0      	nop			@ (mov r8, r8)
 8000620:	02020304 	.word	0x02020304
 8000624:	01010101 	.word	0x01010101
	...

08000630 <MX_ADC1_Init>:
ADC_HandleTypeDef hadc1;
DMA_HandleTypeDef hdma_adc1;

/* ADC1 init function */
void MX_ADC1_Init(void)
{
 8000630:	b580      	push	{r7, lr}
 8000632:	b084      	sub	sp, #16
 8000634:	af00      	add	r7, sp, #0

  /* USER CODE BEGIN ADC1_Init 0 */

  /* USER CODE END ADC1_Init 0 */

  ADC_ChannelConfTypeDef sConfig = {0};
 8000636:	1d3b      	adds	r3, r7, #4
 8000638:	0018      	movs	r0, r3
 800063a:	230c      	movs	r3, #12
 800063c:	001a      	movs	r2, r3
 800063e:	2100      	movs	r1, #0
 8000640:	f004 f9b8 	bl	80049b4 <memset>

  /* USER CODE END ADC1_Init 1 */

  /** Configure the global features of the ADC (Clock, Resolution, Data Alignment and number of conversion)
  */
  hadc1.Instance = ADC1;
 8000644:	4b36      	ldr	r3, [pc, #216]	@ (8000720 <MX_ADC1_Init+0xf0>)
 8000646:	4a37      	ldr	r2, [pc, #220]	@ (8000724 <MX_ADC1_Init+0xf4>)
 8000648:	601a      	str	r2, [r3, #0]
  hadc1.Init.ClockPrescaler = ADC_CLOCK_SYNC_PCLK_DIV2;
 800064a:	4b35      	ldr	r3, [pc, #212]	@ (8000720 <MX_ADC1_Init+0xf0>)
 800064c:	2280      	movs	r2, #128	@ 0x80
 800064e:	05d2      	lsls	r2, r2, #23
 8000650:	605a      	str	r2, [r3, #4]
  hadc1.Init.Resolution = ADC_RESOLUTION_12B;
 8000652:	4b33      	ldr	r3, [pc, #204]	@ (8000720 <MX_ADC1_Init+0xf0>)
 8000654:	2200      	movs	r2, #0
 8000656:	609a      	str	r2, [r3, #8]
  hadc1.Init.DataAlign = ADC_DATAALIGN_RIGHT;
 8000658:	4b31      	ldr	r3, [pc, #196]	@ (8000720 <MX_ADC1_Init+0xf0>)
 800065a:	2200      	movs	r2, #0
 800065c:	60da      	str	r2, [r3, #12]
  hadc1.Init.ScanConvMode = ADC_SCAN_ENABLE;
 800065e:	4b30      	ldr	r3, [pc, #192]	@ (8000720 <MX_ADC1_Init+0xf0>)
 8000660:	2280      	movs	r2, #128	@ 0x80
 8000662:	0392      	lsls	r2, r2, #14
 8000664:	611a      	str	r2, [r3, #16]
  hadc1.Init.EOCSelection = ADC_EOC_SEQ_CONV;
 8000666:	4b2e      	ldr	r3, [pc, #184]	@ (8000720 <MX_ADC1_Init+0xf0>)
 8000668:	2208      	movs	r2, #8
 800066a:	615a      	str	r2, [r3, #20]
  hadc1.Init.LowPowerAutoWait = DISABLE;
 800066c:	4b2c      	ldr	r3, [pc, #176]	@ (8000720 <MX_ADC1_Init+0xf0>)
 800066e:	2200      	movs	r2, #0
 8000670:	761a      	strb	r2, [r3, #24]
  hadc1.Init.LowPowerAutoPowerOff = DISABLE;
 8000672:	4b2b      	ldr	r3, [pc, #172]	@ (8000720 <MX_ADC1_Init+0xf0>)
 8000674:	2200      	movs	r2, #0
 8000676:	765a      	strb	r2, [r3, #25]
  hadc1.Init.ContinuousConvMode = ENABLE;
 8000678:	4b29      	ldr	r3, [pc, #164]	@ (8000720 <MX_ADC1_Init+0xf0>)
 800067a:	2201      	movs	r2, #1
 800067c:	769a      	strb	r2, [r3, #26]
  hadc1.Init.NbrOfConversion = 2;
 800067e:	4b28      	ldr	r3, [pc, #160]	@ (8000720 <MX_ADC1_Init+0xf0>)
 8000680:	2202      	movs	r2, #2
 8000682:	61da      	str	r2, [r3, #28]
  hadc1.Init.ExternalTrigConv = ADC_SOFTWARE_START;
 8000684:	4b26      	ldr	r3, [pc, #152]	@ (8000720 <MX_ADC1_Init+0xf0>)
 8000686:	2200      	movs	r2, #0
 8000688:	625a      	str	r2, [r3, #36]	@ 0x24
  hadc1.Init.ExternalTrigConvEdge = ADC_EXTERNALTRIGCONVEDGE_NONE;
 800068a:	4b25      	ldr	r3, [pc, #148]	@ (8000720 <MX_ADC1_Init+0xf0>)
 800068c:	2200      	movs	r2, #0
 800068e:	629a      	str	r2, [r3, #40]	@ 0x28
  hadc1.Init.DMAContinuousRequests = ENABLE;
 8000690:	4b23      	ldr	r3, [pc, #140]	@ (8000720 <MX_ADC1_Init+0xf0>)
 8000692:	222c      	movs	r2, #44	@ 0x2c
 8000694:	2101      	movs	r1, #1
 8000696:	5499      	strb	r1, [r3, r2]
  hadc1.Init.Overrun = ADC_OVR_DATA_OVERWRITTEN;
 8000698:	4b21      	ldr	r3, [pc, #132]	@ (8000720 <MX_ADC1_Init+0xf0>)
 800069a:	2280      	movs	r2, #128	@ 0x80
 800069c:	0152      	lsls	r2, r2, #5
 800069e:	631a      	str	r2, [r3, #48]	@ 0x30
  hadc1.Init.SamplingTimeCommon1 = ADC_SAMPLETIME_1CYCLE_5;
 80006a0:	4b1f      	ldr	r3, [pc, #124]	@ (8000720 <MX_ADC1_Init+0xf0>)
 80006a2:	2200      	movs	r2, #0
 80006a4:	635a      	str	r2, [r3, #52]	@ 0x34
  hadc1.Init.SamplingTimeCommon2 = ADC_SAMPLETIME_160CYCLES_5;
 80006a6:	4b1e      	ldr	r3, [pc, #120]	@ (8000720 <MX_ADC1_Init+0xf0>)
 80006a8:	2207      	movs	r2, #7
 80006aa:	639a      	str	r2, [r3, #56]	@ 0x38
  hadc1.Init.OversamplingMode = DISABLE;
 80006ac:	4b1c      	ldr	r3, [pc, #112]	@ (8000720 <MX_ADC1_Init+0xf0>)
 80006ae:	223c      	movs	r2, #60	@ 0x3c
 80006b0:	2100      	movs	r1, #0
 80006b2:	5499      	strb	r1, [r3, r2]
  hadc1.Init.TriggerFrequencyMode = ADC_TRIGGER_FREQ_HIGH;
 80006b4:	4b1a      	ldr	r3, [pc, #104]	@ (8000720 <MX_ADC1_Init+0xf0>)
 80006b6:	2200      	movs	r2, #0
 80006b8:	64da      	str	r2, [r3, #76]	@ 0x4c
  if (HAL_ADC_Init(&hadc1) != HAL_OK)
 80006ba:	4b19      	ldr	r3, [pc, #100]	@ (8000720 <MX_ADC1_Init+0xf0>)
 80006bc:	0018      	movs	r0, r3
 80006be:	f000 fd9f 	bl	8001200 <HAL_ADC_Init>
 80006c2:	1e03      	subs	r3, r0, #0
 80006c4:	d001      	beq.n	80006ca <MX_ADC1_Init+0x9a>
  {
    Error_Handler();
 80006c6:	f000 f9bf 	bl	8000a48 <Error_Handler>
  }

  /** Configure Regular Channel
  */
  sConfig.Channel = ADC_CHANNEL_0;
 80006ca:	1d3b      	adds	r3, r7, #4
 80006cc:	2201      	movs	r2, #1
 80006ce:	601a      	str	r2, [r3, #0]
  sConfig.Rank = ADC_REGULAR_RANK_1;
 80006d0:	1d3b      	adds	r3, r7, #4
 80006d2:	2200      	movs	r2, #0
 80006d4:	605a      	str	r2, [r3, #4]
  sConfig.SamplingTime = ADC_SAMPLINGTIME_COMMON_1;
 80006d6:	1d3b      	adds	r3, r7, #4
 80006d8:	2200      	movs	r2, #0
 80006da:	609a      	str	r2, [r3, #8]
  if (HAL_ADC_ConfigChannel(&hadc1, &sConfig) != HAL_OK)
 80006dc:	1d3a      	adds	r2, r7, #4
 80006de:	4b10      	ldr	r3, [pc, #64]	@ (8000720 <MX_ADC1_Init+0xf0>)
 80006e0:	0011      	movs	r1, r2
 80006e2:	0018      	movs	r0, r3
 80006e4:	f001 f844 	bl	8001770 <HAL_ADC_ConfigChannel>
 80006e8:	1e03      	subs	r3, r0, #0
 80006ea:	d001      	beq.n	80006f0 <MX_ADC1_Init+0xc0>
  {
    Error_Handler();
 80006ec:	f000 f9ac 	bl	8000a48 <Error_Handler>
  }

  /** Configure Regular Channel
  */
  sConfig.Channel = ADC_CHANNEL_TEMPSENSOR;
 80006f0:	1d3b      	adds	r3, r7, #4
 80006f2:	4a0d      	ldr	r2, [pc, #52]	@ (8000728 <MX_ADC1_Init+0xf8>)
 80006f4:	601a      	str	r2, [r3, #0]
  sConfig.Rank = ADC_REGULAR_RANK_2;
 80006f6:	1d3b      	adds	r3, r7, #4
 80006f8:	2204      	movs	r2, #4
 80006fa:	605a      	str	r2, [r3, #4]
  sConfig.SamplingTime = ADC_SAMPLINGTIME_COMMON_2;
 80006fc:	1d3b      	adds	r3, r7, #4
 80006fe:	4a0b      	ldr	r2, [pc, #44]	@ (800072c <MX_ADC1_Init+0xfc>)
 8000700:	609a      	str	r2, [r3, #8]
  if (HAL_ADC_ConfigChannel(&hadc1, &sConfig) != HAL_OK)
 8000702:	1d3a      	adds	r2, r7, #4
 8000704:	4b06      	ldr	r3, [pc, #24]	@ (8000720 <MX_ADC1_Init+0xf0>)
 8000706:	0011      	movs	r1, r2
 8000708:	0018      	movs	r0, r3
 800070a:	f001 f831 	bl	8001770 <HAL_ADC_ConfigChannel>
 800070e:	1e03      	subs	r3, r0, #0
 8000710:	d001      	beq.n	8000716 <MX_ADC1_Init+0xe6>
  {
    Error_Handler();
 8000712:	f000 f999 	bl	8000a48 <Error_Handler>
  }
  /* USER CODE BEGIN ADC1_Init 2 */

  /* USER CODE END ADC1_Init 2 */

}
 8000716:	46c0      	nop			@ (mov r8, r8)
 8000718:	46bd      	mov	sp, r7
 800071a:	b004      	add	sp, #16
 800071c:	bd80      	pop	{r7, pc}
 800071e:	46c0      	nop			@ (mov r8, r8)
 8000720:	20000084 	.word	0x20000084
 8000724:	40012400 	.word	0x40012400
 8000728:	b0001000 	.word	0xb0001000
 800072c:	07ffff04 	.word	0x07ffff04

08000730 <HAL_ADC_MspInit>:

void HAL_ADC_MspInit(ADC_HandleTypeDef* adcHandle)
{
 8000730:	b590      	push	{r4, r7, lr}
 8000732:	b08b      	sub	sp, #44	@ 0x2c
 8000734:	af00      	add	r7, sp, #0
 8000736:	6078      	str	r0, [r7, #4]

  GPIO_InitTypeDef GPIO_InitStruct = {0};
 8000738:	2414      	movs	r4, #20
 800073a:	193b      	adds	r3, r7, r4
 800073c:	0018      	movs	r0, r3
 800073e:	2314      	movs	r3, #20
 8000740:	001a      	movs	r2, r3
 8000742:	2100      	movs	r1, #0
 8000744:	f004 f936 	bl	80049b4 <memset>
  if(adcHandle->Instance==ADC1)
 8000748:	687b      	ldr	r3, [r7, #4]
 800074a:	681b      	ldr	r3, [r3, #0]
 800074c:	4a2d      	ldr	r2, [pc, #180]	@ (8000804 <HAL_ADC_MspInit+0xd4>)
 800074e:	4293      	cmp	r3, r2
 8000750:	d154      	bne.n	80007fc <HAL_ADC_MspInit+0xcc>
  {
  /* USER CODE BEGIN ADC1_MspInit 0 */

  /* USER CODE END ADC1_MspInit 0 */
    /* ADC1 clock enable */
    __HAL_RCC_ADC_CLK_ENABLE();
 8000752:	4b2d      	ldr	r3, [pc, #180]	@ (8000808 <HAL_ADC_MspInit+0xd8>)
 8000754:	6c1a      	ldr	r2, [r3, #64]	@ 0x40
 8000756:	4b2c      	ldr	r3, [pc, #176]	@ (8000808 <HAL_ADC_MspInit+0xd8>)
 8000758:	2180      	movs	r1, #128	@ 0x80
 800075a:	0349      	lsls	r1, r1, #13
 800075c:	430a      	orrs	r2, r1
 800075e:	641a      	str	r2, [r3, #64]	@ 0x40
 8000760:	4b29      	ldr	r3, [pc, #164]	@ (8000808 <HAL_ADC_MspInit+0xd8>)
 8000762:	6c1a      	ldr	r2, [r3, #64]	@ 0x40
 8000764:	2380      	movs	r3, #128	@ 0x80
 8000766:	035b      	lsls	r3, r3, #13
 8000768:	4013      	ands	r3, r2
 800076a:	613b      	str	r3, [r7, #16]
 800076c:	693b      	ldr	r3, [r7, #16]

    __HAL_RCC_GPIOA_CLK_ENABLE();
 800076e:	4b26      	ldr	r3, [pc, #152]	@ (8000808 <HAL_ADC_MspInit+0xd8>)
 8000770:	6b5a      	ldr	r2, [r3, #52]	@ 0x34
 8000772:	4b25      	ldr	r3, [pc, #148]	@ (8000808 <HAL_ADC_MspInit+0xd8>)
 8000774:	2101      	movs	r1, #1
 8000776:	430a      	orrs	r2, r1
 8000778:	635a      	str	r2, [r3, #52]	@ 0x34
 800077a:	4b23      	ldr	r3, [pc, #140]	@ (8000808 <HAL_ADC_MspInit+0xd8>)
 800077c:	6b5b      	ldr	r3, [r3, #52]	@ 0x34
 800077e:	2201      	movs	r2, #1
 8000780:	4013      	ands	r3, r2
 8000782:	60fb      	str	r3, [r7, #12]
 8000784:	68fb      	ldr	r3, [r7, #12]
    /**ADC1 GPIO Configuration
    PA0     ------> ADC1_IN0
    */
    GPIO_InitStruct.Pin = GPIO_PIN_0;
 8000786:	193b      	adds	r3, r7, r4
 8000788:	2201      	movs	r2, #1
 800078a:	601a      	str	r2, [r3, #0]
    GPIO_InitStruct.Mode = GPIO_MODE_ANALOG;
 800078c:	193b      	adds	r3, r7, r4
 800078e:	2203      	movs	r2, #3
 8000790:	605a      	str	r2, [r3, #4]
    GPIO_InitStruct.Pull = GPIO_NOPULL;
 8000792:	193b      	adds	r3, r7, r4
 8000794:	2200      	movs	r2, #0
 8000796:	609a      	str	r2, [r3, #8]
    HAL_GPIO_Init(GPIOA, &GPIO_InitStruct);
 8000798:	193a      	adds	r2, r7, r4
 800079a:	23a0      	movs	r3, #160	@ 0xa0
 800079c:	05db      	lsls	r3, r3, #23
 800079e:	0011      	movs	r1, r2
 80007a0:	0018      	movs	r0, r3
 80007a2:	f002 f897 	bl	80028d4 <HAL_GPIO_Init>

    /* ADC1 DMA Init */
    /* ADC1 Init */
    hdma_adc1.Instance = DMA1_Channel1;
 80007a6:	4b19      	ldr	r3, [pc, #100]	@ (800080c <HAL_ADC_MspInit+0xdc>)
 80007a8:	4a19      	ldr	r2, [pc, #100]	@ (8000810 <HAL_ADC_MspInit+0xe0>)
 80007aa:	601a      	str	r2, [r3, #0]
    hdma_adc1.Init.Request = DMA_REQUEST_ADC1;
 80007ac:	4b17      	ldr	r3, [pc, #92]	@ (800080c <HAL_ADC_MspInit+0xdc>)
 80007ae:	2205      	movs	r2, #5
 80007b0:	605a      	str	r2, [r3, #4]
    hdma_adc1.Init.Direction = DMA_PERIPH_TO_MEMORY;
 80007b2:	4b16      	ldr	r3, [pc, #88]	@ (800080c <HAL_ADC_MspInit+0xdc>)
 80007b4:	2200      	movs	r2, #0
 80007b6:	609a      	str	r2, [r3, #8]
    hdma_adc1.Init.PeriphInc = DMA_PINC_DISABLE;
 80007b8:	4b14      	ldr	r3, [pc, #80]	@ (800080c <HAL_ADC_MspInit+0xdc>)
 80007ba:	2200      	movs	r2, #0
 80007bc:	60da      	str	r2, [r3, #12]
    hdma_adc1.Init.MemInc = DMA_MINC_ENABLE;
 80007be:	4b13      	ldr	r3, [pc, #76]	@ (800080c <HAL_ADC_MspInit+0xdc>)
 80007c0:	2280      	movs	r2, #128	@ 0x80
 80007c2:	611a      	str	r2, [r3, #16]
    hdma_adc1.Init.PeriphDataAlignment = DMA_PDATAALIGN_HALFWORD;
 80007c4:	4b11      	ldr	r3, [pc, #68]	@ (800080c <HAL_ADC_MspInit+0xdc>)
 80007c6:	2280      	movs	r2, #128	@ 0x80
 80007c8:	0052      	lsls	r2, r2, #1
 80007ca:	615a      	str	r2, [r3, #20]
    hdma_adc1.Init.MemDataAlignment = DMA_MDATAALIGN_HALFWORD;
 80007cc:	4b0f      	ldr	r3, [pc, #60]	@ (800080c <HAL_ADC_MspInit+0xdc>)
 80007ce:	2280      	movs	r2, #128	@ 0x80
 80007d0:	00d2      	lsls	r2, r2, #3
 80007d2:	619a      	str	r2, [r3, #24]
    hdma_adc1.Init.Mode = DMA_CIRCULAR;
 80007d4:	4b0d      	ldr	r3, [pc, #52]	@ (800080c <HAL_ADC_MspInit+0xdc>)
 80007d6:	2220      	movs	r2, #32
 80007d8:	61da      	str	r2, [r3, #28]
    hdma_adc1.Init.Priority = DMA_PRIORITY_LOW;
 80007da:	4b0c      	ldr	r3, [pc, #48]	@ (800080c <HAL_ADC_MspInit+0xdc>)
 80007dc:	2200      	movs	r2, #0
 80007de:	621a      	str	r2, [r3, #32]
    if (HAL_DMA_Init(&hdma_adc1) != HAL_OK)
 80007e0:	4b0a      	ldr	r3, [pc, #40]	@ (800080c <HAL_ADC_MspInit+0xdc>)
 80007e2:	0018      	movs	r0, r3
 80007e4:	f001 fdc2 	bl	800236c <HAL_DMA_Init>
 80007e8:	1e03      	subs	r3, r0, #0
 80007ea:	d001      	beq.n	80007f0 <HAL_ADC_MspInit+0xc0>
    {
      Error_Handler();
 80007ec:	f000 f92c 	bl	8000a48 <Error_Handler>
    }

    __HAL_LINKDMA(adcHandle,DMA_Handle,hdma_adc1);
 80007f0:	687b      	ldr	r3, [r7, #4]
 80007f2:	4a06      	ldr	r2, [pc, #24]	@ (800080c <HAL_ADC_MspInit+0xdc>)
 80007f4:	651a      	str	r2, [r3, #80]	@ 0x50
 80007f6:	4b05      	ldr	r3, [pc, #20]	@ (800080c <HAL_ADC_MspInit+0xdc>)
 80007f8:	687a      	ldr	r2, [r7, #4]
 80007fa:	629a      	str	r2, [r3, #40]	@ 0x28

  /* USER CODE BEGIN ADC1_MspInit 1 */

  /* USER CODE END ADC1_MspInit 1 */
  }
}
 80007fc:	46c0      	nop			@ (mov r8, r8)
 80007fe:	46bd      	mov	sp, r7
 8000800:	b00b      	add	sp, #44	@ 0x2c
 8000802:	bd90      	pop	{r4, r7, pc}
 8000804:	40012400 	.word	0x40012400
 8000808:	40021000 	.word	0x40021000
 800080c:	200000e8 	.word	0x200000e8
 8000810:	40020008 	.word	0x40020008

08000814 <MX_DMA_Init>:

/**
  * Enable DMA controller clock
  */
void MX_DMA_Init(void)
{
 8000814:	b580      	push	{r7, lr}
 8000816:	b082      	sub	sp, #8
 8000818:	af00      	add	r7, sp, #0

  /* DMA controller clock enable */
  __HAL_RCC_DMA1_CLK_ENABLE();
 800081a:	4b0c      	ldr	r3, [pc, #48]	@ (800084c <MX_DMA_Init+0x38>)
 800081c:	6b9a      	ldr	r2, [r3, #56]	@ 0x38
 800081e:	4b0b      	ldr	r3, [pc, #44]	@ (800084c <MX_DMA_Init+0x38>)
 8000820:	2101      	movs	r1, #1
 8000822:	430a      	orrs	r2, r1
 8000824:	639a      	str	r2, [r3, #56]	@ 0x38
 8000826:	4b09      	ldr	r3, [pc, #36]	@ (800084c <MX_DMA_Init+0x38>)
 8000828:	6b9b      	ldr	r3, [r3, #56]	@ 0x38
 800082a:	2201      	movs	r2, #1
 800082c:	4013      	ands	r3, r2
 800082e:	607b      	str	r3, [r7, #4]
 8000830:	687b      	ldr	r3, [r7, #4]

  /* DMA interrupt init */
  /* DMA1_Channel1_IRQn interrupt configuration */
  HAL_NVIC_SetPriority(DMA1_Channel1_IRQn, 0, 0);
 8000832:	2200      	movs	r2, #0
 8000834:	2100      	movs	r1, #0
 8000836:	2009      	movs	r0, #9
 8000838:	f001 fd66 	bl	8002308 <HAL_NVIC_SetPriority>
  HAL_NVIC_EnableIRQ(DMA1_Channel1_IRQn);
 800083c:	2009      	movs	r0, #9
 800083e:	f001 fd78 	bl	8002332 <HAL_NVIC_EnableIRQ>

}
 8000842:	46c0      	nop			@ (mov r8, r8)
 8000844:	46bd      	mov	sp, r7
 8000846:	b002      	add	sp, #8
 8000848:	bd80      	pop	{r7, pc}
 800084a:	46c0      	nop			@ (mov r8, r8)
 800084c:	40021000 	.word	0x40021000

08000850 <MX_GPIO_Init>:
/* USER CODE END 1 */

/** Configure pins
*/
void MX_GPIO_Init(void)
{
 8000850:	b580      	push	{r7, lr}
 8000852:	b086      	sub	sp, #24
 8000854:	af00      	add	r7, sp, #0

  GPIO_InitTypeDef GPIO_InitStruct = {0};
 8000856:	1d3b      	adds	r3, r7, #4
 8000858:	0018      	movs	r0, r3
 800085a:	2314      	movs	r3, #20
 800085c:	001a      	movs	r2, r3
 800085e:	2100      	movs	r1, #0
 8000860:	f004 f8a8 	bl	80049b4 <memset>

  /* GPIO Ports Clock Enable */
  __HAL_RCC_GPIOA_CLK_ENABLE();
 8000864:	4b14      	ldr	r3, [pc, #80]	@ (80008b8 <MX_GPIO_Init+0x68>)
 8000866:	6b5a      	ldr	r2, [r3, #52]	@ 0x34
 8000868:	4b13      	ldr	r3, [pc, #76]	@ (80008b8 <MX_GPIO_Init+0x68>)
 800086a:	2101      	movs	r1, #1
 800086c:	430a      	orrs	r2, r1
 800086e:	635a      	str	r2, [r3, #52]	@ 0x34
 8000870:	4b11      	ldr	r3, [pc, #68]	@ (80008b8 <MX_GPIO_Init+0x68>)
 8000872:	6b5b      	ldr	r3, [r3, #52]	@ 0x34
 8000874:	2201      	movs	r2, #1
 8000876:	4013      	ands	r3, r2
 8000878:	603b      	str	r3, [r7, #0]
 800087a:	683b      	ldr	r3, [r7, #0]

  /*Configure GPIO pin Output Level */
  HAL_GPIO_WritePin(GREEN_LED_GPIO_Port, GREEN_LED_Pin, GPIO_PIN_RESET);
 800087c:	23a0      	movs	r3, #160	@ 0xa0
 800087e:	05db      	lsls	r3, r3, #23
 8000880:	2200      	movs	r2, #0
 8000882:	2120      	movs	r1, #32
 8000884:	0018      	movs	r0, r3
 8000886:	f002 f989 	bl	8002b9c <HAL_GPIO_WritePin>

  /*Configure GPIO pin : GREEN_LED_Pin */
  GPIO_InitStruct.Pin = GREEN_LED_Pin;
 800088a:	1d3b      	adds	r3, r7, #4
 800088c:	2220      	movs	r2, #32
 800088e:	601a      	str	r2, [r3, #0]
  GPIO_InitStruct.Mode = GPIO_MODE_OUTPUT_PP;
 8000890:	1d3b      	adds	r3, r7, #4
 8000892:	2201      	movs	r2, #1
 8000894:	605a      	str	r2, [r3, #4]
  GPIO_InitStruct.Pull = GPIO_NOPULL;
 8000896:	1d3b      	adds	r3, r7, #4
 8000898:	2200      	movs	r2, #0
 800089a:	609a      	str	r2, [r3, #8]
  GPIO_InitStruct.Speed = GPIO_SPEED_FREQ_LOW;
 800089c:	1d3b      	adds	r3, r7, #4
 800089e:	2200      	movs	r2, #0
 80008a0:	60da      	str	r2, [r3, #12]
  HAL_GPIO_Init(GREEN_LED_GPIO_Port, &GPIO_InitStruct);
 80008a2:	1d3a      	adds	r2, r7, #4
 80008a4:	23a0      	movs	r3, #160	@ 0xa0
 80008a6:	05db      	lsls	r3, r3, #23
 80008a8:	0011      	movs	r1, r2
 80008aa:	0018      	movs	r0, r3
 80008ac:	f002 f812 	bl	80028d4 <HAL_GPIO_Init>

}
 80008b0:	46c0      	nop			@ (mov r8, r8)
 80008b2:	46bd      	mov	sp, r7
 80008b4:	b006      	add	sp, #24
 80008b6:	bd80      	pop	{r7, pc}
 80008b8:	40021000 	.word	0x40021000

080008bc <__io_putchar>:
/* USER CODE END PD */

/* Private macro -------------------------------------------------------------*/
/* USER CODE BEGIN PM */
int __io_putchar(int ch)
{
 80008bc:	b580      	push	{r7, lr}
 80008be:	b082      	sub	sp, #8
 80008c0:	af00      	add	r7, sp, #0
 80008c2:	6078      	str	r0, [r7, #4]
	HAL_UART_Transmit(&huart2, (uint8_t*)&ch, 1, 10);
 80008c4:	1d39      	adds	r1, r7, #4
 80008c6:	4805      	ldr	r0, [pc, #20]	@ (80008dc <__io_putchar+0x20>)
 80008c8:	230a      	movs	r3, #10
 80008ca:	2201      	movs	r2, #1
 80008cc:	f003 f8a2 	bl	8003a14 <HAL_UART_Transmit>
	return ch;
 80008d0:	687b      	ldr	r3, [r7, #4]
}
 80008d2:	0018      	movs	r0, r3
 80008d4:	46bd      	mov	sp, r7
 80008d6:	b002      	add	sp, #8
 80008d8:	bd80      	pop	{r7, pc}
 80008da:	46c0      	nop			@ (mov r8, r8)
 80008dc:	2000014c 	.word	0x2000014c

080008e0 <main>:
/**
  * @brief  The application entry point.
  * @retval int
  */
int main(void)
{
 80008e0:	b580      	push	{r7, lr}
 80008e2:	af00      	add	r7, sp, #0
  /* USER CODE END 1 */

  /* MCU Configuration--------------------------------------------------------*/

  /* Reset of all peripherals, Initializes the Flash interface and the Systick. */
  HAL_Init();
 80008e4:	f000 fa78 	bl	8000dd8 <HAL_Init>
  /* USER CODE BEGIN Init */

  /* USER CODE END Init */

  /* Configure the system clock */
  SystemClock_Config();
 80008e8:	f000 f844 	bl	8000974 <SystemClock_Config>
  /* USER CODE BEGIN SysInit */

  /* USER CODE END SysInit */

  /* Initialize all configured peripherals */
  MX_GPIO_Init();
 80008ec:	f7ff ffb0 	bl	8000850 <MX_GPIO_Init>
  MX_DMA_Init();
 80008f0:	f7ff ff90 	bl	8000814 <MX_DMA_Init>
  MX_ADC1_Init();
 80008f4:	f7ff fe9c 	bl	8000630 <MX_ADC1_Init>
  MX_USART2_UART_Init();
 80008f8:	f000 f992 	bl	8000c20 <MX_USART2_UART_Init>
  /* USER CODE BEGIN 2 */
  HAL_ADCEx_Calibration_Start(&hadc1);
 80008fc:	4b19      	ldr	r3, [pc, #100]	@ (8000964 <main+0x84>)
 80008fe:	0018      	movs	r0, r3
 8000900:	f001 fb5a 	bl	8001fb8 <HAL_ADCEx_Calibration_Start>
  HAL_ADC_Start_DMA(&hadc1,(uint32_t *) u16ADCBuff, 2);
 8000904:	4918      	ldr	r1, [pc, #96]	@ (8000968 <main+0x88>)
 8000906:	4b17      	ldr	r3, [pc, #92]	@ (8000964 <main+0x84>)
 8000908:	2202      	movs	r2, #2
 800090a:	0018      	movs	r0, r3
 800090c:	f000 fe20 	bl	8001550 <HAL_ADC_Start_DMA>
  while (1)
  {
    /* USER CODE END WHILE */

    /* USER CODE BEGIN 3 */
	  printf("Channel 0: %u, Temperature: %u\r\n",u16ADCBuff[0], u16ADCBuff[1] );
 8000910:	4b15      	ldr	r3, [pc, #84]	@ (8000968 <main+0x88>)
 8000912:	881b      	ldrh	r3, [r3, #0]
 8000914:	0019      	movs	r1, r3
 8000916:	4b14      	ldr	r3, [pc, #80]	@ (8000968 <main+0x88>)
 8000918:	885b      	ldrh	r3, [r3, #2]
 800091a:	001a      	movs	r2, r3
 800091c:	4b13      	ldr	r3, [pc, #76]	@ (800096c <main+0x8c>)
 800091e:	0018      	movs	r0, r3
 8000920:	f003 ffec 	bl	80048fc <iprintf>
	  HAL_ADC_Start_DMA(&hadc1, (uint32_t *)u16ADCBuff, 2);
 8000924:	4910      	ldr	r1, [pc, #64]	@ (8000968 <main+0x88>)
 8000926:	4b0f      	ldr	r3, [pc, #60]	@ (8000964 <main+0x84>)
 8000928:	2202      	movs	r2, #2
 800092a:	0018      	movs	r0, r3
 800092c:	f000 fe10 	bl	8001550 <HAL_ADC_Start_DMA>
	  HAL_Delay(500);
 8000930:	23fa      	movs	r3, #250	@ 0xfa
 8000932:	005b      	lsls	r3, r3, #1
 8000934:	0018      	movs	r0, r3
 8000936:	f000 fad5 	bl	8000ee4 <HAL_Delay>
	  if(u16ADCBuff[0] > 3000)
 800093a:	4b0b      	ldr	r3, [pc, #44]	@ (8000968 <main+0x88>)
 800093c:	881b      	ldrh	r3, [r3, #0]
 800093e:	4a0c      	ldr	r2, [pc, #48]	@ (8000970 <main+0x90>)
 8000940:	4293      	cmp	r3, r2
 8000942:	d907      	bls.n	8000954 <main+0x74>
	      HAL_GPIO_WritePin(GPIOA, GPIO_PIN_5, GPIO_PIN_SET); // LED ON
 8000944:	23a0      	movs	r3, #160	@ 0xa0
 8000946:	05db      	lsls	r3, r3, #23
 8000948:	2201      	movs	r2, #1
 800094a:	2120      	movs	r1, #32
 800094c:	0018      	movs	r0, r3
 800094e:	f002 f925 	bl	8002b9c <HAL_GPIO_WritePin>
 8000952:	e7dd      	b.n	8000910 <main+0x30>
	  else
	      HAL_GPIO_WritePin(GPIOA, GPIO_PIN_5, GPIO_PIN_RESET); // LED OFF
 8000954:	23a0      	movs	r3, #160	@ 0xa0
 8000956:	05db      	lsls	r3, r3, #23
 8000958:	2200      	movs	r2, #0
 800095a:	2120      	movs	r1, #32
 800095c:	0018      	movs	r0, r3
 800095e:	f002 f91d 	bl	8002b9c <HAL_GPIO_WritePin>
	  printf("Channel 0: %u, Temperature: %u\r\n",u16ADCBuff[0], u16ADCBuff[1] );
 8000962:	e7d5      	b.n	8000910 <main+0x30>
 8000964:	20000084 	.word	0x20000084
 8000968:	20000144 	.word	0x20000144
 800096c:	0800564c 	.word	0x0800564c
 8000970:	00000bb8 	.word	0x00000bb8

08000974 <SystemClock_Config>:
/**
  * @brief System Clock Configuration
  * @retval None
  */
void SystemClock_Config(void)
{
 8000974:	b590      	push	{r4, r7, lr}
 8000976:	b093      	sub	sp, #76	@ 0x4c
 8000978:	af00      	add	r7, sp, #0
  RCC_OscInitTypeDef RCC_OscInitStruct = {0};
 800097a:	2410      	movs	r4, #16
 800097c:	193b      	adds	r3, r7, r4
 800097e:	0018      	movs	r0, r3
 8000980:	2338      	movs	r3, #56	@ 0x38
 8000982:	001a      	movs	r2, r3
 8000984:	2100      	movs	r1, #0
 8000986:	f004 f815 	bl	80049b4 <memset>
  RCC_ClkInitTypeDef RCC_ClkInitStruct = {0};
 800098a:	003b      	movs	r3, r7
 800098c:	0018      	movs	r0, r3
 800098e:	2310      	movs	r3, #16
 8000990:	001a      	movs	r2, r3
 8000992:	2100      	movs	r1, #0
 8000994:	f004 f80e 	bl	80049b4 <memset>

  /** Configure the main internal regulator output voltage
  */
  HAL_PWREx_ControlVoltageScaling(PWR_REGULATOR_VOLTAGE_SCALE1);
 8000998:	2380      	movs	r3, #128	@ 0x80
 800099a:	009b      	lsls	r3, r3, #2
 800099c:	0018      	movs	r0, r3
 800099e:	f002 f91b 	bl	8002bd8 <HAL_PWREx_ControlVoltageScaling>

  /** Initializes the RCC Oscillators according to the specified parameters
  * in the RCC_OscInitTypeDef structure.
  */
  RCC_OscInitStruct.OscillatorType = RCC_OSCILLATORTYPE_HSI;
 80009a2:	193b      	adds	r3, r7, r4
 80009a4:	2202      	movs	r2, #2
 80009a6:	601a      	str	r2, [r3, #0]
  RCC_OscInitStruct.HSIState = RCC_HSI_ON;
 80009a8:	193b      	adds	r3, r7, r4
 80009aa:	2280      	movs	r2, #128	@ 0x80
 80009ac:	0052      	lsls	r2, r2, #1
 80009ae:	60da      	str	r2, [r3, #12]
  RCC_OscInitStruct.HSIDiv = RCC_HSI_DIV1;
 80009b0:	0021      	movs	r1, r4
 80009b2:	187b      	adds	r3, r7, r1
 80009b4:	2200      	movs	r2, #0
 80009b6:	611a      	str	r2, [r3, #16]
  RCC_OscInitStruct.HSICalibrationValue = RCC_HSICALIBRATION_DEFAULT;
 80009b8:	187b      	adds	r3, r7, r1
 80009ba:	2240      	movs	r2, #64	@ 0x40
 80009bc:	615a      	str	r2, [r3, #20]
  RCC_OscInitStruct.PLL.PLLState = RCC_PLL_ON;
 80009be:	187b      	adds	r3, r7, r1
 80009c0:	2202      	movs	r2, #2
 80009c2:	61da      	str	r2, [r3, #28]
  RCC_OscInitStruct.PLL.PLLSource = RCC_PLLSOURCE_HSI;
 80009c4:	187b      	adds	r3, r7, r1
 80009c6:	2202      	movs	r2, #2
 80009c8:	621a      	str	r2, [r3, #32]
  RCC_OscInitStruct.PLL.PLLM = RCC_PLLM_DIV1;
 80009ca:	187b      	adds	r3, r7, r1
 80009cc:	2200      	movs	r2, #0
 80009ce:	625a      	str	r2, [r3, #36]	@ 0x24
  RCC_OscInitStruct.PLL.PLLN = 8;
 80009d0:	187b      	adds	r3, r7, r1
 80009d2:	2208      	movs	r2, #8
 80009d4:	629a      	str	r2, [r3, #40]	@ 0x28
  RCC_OscInitStruct.PLL.PLLP = RCC_PLLP_DIV2;
 80009d6:	187b      	adds	r3, r7, r1
 80009d8:	2280      	movs	r2, #128	@ 0x80
 80009da:	0292      	lsls	r2, r2, #10
 80009dc:	62da      	str	r2, [r3, #44]	@ 0x2c
  RCC_OscInitStruct.PLL.PLLQ = RCC_PLLQ_DIV2;
 80009de:	187b      	adds	r3, r7, r1
 80009e0:	2280      	movs	r2, #128	@ 0x80
 80009e2:	0492      	lsls	r2, r2, #18
 80009e4:	631a      	str	r2, [r3, #48]	@ 0x30
  RCC_OscInitStruct.PLL.PLLR = RCC_PLLR_DIV2;
 80009e6:	187b      	adds	r3, r7, r1
 80009e8:	2280      	movs	r2, #128	@ 0x80
 80009ea:	0592      	lsls	r2, r2, #22
 80009ec:	635a      	str	r2, [r3, #52]	@ 0x34
  if (HAL_RCC_OscConfig(&RCC_OscInitStruct) != HAL_OK)
 80009ee:	187b      	adds	r3, r7, r1
 80009f0:	0018      	movs	r0, r3
 80009f2:	f002 f93d 	bl	8002c70 <HAL_RCC_OscConfig>
 80009f6:	1e03      	subs	r3, r0, #0
 80009f8:	d001      	beq.n	80009fe <SystemClock_Config+0x8a>
  {
    Error_Handler();
 80009fa:	f000 f825 	bl	8000a48 <Error_Handler>
  }

  /** Initializes the CPU, AHB and APB buses clocks
  */
  RCC_ClkInitStruct.ClockType = RCC_CLOCKTYPE_HCLK|RCC_CLOCKTYPE_SYSCLK
 80009fe:	003b      	movs	r3, r7
 8000a00:	2207      	movs	r2, #7
 8000a02:	601a      	str	r2, [r3, #0]
                              |RCC_CLOCKTYPE_PCLK1;
  RCC_ClkInitStruct.SYSCLKSource = RCC_SYSCLKSOURCE_PLLCLK;
 8000a04:	003b      	movs	r3, r7
 8000a06:	2202      	movs	r2, #2
 8000a08:	605a      	str	r2, [r3, #4]
  RCC_ClkInitStruct.AHBCLKDivider = RCC_SYSCLK_DIV1;
 8000a0a:	003b      	movs	r3, r7
 8000a0c:	2200      	movs	r2, #0
 8000a0e:	609a      	str	r2, [r3, #8]
  RCC_ClkInitStruct.APB1CLKDivider = RCC_HCLK_DIV1;
 8000a10:	003b      	movs	r3, r7
 8000a12:	2200      	movs	r2, #0
 8000a14:	60da      	str	r2, [r3, #12]

  if (HAL_RCC_ClockConfig(&RCC_ClkInitStruct, FLASH_LATENCY_2) != HAL_OK)
 8000a16:	003b      	movs	r3, r7
 8000a18:	2102      	movs	r1, #2
 8000a1a:	0018      	movs	r0, r3
 8000a1c:	f002 fc42 	bl	80032a4 <HAL_RCC_ClockConfig>
 8000a20:	1e03      	subs	r3, r0, #0
 8000a22:	d001      	beq.n	8000a28 <SystemClock_Config+0xb4>
  {
    Error_Handler();
 8000a24:	f000 f810 	bl	8000a48 <Error_Handler>
  }
}
 8000a28:	46c0      	nop			@ (mov r8, r8)
 8000a2a:	46bd      	mov	sp, r7
 8000a2c:	b013      	add	sp, #76	@ 0x4c
 8000a2e:	bd90      	pop	{r4, r7, pc}

08000a30 <HAL_ADC_ConvCpltCallback>:

/* USER CODE BEGIN 4 */
void HAL_ADC_ConvCpltCallback(ADC_HandleTypeDef *hadc)
{
 8000a30:	b580      	push	{r7, lr}
 8000a32:	b082      	sub	sp, #8
 8000a34:	af00      	add	r7, sp, #0
 8000a36:	6078      	str	r0, [r7, #4]
	HAL_ADC_Stop_DMA(hadc);
 8000a38:	687b      	ldr	r3, [r7, #4]
 8000a3a:	0018      	movs	r0, r3
 8000a3c:	f000 fe16 	bl	800166c <HAL_ADC_Stop_DMA>
}
 8000a40:	46c0      	nop			@ (mov r8, r8)
 8000a42:	46bd      	mov	sp, r7
 8000a44:	b002      	add	sp, #8
 8000a46:	bd80      	pop	{r7, pc}

08000a48 <Error_Handler>:
/**
  * @brief  This function is executed in case of error occurrence.
  * @retval None
  */
void Error_Handler(void)
{
 8000a48:	b580      	push	{r7, lr}
 8000a4a:	af00      	add	r7, sp, #0
  \details Disables IRQ interrupts by setting the I-bit in the CPSR.
           Can only be executed in Privileged modes.
 */
__STATIC_FORCEINLINE void __disable_irq(void)
{
  __ASM volatile ("cpsid i" : : : "memory");
 8000a4c:	b672      	cpsid	i
}
 8000a4e:	46c0      	nop			@ (mov r8, r8)
  /* USER CODE BEGIN Error_Handler_Debug */
  /* User can add his own implementation to report the HAL error return state */
  __disable_irq();
  while (1)
 8000a50:	46c0      	nop			@ (mov r8, r8)
 8000a52:	e7fd      	b.n	8000a50 <Error_Handler+0x8>

08000a54 <HAL_MspInit>:
/* USER CODE END 0 */
/**
  * Initializes the Global MSP.
  */
void HAL_MspInit(void)
{
 8000a54:	b580      	push	{r7, lr}
 8000a56:	b082      	sub	sp, #8
 8000a58:	af00      	add	r7, sp, #0

  /* USER CODE BEGIN MspInit 0 */

  /* USER CODE END MspInit 0 */

  __HAL_RCC_SYSCFG_CLK_ENABLE();
 8000a5a:	4b0f      	ldr	r3, [pc, #60]	@ (8000a98 <HAL_MspInit+0x44>)
 8000a5c:	6c1a      	ldr	r2, [r3, #64]	@ 0x40
 8000a5e:	4b0e      	ldr	r3, [pc, #56]	@ (8000a98 <HAL_MspInit+0x44>)
 8000a60:	2101      	movs	r1, #1
 8000a62:	430a      	orrs	r2, r1
 8000a64:	641a      	str	r2, [r3, #64]	@ 0x40
 8000a66:	4b0c      	ldr	r3, [pc, #48]	@ (8000a98 <HAL_MspInit+0x44>)
 8000a68:	6c1b      	ldr	r3, [r3, #64]	@ 0x40
 8000a6a:	2201      	movs	r2, #1
 8000a6c:	4013      	ands	r3, r2
 8000a6e:	607b      	str	r3, [r7, #4]
 8000a70:	687b      	ldr	r3, [r7, #4]
  __HAL_RCC_PWR_CLK_ENABLE();
 8000a72:	4b09      	ldr	r3, [pc, #36]	@ (8000a98 <HAL_MspInit+0x44>)
 8000a74:	6bda      	ldr	r2, [r3, #60]	@ 0x3c
 8000a76:	4b08      	ldr	r3, [pc, #32]	@ (8000a98 <HAL_MspInit+0x44>)
 8000a78:	2180      	movs	r1, #128	@ 0x80
 8000a7a:	0549      	lsls	r1, r1, #21
 8000a7c:	430a      	orrs	r2, r1
 8000a7e:	63da      	str	r2, [r3, #60]	@ 0x3c
 8000a80:	4b05      	ldr	r3, [pc, #20]	@ (8000a98 <HAL_MspInit+0x44>)
 8000a82:	6bda      	ldr	r2, [r3, #60]	@ 0x3c
 8000a84:	2380      	movs	r3, #128	@ 0x80
 8000a86:	055b      	lsls	r3, r3, #21
 8000a88:	4013      	ands	r3, r2
 8000a8a:	603b      	str	r3, [r7, #0]
 8000a8c:	683b      	ldr	r3, [r7, #0]
  /* System interrupt init*/

  /* USER CODE BEGIN MspInit 1 */

  /* USER CODE END MspInit 1 */
}
 8000a8e:	46c0      	nop			@ (mov r8, r8)
 8000a90:	46bd      	mov	sp, r7
 8000a92:	b002      	add	sp, #8
 8000a94:	bd80      	pop	{r7, pc}
 8000a96:	46c0      	nop			@ (mov r8, r8)
 8000a98:	40021000 	.word	0x40021000

08000a9c <NMI_Handler>:
/******************************************************************************/
/**
  * @brief This function handles Non maskable interrupt.
  */
void NMI_Handler(void)
{
 8000a9c:	b580      	push	{r7, lr}
 8000a9e:	af00      	add	r7, sp, #0
  /* USER CODE BEGIN NonMaskableInt_IRQn 0 */

  /* USER CODE END NonMaskableInt_IRQn 0 */
  /* USER CODE BEGIN NonMaskableInt_IRQn 1 */
   while (1)
 8000aa0:	46c0      	nop			@ (mov r8, r8)
 8000aa2:	e7fd      	b.n	8000aa0 <NMI_Handler+0x4>

08000aa4 <HardFault_Handler>:

/**
  * @brief This function handles Hard fault interrupt.
  */
void HardFault_Handler(void)
{
 8000aa4:	b580      	push	{r7, lr}
 8000aa6:	af00      	add	r7, sp, #0
  /* USER CODE BEGIN HardFault_IRQn 0 */

  /* USER CODE END HardFault_IRQn 0 */
  while (1)
 8000aa8:	46c0      	nop			@ (mov r8, r8)
 8000aaa:	e7fd      	b.n	8000aa8 <HardFault_Handler+0x4>

08000aac <SVC_Handler>:

/**
  * @brief This function handles System service call via SWI instruction.
  */
void SVC_Handler(void)
{
 8000aac:	b580      	push	{r7, lr}
 8000aae:	af00      	add	r7, sp, #0

  /* USER CODE END SVC_IRQn 0 */
  /* USER CODE BEGIN SVC_IRQn 1 */

  /* USER CODE END SVC_IRQn 1 */
}
 8000ab0:	46c0      	nop			@ (mov r8, r8)
 8000ab2:	46bd      	mov	sp, r7
 8000ab4:	bd80      	pop	{r7, pc}

08000ab6 <PendSV_Handler>:

/**
  * @brief This function handles Pendable request for system service.
  */
void PendSV_Handler(void)
{
 8000ab6:	b580      	push	{r7, lr}
 8000ab8:	af00      	add	r7, sp, #0

  /* USER CODE END PendSV_IRQn 0 */
  /* USER CODE BEGIN PendSV_IRQn 1 */

  /* USER CODE END PendSV_IRQn 1 */
}
 8000aba:	46c0      	nop			@ (mov r8, r8)
 8000abc:	46bd      	mov	sp, r7
 8000abe:	bd80      	pop	{r7, pc}

08000ac0 <SysTick_Handler>:

/**
  * @brief This function handles System tick timer.
  */
void SysTick_Handler(void)
{
 8000ac0:	b580      	push	{r7, lr}
 8000ac2:	af00      	add	r7, sp, #0
  /* USER CODE BEGIN SysTick_IRQn 0 */

  /* USER CODE END SysTick_IRQn 0 */
  HAL_IncTick();
 8000ac4:	f000 f9f2 	bl	8000eac <HAL_IncTick>
  /* USER CODE BEGIN SysTick_IRQn 1 */

  /* USER CODE END SysTick_IRQn 1 */
}
 8000ac8:	46c0      	nop			@ (mov r8, r8)
 8000aca:	46bd      	mov	sp, r7
 8000acc:	bd80      	pop	{r7, pc}
	...

08000ad0 <DMA1_Channel1_IRQHandler>:

/**
  * @brief This function handles DMA1 channel 1 interrupt.
  */
void DMA1_Channel1_IRQHandler(void)
{
 8000ad0:	b580      	push	{r7, lr}
 8000ad2:	af00      	add	r7, sp, #0
  /* USER CODE BEGIN DMA1_Channel1_IRQn 0 */

  /* USER CODE END DMA1_Channel1_IRQn 0 */
  HAL_DMA_IRQHandler(&hdma_adc1);
 8000ad4:	4b03      	ldr	r3, [pc, #12]	@ (8000ae4 <DMA1_Channel1_IRQHandler+0x14>)
 8000ad6:	0018      	movs	r0, r3
 8000ad8:	f001 fdba 	bl	8002650 <HAL_DMA_IRQHandler>
  /* USER CODE BEGIN DMA1_Channel1_IRQn 1 */

  /* USER CODE END DMA1_Channel1_IRQn 1 */
}
 8000adc:	46c0      	nop			@ (mov r8, r8)
 8000ade:	46bd      	mov	sp, r7
 8000ae0:	bd80      	pop	{r7, pc}
 8000ae2:	46c0      	nop			@ (mov r8, r8)
 8000ae4:	200000e8 	.word	0x200000e8

08000ae8 <_read>:
  _kill(status, -1);
  while (1) {}    /* Make sure we hang here */
}

__attribute__((weak)) int _read(int file, char *ptr, int len)
{
 8000ae8:	b580      	push	{r7, lr}
 8000aea:	b086      	sub	sp, #24
 8000aec:	af00      	add	r7, sp, #0
 8000aee:	60f8      	str	r0, [r7, #12]
 8000af0:	60b9      	str	r1, [r7, #8]
 8000af2:	607a      	str	r2, [r7, #4]
  (void)file;
  int DataIdx;

  for (DataIdx = 0; DataIdx < len; DataIdx++)
 8000af4:	2300      	movs	r3, #0
 8000af6:	617b      	str	r3, [r7, #20]
 8000af8:	e00a      	b.n	8000b10 <_read+0x28>
  {
    *ptr++ = __io_getchar();
 8000afa:	e000      	b.n	8000afe <_read+0x16>
 8000afc:	bf00      	nop
 8000afe:	0001      	movs	r1, r0
 8000b00:	68bb      	ldr	r3, [r7, #8]
 8000b02:	1c5a      	adds	r2, r3, #1
 8000b04:	60ba      	str	r2, [r7, #8]
 8000b06:	b2ca      	uxtb	r2, r1
 8000b08:	701a      	strb	r2, [r3, #0]
  for (DataIdx = 0; DataIdx < len; DataIdx++)
 8000b0a:	697b      	ldr	r3, [r7, #20]
 8000b0c:	3301      	adds	r3, #1
 8000b0e:	617b      	str	r3, [r7, #20]
 8000b10:	697a      	ldr	r2, [r7, #20]
 8000b12:	687b      	ldr	r3, [r7, #4]
 8000b14:	429a      	cmp	r2, r3
 8000b16:	dbf0      	blt.n	8000afa <_read+0x12>
  }

  return len;
 8000b18:	687b      	ldr	r3, [r7, #4]
}
 8000b1a:	0018      	movs	r0, r3
 8000b1c:	46bd      	mov	sp, r7
 8000b1e:	b006      	add	sp, #24
 8000b20:	bd80      	pop	{r7, pc}

08000b22 <_write>:

__attribute__((weak)) int _write(int file, char *ptr, int len)
{
 8000b22:	b580      	push	{r7, lr}
 8000b24:	b086      	sub	sp, #24
 8000b26:	af00      	add	r7, sp, #0
 8000b28:	60f8      	str	r0, [r7, #12]
 8000b2a:	60b9      	str	r1, [r7, #8]
 8000b2c:	607a      	str	r2, [r7, #4]
  (void)file;
  int DataIdx;

  for (DataIdx = 0; DataIdx < len; DataIdx++)
 8000b2e:	2300      	movs	r3, #0
 8000b30:	617b      	str	r3, [r7, #20]
 8000b32:	e009      	b.n	8000b48 <_write+0x26>
  {
    __io_putchar(*ptr++);
 8000b34:	68bb      	ldr	r3, [r7, #8]
 8000b36:	1c5a      	adds	r2, r3, #1
 8000b38:	60ba      	str	r2, [r7, #8]
 8000b3a:	781b      	ldrb	r3, [r3, #0]
 8000b3c:	0018      	movs	r0, r3
 8000b3e:	f7ff febd 	bl	80008bc <__io_putchar>
  for (DataIdx = 0; DataIdx < len; DataIdx++)
 8000b42:	697b      	ldr	r3, [r7, #20]
 8000b44:	3301      	adds	r3, #1
 8000b46:	617b      	str	r3, [r7, #20]
 8000b48:	697a      	ldr	r2, [r7, #20]
 8000b4a:	687b      	ldr	r3, [r7, #4]
 8000b4c:	429a      	cmp	r2, r3
 8000b4e:	dbf1      	blt.n	8000b34 <_write+0x12>
  }
  return len;
 8000b50:	687b      	ldr	r3, [r7, #4]
}
 8000b52:	0018      	movs	r0, r3
 8000b54:	46bd      	mov	sp, r7
 8000b56:	b006      	add	sp, #24
 8000b58:	bd80      	pop	{r7, pc}

08000b5a <_close>:

int _close(int file)
{
 8000b5a:	b580      	push	{r7, lr}
 8000b5c:	b082      	sub	sp, #8
 8000b5e:	af00      	add	r7, sp, #0
 8000b60:	6078      	str	r0, [r7, #4]
  (void)file;
  return -1;
 8000b62:	2301      	movs	r3, #1
 8000b64:	425b      	negs	r3, r3
}
 8000b66:	0018      	movs	r0, r3
 8000b68:	46bd      	mov	sp, r7
 8000b6a:	b002      	add	sp, #8
 8000b6c:	bd80      	pop	{r7, pc}

08000b6e <_fstat>:


int _fstat(int file, struct stat *st)
{
 8000b6e:	b580      	push	{r7, lr}
 8000b70:	b082      	sub	sp, #8
 8000b72:	af00      	add	r7, sp, #0
 8000b74:	6078      	str	r0, [r7, #4]
 8000b76:	6039      	str	r1, [r7, #0]
  (void)file;
  st->st_mode = S_IFCHR;
 8000b78:	683b      	ldr	r3, [r7, #0]
 8000b7a:	2280      	movs	r2, #128	@ 0x80
 8000b7c:	0192      	lsls	r2, r2, #6
 8000b7e:	605a      	str	r2, [r3, #4]
  return 0;
 8000b80:	2300      	movs	r3, #0
}
 8000b82:	0018      	movs	r0, r3
 8000b84:	46bd      	mov	sp, r7
 8000b86:	b002      	add	sp, #8
 8000b88:	bd80      	pop	{r7, pc}

08000b8a <_isatty>:

int _isatty(int file)
{
 8000b8a:	b580      	push	{r7, lr}
 8000b8c:	b082      	sub	sp, #8
 8000b8e:	af00      	add	r7, sp, #0
 8000b90:	6078      	str	r0, [r7, #4]
  (void)file;
  return 1;
 8000b92:	2301      	movs	r3, #1
}
 8000b94:	0018      	movs	r0, r3
 8000b96:	46bd      	mov	sp, r7
 8000b98:	b002      	add	sp, #8
 8000b9a:	bd80      	pop	{r7, pc}

08000b9c <_lseek>:

int _lseek(int file, int ptr, int dir)
{
 8000b9c:	b580      	push	{r7, lr}
 8000b9e:	b084      	sub	sp, #16
 8000ba0:	af00      	add	r7, sp, #0
 8000ba2:	60f8      	str	r0, [r7, #12]
 8000ba4:	60b9      	str	r1, [r7, #8]
 8000ba6:	607a      	str	r2, [r7, #4]
  (void)file;
  (void)ptr;
  (void)dir;
  return 0;
 8000ba8:	2300      	movs	r3, #0
}
 8000baa:	0018      	movs	r0, r3
 8000bac:	46bd      	mov	sp, r7
 8000bae:	b004      	add	sp, #16
 8000bb0:	bd80      	pop	{r7, pc}
	...

08000bb4 <_sbrk>:
 *
 * @param incr Memory size
 * @return Pointer to allocated memory
 */
void *_sbrk(ptrdiff_t incr)
{
 8000bb4:	b580      	push	{r7, lr}
 8000bb6:	b086      	sub	sp, #24
 8000bb8:	af00      	add	r7, sp, #0
 8000bba:	6078      	str	r0, [r7, #4]
  extern uint8_t _end; /* Symbol defined in the linker script */
  extern uint8_t _estack; /* Symbol defined in the linker script */
  extern uint32_t _Min_Stack_Size; /* Symbol defined in the linker script */
  const uint32_t stack_limit = (uint32_t)&_estack - (uint32_t)&_Min_Stack_Size;
 8000bbc:	4a14      	ldr	r2, [pc, #80]	@ (8000c10 <_sbrk+0x5c>)
 8000bbe:	4b15      	ldr	r3, [pc, #84]	@ (8000c14 <_sbrk+0x60>)
 8000bc0:	1ad3      	subs	r3, r2, r3
 8000bc2:	617b      	str	r3, [r7, #20]
  const uint8_t *max_heap = (uint8_t *)stack_limit;
 8000bc4:	697b      	ldr	r3, [r7, #20]
 8000bc6:	613b      	str	r3, [r7, #16]
  uint8_t *prev_heap_end;

  /* Initialize heap end at first call */
  if (NULL == __sbrk_heap_end)
 8000bc8:	4b13      	ldr	r3, [pc, #76]	@ (8000c18 <_sbrk+0x64>)
 8000bca:	681b      	ldr	r3, [r3, #0]
 8000bcc:	2b00      	cmp	r3, #0
 8000bce:	d102      	bne.n	8000bd6 <_sbrk+0x22>
  {
    __sbrk_heap_end = &_end;
 8000bd0:	4b11      	ldr	r3, [pc, #68]	@ (8000c18 <_sbrk+0x64>)
 8000bd2:	4a12      	ldr	r2, [pc, #72]	@ (8000c1c <_sbrk+0x68>)
 8000bd4:	601a      	str	r2, [r3, #0]
  }

  /* Protect heap from growing into the reserved MSP stack */
  if (__sbrk_heap_end + incr > max_heap)
 8000bd6:	4b10      	ldr	r3, [pc, #64]	@ (8000c18 <_sbrk+0x64>)
 8000bd8:	681a      	ldr	r2, [r3, #0]
 8000bda:	687b      	ldr	r3, [r7, #4]
 8000bdc:	18d3      	adds	r3, r2, r3
 8000bde:	693a      	ldr	r2, [r7, #16]
 8000be0:	429a      	cmp	r2, r3
 8000be2:	d207      	bcs.n	8000bf4 <_sbrk+0x40>
  {
    errno = ENOMEM;
 8000be4:	f003 ff3c 	bl	8004a60 <__errno>
 8000be8:	0003      	movs	r3, r0
 8000bea:	220c      	movs	r2, #12
 8000bec:	601a      	str	r2, [r3, #0]
    return (void *)-1;
 8000bee:	2301      	movs	r3, #1
 8000bf0:	425b      	negs	r3, r3
 8000bf2:	e009      	b.n	8000c08 <_sbrk+0x54>
  }

  prev_heap_end = __sbrk_heap_end;
 8000bf4:	4b08      	ldr	r3, [pc, #32]	@ (8000c18 <_sbrk+0x64>)
 8000bf6:	681b      	ldr	r3, [r3, #0]
 8000bf8:	60fb      	str	r3, [r7, #12]
  __sbrk_heap_end += incr;
 8000bfa:	4b07      	ldr	r3, [pc, #28]	@ (8000c18 <_sbrk+0x64>)
 8000bfc:	681a      	ldr	r2, [r3, #0]
 8000bfe:	687b      	ldr	r3, [r7, #4]
 8000c00:	18d2      	adds	r2, r2, r3
 8000c02:	4b05      	ldr	r3, [pc, #20]	@ (8000c18 <_sbrk+0x64>)
 8000c04:	601a      	str	r2, [r3, #0]

  return (void *)prev_heap_end;
 8000c06:	68fb      	ldr	r3, [r7, #12]
}
 8000c08:	0018      	movs	r0, r3
 8000c0a:	46bd      	mov	sp, r7
 8000c0c:	b006      	add	sp, #24
 8000c0e:	bd80      	pop	{r7, pc}
 8000c10:	20009000 	.word	0x20009000
 8000c14:	00000400 	.word	0x00000400
 8000c18:	20000148 	.word	0x20000148
 8000c1c:	20000330 	.word	0x20000330

08000c20 <MX_USART2_UART_Init>:
UART_HandleTypeDef huart2;

/* USART2 init function */

void MX_USART2_UART_Init(void)
{
 8000c20:	b580      	push	{r7, lr}
 8000c22:	af00      	add	r7, sp, #0
  /* USER CODE END USART2_Init 0 */

  /* USER CODE BEGIN USART2_Init 1 */

  /* USER CODE END USART2_Init 1 */
  huart2.Instance = USART2;
 8000c24:	4b23      	ldr	r3, [pc, #140]	@ (8000cb4 <MX_USART2_UART_Init+0x94>)
 8000c26:	4a24      	ldr	r2, [pc, #144]	@ (8000cb8 <MX_USART2_UART_Init+0x98>)
 8000c28:	601a      	str	r2, [r3, #0]
  huart2.Init.BaudRate = 115200;
 8000c2a:	4b22      	ldr	r3, [pc, #136]	@ (8000cb4 <MX_USART2_UART_Init+0x94>)
 8000c2c:	22e1      	movs	r2, #225	@ 0xe1
 8000c2e:	0252      	lsls	r2, r2, #9
 8000c30:	605a      	str	r2, [r3, #4]
  huart2.Init.WordLength = UART_WORDLENGTH_8B;
 8000c32:	4b20      	ldr	r3, [pc, #128]	@ (8000cb4 <MX_USART2_UART_Init+0x94>)
 8000c34:	2200      	movs	r2, #0
 8000c36:	609a      	str	r2, [r3, #8]
  huart2.Init.StopBits = UART_STOPBITS_1;
 8000c38:	4b1e      	ldr	r3, [pc, #120]	@ (8000cb4 <MX_USART2_UART_Init+0x94>)
 8000c3a:	2200      	movs	r2, #0
 8000c3c:	60da      	str	r2, [r3, #12]
  huart2.Init.Parity = UART_PARITY_NONE;
 8000c3e:	4b1d      	ldr	r3, [pc, #116]	@ (8000cb4 <MX_USART2_UART_Init+0x94>)
 8000c40:	2200      	movs	r2, #0
 8000c42:	611a      	str	r2, [r3, #16]
  huart2.Init.Mode = UART_MODE_TX_RX;
 8000c44:	4b1b      	ldr	r3, [pc, #108]	@ (8000cb4 <MX_USART2_UART_Init+0x94>)
 8000c46:	220c      	movs	r2, #12
 8000c48:	615a      	str	r2, [r3, #20]
  huart2.Init.HwFlowCtl = UART_HWCONTROL_NONE;
 8000c4a:	4b1a      	ldr	r3, [pc, #104]	@ (8000cb4 <MX_USART2_UART_Init+0x94>)
 8000c4c:	2200      	movs	r2, #0
 8000c4e:	619a      	str	r2, [r3, #24]
  huart2.Init.OverSampling = UART_OVERSAMPLING_16;
 8000c50:	4b18      	ldr	r3, [pc, #96]	@ (8000cb4 <MX_USART2_UART_Init+0x94>)
 8000c52:	2200      	movs	r2, #0
 8000c54:	61da      	str	r2, [r3, #28]
  huart2.Init.OneBitSampling = UART_ONE_BIT_SAMPLE_DISABLE;
 8000c56:	4b17      	ldr	r3, [pc, #92]	@ (8000cb4 <MX_USART2_UART_Init+0x94>)
 8000c58:	2200      	movs	r2, #0
 8000c5a:	621a      	str	r2, [r3, #32]
  huart2.Init.ClockPrescaler = UART_PRESCALER_DIV1;
 8000c5c:	4b15      	ldr	r3, [pc, #84]	@ (8000cb4 <MX_USART2_UART_Init+0x94>)
 8000c5e:	2200      	movs	r2, #0
 8000c60:	625a      	str	r2, [r3, #36]	@ 0x24
  huart2.AdvancedInit.AdvFeatureInit = UART_ADVFEATURE_NO_INIT;
 8000c62:	4b14      	ldr	r3, [pc, #80]	@ (8000cb4 <MX_USART2_UART_Init+0x94>)
 8000c64:	2200      	movs	r2, #0
 8000c66:	629a      	str	r2, [r3, #40]	@ 0x28
  if (HAL_UART_Init(&huart2) != HAL_OK)
 8000c68:	4b12      	ldr	r3, [pc, #72]	@ (8000cb4 <MX_USART2_UART_Init+0x94>)
 8000c6a:	0018      	movs	r0, r3
 8000c6c:	f002 fe7c 	bl	8003968 <HAL_UART_Init>
 8000c70:	1e03      	subs	r3, r0, #0
 8000c72:	d001      	beq.n	8000c78 <MX_USART2_UART_Init+0x58>
  {
    Error_Handler();
 8000c74:	f7ff fee8 	bl	8000a48 <Error_Handler>
  }
  if (HAL_UARTEx_SetTxFifoThreshold(&huart2, UART_TXFIFO_THRESHOLD_1_8) != HAL_OK)
 8000c78:	4b0e      	ldr	r3, [pc, #56]	@ (8000cb4 <MX_USART2_UART_Init+0x94>)
 8000c7a:	2100      	movs	r1, #0
 8000c7c:	0018      	movs	r0, r3
 8000c7e:	f003 fc99 	bl	80045b4 <HAL_UARTEx_SetTxFifoThreshold>
 8000c82:	1e03      	subs	r3, r0, #0
 8000c84:	d001      	beq.n	8000c8a <MX_USART2_UART_Init+0x6a>
  {
    Error_Handler();
 8000c86:	f7ff fedf 	bl	8000a48 <Error_Handler>
  }
  if (HAL_UARTEx_SetRxFifoThreshold(&huart2, UART_RXFIFO_THRESHOLD_1_8) != HAL_OK)
 8000c8a:	4b0a      	ldr	r3, [pc, #40]	@ (8000cb4 <MX_USART2_UART_Init+0x94>)
 8000c8c:	2100      	movs	r1, #0
 8000c8e:	0018      	movs	r0, r3
 8000c90:	f003 fcd0 	bl	8004634 <HAL_UARTEx_SetRxFifoThreshold>
 8000c94:	1e03      	subs	r3, r0, #0
 8000c96:	d001      	beq.n	8000c9c <MX_USART2_UART_Init+0x7c>
  {
    Error_Handler();
 8000c98:	f7ff fed6 	bl	8000a48 <Error_Handler>
  }
  if (HAL_UARTEx_DisableFifoMode(&huart2) != HAL_OK)
 8000c9c:	4b05      	ldr	r3, [pc, #20]	@ (8000cb4 <MX_USART2_UART_Init+0x94>)
 8000c9e:	0018      	movs	r0, r3
 8000ca0:	f003 fc4e 	bl	8004540 <HAL_UARTEx_DisableFifoMode>
 8000ca4:	1e03      	subs	r3, r0, #0
 8000ca6:	d001      	beq.n	8000cac <MX_USART2_UART_Init+0x8c>
  {
    Error_Handler();
 8000ca8:	f7ff fece 	bl	8000a48 <Error_Handler>
  }
  /* USER CODE BEGIN USART2_Init 2 */

  /* USER CODE END USART2_Init 2 */

}
 8000cac:	46c0      	nop			@ (mov r8, r8)
 8000cae:	46bd      	mov	sp, r7
 8000cb0:	bd80      	pop	{r7, pc}
 8000cb2:	46c0      	nop			@ (mov r8, r8)
 8000cb4:	2000014c 	.word	0x2000014c
 8000cb8:	40004400 	.word	0x40004400

08000cbc <HAL_UART_MspInit>:

void HAL_UART_MspInit(UART_HandleTypeDef* uartHandle)
{
 8000cbc:	b590      	push	{r4, r7, lr}
 8000cbe:	b097      	sub	sp, #92	@ 0x5c
 8000cc0:	af00      	add	r7, sp, #0
 8000cc2:	6078      	str	r0, [r7, #4]

  GPIO_InitTypeDef GPIO_InitStruct = {0};
 8000cc4:	2344      	movs	r3, #68	@ 0x44
 8000cc6:	18fb      	adds	r3, r7, r3
 8000cc8:	0018      	movs	r0, r3
 8000cca:	2314      	movs	r3, #20
 8000ccc:	001a      	movs	r2, r3
 8000cce:	2100      	movs	r1, #0
 8000cd0:	f003 fe70 	bl	80049b4 <memset>
  RCC_PeriphCLKInitTypeDef PeriphClkInit = {0};
 8000cd4:	2410      	movs	r4, #16
 8000cd6:	193b      	adds	r3, r7, r4
 8000cd8:	0018      	movs	r0, r3
 8000cda:	2334      	movs	r3, #52	@ 0x34
 8000cdc:	001a      	movs	r2, r3
 8000cde:	2100      	movs	r1, #0
 8000ce0:	f003 fe68 	bl	80049b4 <memset>
  if(uartHandle->Instance==USART2)
 8000ce4:	687b      	ldr	r3, [r7, #4]
 8000ce6:	681b      	ldr	r3, [r3, #0]
 8000ce8:	4a22      	ldr	r2, [pc, #136]	@ (8000d74 <HAL_UART_MspInit+0xb8>)
 8000cea:	4293      	cmp	r3, r2
 8000cec:	d13e      	bne.n	8000d6c <HAL_UART_MspInit+0xb0>

  /* USER CODE END USART2_MspInit 0 */

  /** Initializes the peripherals clocks
  */
    PeriphClkInit.PeriphClockSelection = RCC_PERIPHCLK_USART2;
 8000cee:	193b      	adds	r3, r7, r4
 8000cf0:	2202      	movs	r2, #2
 8000cf2:	601a      	str	r2, [r3, #0]
    PeriphClkInit.Usart2ClockSelection = RCC_USART2CLKSOURCE_PCLK1;
 8000cf4:	193b      	adds	r3, r7, r4
 8000cf6:	2200      	movs	r2, #0
 8000cf8:	609a      	str	r2, [r3, #8]
    if (HAL_RCCEx_PeriphCLKConfig(&PeriphClkInit) != HAL_OK)
 8000cfa:	193b      	adds	r3, r7, r4
 8000cfc:	0018      	movs	r0, r3
 8000cfe:	f002 fc7b 	bl	80035f8 <HAL_RCCEx_PeriphCLKConfig>
 8000d02:	1e03      	subs	r3, r0, #0
 8000d04:	d001      	beq.n	8000d0a <HAL_UART_MspInit+0x4e>
    {
      Error_Handler();
 8000d06:	f7ff fe9f 	bl	8000a48 <Error_Handler>
    }

    /* USART2 clock enable */
    __HAL_RCC_USART2_CLK_ENABLE();
 8000d0a:	4b1b      	ldr	r3, [pc, #108]	@ (8000d78 <HAL_UART_MspInit+0xbc>)
 8000d0c:	6bda      	ldr	r2, [r3, #60]	@ 0x3c
 8000d0e:	4b1a      	ldr	r3, [pc, #104]	@ (8000d78 <HAL_UART_MspInit+0xbc>)
 8000d10:	2180      	movs	r1, #128	@ 0x80
 8000d12:	0289      	lsls	r1, r1, #10
 8000d14:	430a      	orrs	r2, r1
 8000d16:	63da      	str	r2, [r3, #60]	@ 0x3c
 8000d18:	4b17      	ldr	r3, [pc, #92]	@ (8000d78 <HAL_UART_MspInit+0xbc>)
 8000d1a:	6bda      	ldr	r2, [r3, #60]	@ 0x3c
 8000d1c:	2380      	movs	r3, #128	@ 0x80
 8000d1e:	029b      	lsls	r3, r3, #10
 8000d20:	4013      	ands	r3, r2
 8000d22:	60fb      	str	r3, [r7, #12]
 8000d24:	68fb      	ldr	r3, [r7, #12]

    __HAL_RCC_GPIOA_CLK_ENABLE();
 8000d26:	4b14      	ldr	r3, [pc, #80]	@ (8000d78 <HAL_UART_MspInit+0xbc>)
 8000d28:	6b5a      	ldr	r2, [r3, #52]	@ 0x34
 8000d2a:	4b13      	ldr	r3, [pc, #76]	@ (8000d78 <HAL_UART_MspInit+0xbc>)
 8000d2c:	2101      	movs	r1, #1
 8000d2e:	430a      	orrs	r2, r1
 8000d30:	635a      	str	r2, [r3, #52]	@ 0x34
 8000d32:	4b11      	ldr	r3, [pc, #68]	@ (8000d78 <HAL_UART_MspInit+0xbc>)
 8000d34:	6b5b      	ldr	r3, [r3, #52]	@ 0x34
 8000d36:	2201      	movs	r2, #1
 8000d38:	4013      	ands	r3, r2
 8000d3a:	60bb      	str	r3, [r7, #8]
 8000d3c:	68bb      	ldr	r3, [r7, #8]
    /**USART2 GPIO Configuration
    PA2     ------> USART2_TX
    PA3     ------> USART2_RX
    */
    GPIO_InitStruct.Pin = GPIO_PIN_2|GPIO_PIN_3;
 8000d3e:	2144      	movs	r1, #68	@ 0x44
 8000d40:	187b      	adds	r3, r7, r1
 8000d42:	220c      	movs	r2, #12
 8000d44:	601a      	str	r2, [r3, #0]
    GPIO_InitStruct.Mode = GPIO_MODE_AF_PP;
 8000d46:	187b      	adds	r3, r7, r1
 8000d48:	2202      	movs	r2, #2
 8000d4a:	605a      	str	r2, [r3, #4]
    GPIO_InitStruct.Pull = GPIO_NOPULL;
 8000d4c:	187b      	adds	r3, r7, r1
 8000d4e:	2200      	movs	r2, #0
 8000d50:	609a      	str	r2, [r3, #8]
    GPIO_InitStruct.Speed = GPIO_SPEED_FREQ_LOW;
 8000d52:	187b      	adds	r3, r7, r1
 8000d54:	2200      	movs	r2, #0
 8000d56:	60da      	str	r2, [r3, #12]
    GPIO_InitStruct.Alternate = GPIO_AF1_USART2;
 8000d58:	187b      	adds	r3, r7, r1
 8000d5a:	2201      	movs	r2, #1
 8000d5c:	611a      	str	r2, [r3, #16]
    HAL_GPIO_Init(GPIOA, &GPIO_InitStruct);
 8000d5e:	187a      	adds	r2, r7, r1
 8000d60:	23a0      	movs	r3, #160	@ 0xa0
 8000d62:	05db      	lsls	r3, r3, #23
 8000d64:	0011      	movs	r1, r2
 8000d66:	0018      	movs	r0, r3
 8000d68:	f001 fdb4 	bl	80028d4 <HAL_GPIO_Init>

  /* USER CODE BEGIN USART2_MspInit 1 */

  /* USER CODE END USART2_MspInit 1 */
  }
}
 8000d6c:	46c0      	nop			@ (mov r8, r8)
 8000d6e:	46bd      	mov	sp, r7
 8000d70:	b017      	add	sp, #92	@ 0x5c
 8000d72:	bd90      	pop	{r4, r7, pc}
 8000d74:	40004400 	.word	0x40004400
 8000d78:	40021000 	.word	0x40021000

08000d7c <Reset_Handler>:

  .section .text.Reset_Handler
  .weak Reset_Handler
  .type Reset_Handler, %function
Reset_Handler:
  ldr   r0, =_estack
 8000d7c:	480d      	ldr	r0, [pc, #52]	@ (8000db4 <LoopForever+0x2>)
  mov   sp, r0          /* set stack pointer */
 8000d7e:	4685      	mov	sp, r0

/* Call the clock system initialization function.*/
  bl  SystemInit
 8000d80:	f000 f825 	bl	8000dce <SystemInit>

/* Copy the data segment initializers from flash to SRAM */
  ldr r0, =_sdata
 8000d84:	480c      	ldr	r0, [pc, #48]	@ (8000db8 <LoopForever+0x6>)
  ldr r1, =_edata
 8000d86:	490d      	ldr	r1, [pc, #52]	@ (8000dbc <LoopForever+0xa>)
  ldr r2, =_sidata
 8000d88:	4a0d      	ldr	r2, [pc, #52]	@ (8000dc0 <LoopForever+0xe>)
  movs r3, #0
 8000d8a:	2300      	movs	r3, #0
  b LoopCopyDataInit
 8000d8c:	e002      	b.n	8000d94 <LoopCopyDataInit>

08000d8e <CopyDataInit>:

CopyDataInit:
  ldr r4, [r2, r3]
 8000d8e:	58d4      	ldr	r4, [r2, r3]
  str r4, [r0, r3]
 8000d90:	50c4      	str	r4, [r0, r3]
  adds r3, r3, #4
 8000d92:	3304      	adds	r3, #4

08000d94 <LoopCopyDataInit>:

LoopCopyDataInit:
  adds r4, r0, r3
 8000d94:	18c4      	adds	r4, r0, r3
  cmp r4, r1
 8000d96:	428c      	cmp	r4, r1
  bcc CopyDataInit
 8000d98:	d3f9      	bcc.n	8000d8e <CopyDataInit>

/* Zero fill the bss segment. */
  ldr r2, =_sbss
 8000d9a:	4a0a      	ldr	r2, [pc, #40]	@ (8000dc4 <LoopForever+0x12>)
  ldr r4, =_ebss
 8000d9c:	4c0a      	ldr	r4, [pc, #40]	@ (8000dc8 <LoopForever+0x16>)
  movs r3, #0
 8000d9e:	2300      	movs	r3, #0
  b LoopFillZerobss
 8000da0:	e001      	b.n	8000da6 <LoopFillZerobss>

08000da2 <FillZerobss>:

FillZerobss:
  str  r3, [r2]
 8000da2:	6013      	str	r3, [r2, #0]
  adds r2, r2, #4
 8000da4:	3204      	adds	r2, #4

08000da6 <LoopFillZerobss>:

LoopFillZerobss:
  cmp r2, r4
 8000da6:	42a2      	cmp	r2, r4
  bcc FillZerobss
 8000da8:	d3fb      	bcc.n	8000da2 <FillZerobss>

/* Call static constructors */
  bl __libc_init_array
 8000daa:	f003 fe5f 	bl	8004a6c <__libc_init_array>
/* Call the application s entry point.*/
  bl main
 8000dae:	f7ff fd97 	bl	80008e0 <main>

08000db2 <LoopForever>:

LoopForever:
  b LoopForever
 8000db2:	e7fe      	b.n	8000db2 <LoopForever>
  ldr   r0, =_estack
 8000db4:	20009000 	.word	0x20009000
  ldr r0, =_sdata
 8000db8:	20000000 	.word	0x20000000
  ldr r1, =_edata
 8000dbc:	20000068 	.word	0x20000068
  ldr r2, =_sidata
 8000dc0:	0800573c 	.word	0x0800573c
  ldr r2, =_sbss
 8000dc4:	20000068 	.word	0x20000068
  ldr r4, =_ebss
 8000dc8:	20000330 	.word	0x20000330

08000dcc <ADC1_COMP_IRQHandler>:
 * @retval None
*/
  .section .text.Default_Handler,"ax",%progbits
Default_Handler:
Infinite_Loop:
  b Infinite_Loop
 8000dcc:	e7fe      	b.n	8000dcc <ADC1_COMP_IRQHandler>

08000dce <SystemInit>:
  * @brief  Setup the microcontroller system.
  * @param  None
  * @retval None
  */
void SystemInit(void)
{
 8000dce:	b580      	push	{r7, lr}
 8000dd0:	af00      	add	r7, sp, #0
  /* Configure the Vector Table location -------------------------------------*/
#if defined(USER_VECT_TAB_ADDRESS)
  SCB->VTOR = VECT_TAB_BASE_ADDRESS | VECT_TAB_OFFSET; /* Vector Table Relocation */
#endif /* USER_VECT_TAB_ADDRESS */
}
 8000dd2:	46c0      	nop			@ (mov r8, r8)
 8000dd4:	46bd      	mov	sp, r7
 8000dd6:	bd80      	pop	{r7, pc}

08000dd8 <HAL_Init>:
  *         each 1ms in the SysTick_Handler() interrupt handler.
  *
  * @retval HAL status
  */
HAL_StatusTypeDef HAL_Init(void)
{
 8000dd8:	b580      	push	{r7, lr}
 8000dda:	b082      	sub	sp, #8
 8000ddc:	af00      	add	r7, sp, #0
  HAL_StatusTypeDef  status = HAL_OK;
 8000dde:	1dfb      	adds	r3, r7, #7
 8000de0:	2200      	movs	r2, #0
 8000de2:	701a      	strb	r2, [r3, #0]
#if (INSTRUCTION_CACHE_ENABLE == 0U)
  __HAL_FLASH_INSTRUCTION_CACHE_DISABLE();
#endif /* INSTRUCTION_CACHE_ENABLE */

#if (PREFETCH_ENABLE != 0U)
  __HAL_FLASH_PREFETCH_BUFFER_ENABLE();
 8000de4:	4b0b      	ldr	r3, [pc, #44]	@ (8000e14 <HAL_Init+0x3c>)
 8000de6:	681a      	ldr	r2, [r3, #0]
 8000de8:	4b0a      	ldr	r3, [pc, #40]	@ (8000e14 <HAL_Init+0x3c>)
 8000dea:	2180      	movs	r1, #128	@ 0x80
 8000dec:	0049      	lsls	r1, r1, #1
 8000dee:	430a      	orrs	r2, r1
 8000df0:	601a      	str	r2, [r3, #0]
#endif /* PREFETCH_ENABLE */

  /* Use SysTick as time base source and configure 1ms tick (default clock after Reset is HSI) */
  if (HAL_InitTick(TICK_INT_PRIORITY) != HAL_OK)
 8000df2:	2003      	movs	r0, #3
 8000df4:	f000 f810 	bl	8000e18 <HAL_InitTick>
 8000df8:	1e03      	subs	r3, r0, #0
 8000dfa:	d003      	beq.n	8000e04 <HAL_Init+0x2c>
  {
    status = HAL_ERROR;
 8000dfc:	1dfb      	adds	r3, r7, #7
 8000dfe:	2201      	movs	r2, #1
 8000e00:	701a      	strb	r2, [r3, #0]
 8000e02:	e001      	b.n	8000e08 <HAL_Init+0x30>
  }
  else
  {
  /* Init the low level hardware */
  HAL_MspInit();
 8000e04:	f7ff fe26 	bl	8000a54 <HAL_MspInit>
  }

  /* Return function status */
  return status;
 8000e08:	1dfb      	adds	r3, r7, #7
 8000e0a:	781b      	ldrb	r3, [r3, #0]
}
 8000e0c:	0018      	movs	r0, r3
 8000e0e:	46bd      	mov	sp, r7
 8000e10:	b002      	add	sp, #8
 8000e12:	bd80      	pop	{r7, pc}
 8000e14:	40022000 	.word	0x40022000

08000e18 <HAL_InitTick>:
  *       implementation  in user file.
  * @param TickPriority Tick interrupt priority.
  * @retval HAL status
  */
__weak HAL_StatusTypeDef HAL_InitTick(uint32_t TickPriority)
{
 8000e18:	b590      	push	{r4, r7, lr}
 8000e1a:	b085      	sub	sp, #20
 8000e1c:	af00      	add	r7, sp, #0
 8000e1e:	6078      	str	r0, [r7, #4]
  HAL_StatusTypeDef  status = HAL_OK;
 8000e20:	230f      	movs	r3, #15
 8000e22:	18fb      	adds	r3, r7, r3
 8000e24:	2200      	movs	r2, #0
 8000e26:	701a      	strb	r2, [r3, #0]

  /* Check uwTickFreq for MisraC 2012 (even if uwTickFreq is a enum type that doesn't take the value zero)*/ 
  if ((uint32_t)uwTickFreq != 0U)
 8000e28:	4b1d      	ldr	r3, [pc, #116]	@ (8000ea0 <HAL_InitTick+0x88>)
 8000e2a:	781b      	ldrb	r3, [r3, #0]
 8000e2c:	2b00      	cmp	r3, #0
 8000e2e:	d02b      	beq.n	8000e88 <HAL_InitTick+0x70>
  {
    /*Configure the SysTick to have interrupt in 1ms time basis*/
    if (HAL_SYSTICK_Config(SystemCoreClock / (1000U /(uint32_t)uwTickFreq)) == 0U)
 8000e30:	4b1c      	ldr	r3, [pc, #112]	@ (8000ea4 <HAL_InitTick+0x8c>)
 8000e32:	681c      	ldr	r4, [r3, #0]
 8000e34:	4b1a      	ldr	r3, [pc, #104]	@ (8000ea0 <HAL_InitTick+0x88>)
 8000e36:	781b      	ldrb	r3, [r3, #0]
 8000e38:	0019      	movs	r1, r3
 8000e3a:	23fa      	movs	r3, #250	@ 0xfa
 8000e3c:	0098      	lsls	r0, r3, #2
 8000e3e:	f7ff f96b 	bl	8000118 <__udivsi3>
 8000e42:	0003      	movs	r3, r0
 8000e44:	0019      	movs	r1, r3
 8000e46:	0020      	movs	r0, r4
 8000e48:	f7ff f966 	bl	8000118 <__udivsi3>
 8000e4c:	0003      	movs	r3, r0
 8000e4e:	0018      	movs	r0, r3
 8000e50:	f001 fa7f 	bl	8002352 <HAL_SYSTICK_Config>
 8000e54:	1e03      	subs	r3, r0, #0
 8000e56:	d112      	bne.n	8000e7e <HAL_InitTick+0x66>
    {
      /* Configure the SysTick IRQ priority */
      if (TickPriority < (1UL << __NVIC_PRIO_BITS))
 8000e58:	687b      	ldr	r3, [r7, #4]
 8000e5a:	2b03      	cmp	r3, #3
 8000e5c:	d80a      	bhi.n	8000e74 <HAL_InitTick+0x5c>
      {
        HAL_NVIC_SetPriority(SysTick_IRQn, TickPriority, 0U);
 8000e5e:	6879      	ldr	r1, [r7, #4]
 8000e60:	2301      	movs	r3, #1
 8000e62:	425b      	negs	r3, r3
 8000e64:	2200      	movs	r2, #0
 8000e66:	0018      	movs	r0, r3
 8000e68:	f001 fa4e 	bl	8002308 <HAL_NVIC_SetPriority>
        uwTickPrio = TickPriority;
 8000e6c:	4b0e      	ldr	r3, [pc, #56]	@ (8000ea8 <HAL_InitTick+0x90>)
 8000e6e:	687a      	ldr	r2, [r7, #4]
 8000e70:	601a      	str	r2, [r3, #0]
 8000e72:	e00d      	b.n	8000e90 <HAL_InitTick+0x78>
      }
      else
      {
        status = HAL_ERROR;
 8000e74:	230f      	movs	r3, #15
 8000e76:	18fb      	adds	r3, r7, r3
 8000e78:	2201      	movs	r2, #1
 8000e7a:	701a      	strb	r2, [r3, #0]
 8000e7c:	e008      	b.n	8000e90 <HAL_InitTick+0x78>
      }
    }
    else
    {
      status = HAL_ERROR;
 8000e7e:	230f      	movs	r3, #15
 8000e80:	18fb      	adds	r3, r7, r3
 8000e82:	2201      	movs	r2, #1
 8000e84:	701a      	strb	r2, [r3, #0]
 8000e86:	e003      	b.n	8000e90 <HAL_InitTick+0x78>
    }
  }
  else
  {
    status = HAL_ERROR;
 8000e88:	230f      	movs	r3, #15
 8000e8a:	18fb      	adds	r3, r7, r3
 8000e8c:	2201      	movs	r2, #1
 8000e8e:	701a      	strb	r2, [r3, #0]
  }

  /* Return function status */
  return status;
 8000e90:	230f      	movs	r3, #15
 8000e92:	18fb      	adds	r3, r7, r3
 8000e94:	781b      	ldrb	r3, [r3, #0]
}
 8000e96:	0018      	movs	r0, r3
 8000e98:	46bd      	mov	sp, r7
 8000e9a:	b005      	add	sp, #20
 8000e9c:	bd90      	pop	{r4, r7, pc}
 8000e9e:	46c0      	nop			@ (mov r8, r8)
 8000ea0:	20000008 	.word	0x20000008
 8000ea4:	20000000 	.word	0x20000000
 8000ea8:	20000004 	.word	0x20000004

08000eac <HAL_IncTick>:
  * @note This function is declared as __weak to be overwritten in case of other
  *      implementations in user file.
  * @retval None
  */
__weak void HAL_IncTick(void)
{
 8000eac:	b580      	push	{r7, lr}
 8000eae:	af00      	add	r7, sp, #0
  uwTick += (uint32_t)uwTickFreq;
 8000eb0:	4b05      	ldr	r3, [pc, #20]	@ (8000ec8 <HAL_IncTick+0x1c>)
 8000eb2:	781b      	ldrb	r3, [r3, #0]
 8000eb4:	001a      	movs	r2, r3
 8000eb6:	4b05      	ldr	r3, [pc, #20]	@ (8000ecc <HAL_IncTick+0x20>)
 8000eb8:	681b      	ldr	r3, [r3, #0]
 8000eba:	18d2      	adds	r2, r2, r3
 8000ebc:	4b03      	ldr	r3, [pc, #12]	@ (8000ecc <HAL_IncTick+0x20>)
 8000ebe:	601a      	str	r2, [r3, #0]
}
 8000ec0:	46c0      	nop			@ (mov r8, r8)
 8000ec2:	46bd      	mov	sp, r7
 8000ec4:	bd80      	pop	{r7, pc}
 8000ec6:	46c0      	nop			@ (mov r8, r8)
 8000ec8:	20000008 	.word	0x20000008
 8000ecc:	200001e0 	.word	0x200001e0

08000ed0 <HAL_GetTick>:
  * @note This function is declared as __weak to be overwritten in case of other
  *       implementations in user file.
  * @retval tick value
  */
__weak uint32_t HAL_GetTick(void)
{
 8000ed0:	b580      	push	{r7, lr}
 8000ed2:	af00      	add	r7, sp, #0
  return uwTick;
 8000ed4:	4b02      	ldr	r3, [pc, #8]	@ (8000ee0 <HAL_GetTick+0x10>)
 8000ed6:	681b      	ldr	r3, [r3, #0]
}
 8000ed8:	0018      	movs	r0, r3
 8000eda:	46bd      	mov	sp, r7
 8000edc:	bd80      	pop	{r7, pc}
 8000ede:	46c0      	nop			@ (mov r8, r8)
 8000ee0:	200001e0 	.word	0x200001e0

08000ee4 <HAL_Delay>:
  *       implementations in user file.
  * @param Delay  specifies the delay time length, in milliseconds.
  * @retval None
  */
__weak void HAL_Delay(uint32_t Delay)
{
 8000ee4:	b580      	push	{r7, lr}
 8000ee6:	b084      	sub	sp, #16
 8000ee8:	af00      	add	r7, sp, #0
 8000eea:	6078      	str	r0, [r7, #4]
  uint32_t tickstart = HAL_GetTick();
 8000eec:	f7ff fff0 	bl	8000ed0 <HAL_GetTick>
 8000ef0:	0003      	movs	r3, r0
 8000ef2:	60bb      	str	r3, [r7, #8]
  uint32_t wait = Delay;
 8000ef4:	687b      	ldr	r3, [r7, #4]
 8000ef6:	60fb      	str	r3, [r7, #12]

  /* Add a freq to guarantee minimum wait */
  if (wait < HAL_MAX_DELAY)
 8000ef8:	68fb      	ldr	r3, [r7, #12]
 8000efa:	3301      	adds	r3, #1
 8000efc:	d005      	beq.n	8000f0a <HAL_Delay+0x26>
  {
    wait += (uint32_t)(uwTickFreq);
 8000efe:	4b0a      	ldr	r3, [pc, #40]	@ (8000f28 <HAL_Delay+0x44>)
 8000f00:	781b      	ldrb	r3, [r3, #0]
 8000f02:	001a      	movs	r2, r3
 8000f04:	68fb      	ldr	r3, [r7, #12]
 8000f06:	189b      	adds	r3, r3, r2
 8000f08:	60fb      	str	r3, [r7, #12]
  }

  while ((HAL_GetTick() - tickstart) < wait)
 8000f0a:	46c0      	nop			@ (mov r8, r8)
 8000f0c:	f7ff ffe0 	bl	8000ed0 <HAL_GetTick>
 8000f10:	0002      	movs	r2, r0
 8000f12:	68bb      	ldr	r3, [r7, #8]
 8000f14:	1ad3      	subs	r3, r2, r3
 8000f16:	68fa      	ldr	r2, [r7, #12]
 8000f18:	429a      	cmp	r2, r3
 8000f1a:	d8f7      	bhi.n	8000f0c <HAL_Delay+0x28>
  {
  }
}
 8000f1c:	46c0      	nop			@ (mov r8, r8)
 8000f1e:	46c0      	nop			@ (mov r8, r8)
 8000f20:	46bd      	mov	sp, r7
 8000f22:	b004      	add	sp, #16
 8000f24:	bd80      	pop	{r7, pc}
 8000f26:	46c0      	nop			@ (mov r8, r8)
 8000f28:	20000008 	.word	0x20000008

08000f2c <LL_ADC_SetCommonPathInternalCh>:
  *         @arg @ref LL_ADC_PATH_INTERNAL_TEMPSENSOR
  *         @arg @ref LL_ADC_PATH_INTERNAL_VBAT
  * @retval None
  */
__STATIC_INLINE void LL_ADC_SetCommonPathInternalCh(ADC_Common_TypeDef *ADCxy_COMMON, uint32_t PathInternal)
{
 8000f2c:	b580      	push	{r7, lr}
 8000f2e:	b082      	sub	sp, #8
 8000f30:	af00      	add	r7, sp, #0
 8000f32:	6078      	str	r0, [r7, #4]
 8000f34:	6039      	str	r1, [r7, #0]
  MODIFY_REG(ADCxy_COMMON->CCR, ADC_CCR_VREFEN | ADC_CCR_TSEN | ADC_CCR_VBATEN, PathInternal);
 8000f36:	687b      	ldr	r3, [r7, #4]
 8000f38:	681b      	ldr	r3, [r3, #0]
 8000f3a:	4a05      	ldr	r2, [pc, #20]	@ (8000f50 <LL_ADC_SetCommonPathInternalCh+0x24>)
 8000f3c:	401a      	ands	r2, r3
 8000f3e:	683b      	ldr	r3, [r7, #0]
 8000f40:	431a      	orrs	r2, r3
 8000f42:	687b      	ldr	r3, [r7, #4]
 8000f44:	601a      	str	r2, [r3, #0]
}
 8000f46:	46c0      	nop			@ (mov r8, r8)
 8000f48:	46bd      	mov	sp, r7
 8000f4a:	b002      	add	sp, #8
 8000f4c:	bd80      	pop	{r7, pc}
 8000f4e:	46c0      	nop			@ (mov r8, r8)
 8000f50:	fe3fffff 	.word	0xfe3fffff

08000f54 <LL_ADC_GetCommonPathInternalCh>:
  *         @arg @ref LL_ADC_PATH_INTERNAL_VREFINT
  *         @arg @ref LL_ADC_PATH_INTERNAL_TEMPSENSOR
  *         @arg @ref LL_ADC_PATH_INTERNAL_VBAT
  */
__STATIC_INLINE uint32_t LL_ADC_GetCommonPathInternalCh(const ADC_Common_TypeDef *ADCxy_COMMON)
{
 8000f54:	b580      	push	{r7, lr}
 8000f56:	b082      	sub	sp, #8
 8000f58:	af00      	add	r7, sp, #0
 8000f5a:	6078      	str	r0, [r7, #4]
  return (uint32_t)(READ_BIT(ADCxy_COMMON->CCR, ADC_CCR_VREFEN | ADC_CCR_TSEN | ADC_CCR_VBATEN));
 8000f5c:	687b      	ldr	r3, [r7, #4]
 8000f5e:	681a      	ldr	r2, [r3, #0]
 8000f60:	23e0      	movs	r3, #224	@ 0xe0
 8000f62:	045b      	lsls	r3, r3, #17
 8000f64:	4013      	ands	r3, r2
}
 8000f66:	0018      	movs	r0, r3
 8000f68:	46bd      	mov	sp, r7
 8000f6a:	b002      	add	sp, #8
 8000f6c:	bd80      	pop	{r7, pc}

08000f6e <LL_ADC_SetSamplingTimeCommonChannels>:
  *         @arg @ref LL_ADC_SAMPLINGTIME_160CYCLES_5
  * @retval None
  */
__STATIC_INLINE void LL_ADC_SetSamplingTimeCommonChannels(ADC_TypeDef *ADCx, uint32_t SamplingTimeY,
                                                          uint32_t SamplingTime)
{
 8000f6e:	b580      	push	{r7, lr}
 8000f70:	b084      	sub	sp, #16
 8000f72:	af00      	add	r7, sp, #0
 8000f74:	60f8      	str	r0, [r7, #12]
 8000f76:	60b9      	str	r1, [r7, #8]
 8000f78:	607a      	str	r2, [r7, #4]
  MODIFY_REG(ADCx->SMPR,
 8000f7a:	68fb      	ldr	r3, [r7, #12]
 8000f7c:	695b      	ldr	r3, [r3, #20]
 8000f7e:	68ba      	ldr	r2, [r7, #8]
 8000f80:	2104      	movs	r1, #4
 8000f82:	400a      	ands	r2, r1
 8000f84:	2107      	movs	r1, #7
 8000f86:	4091      	lsls	r1, r2
 8000f88:	000a      	movs	r2, r1
 8000f8a:	43d2      	mvns	r2, r2
 8000f8c:	401a      	ands	r2, r3
 8000f8e:	68bb      	ldr	r3, [r7, #8]
 8000f90:	2104      	movs	r1, #4
 8000f92:	400b      	ands	r3, r1
 8000f94:	6879      	ldr	r1, [r7, #4]
 8000f96:	4099      	lsls	r1, r3
 8000f98:	000b      	movs	r3, r1
 8000f9a:	431a      	orrs	r2, r3
 8000f9c:	68fb      	ldr	r3, [r7, #12]
 8000f9e:	615a      	str	r2, [r3, #20]
             ADC_SMPR_SMP1 << (SamplingTimeY & ADC_SAMPLING_TIME_SMP_SHIFT_MASK),
             SamplingTime << (SamplingTimeY & ADC_SAMPLING_TIME_SMP_SHIFT_MASK));
}
 8000fa0:	46c0      	nop			@ (mov r8, r8)
 8000fa2:	46bd      	mov	sp, r7
 8000fa4:	b004      	add	sp, #16
 8000fa6:	bd80      	pop	{r7, pc}

08000fa8 <LL_ADC_GetSamplingTimeCommonChannels>:
  *         @arg @ref LL_ADC_SAMPLINGTIME_39CYCLES_5
  *         @arg @ref LL_ADC_SAMPLINGTIME_79CYCLES_5
  *         @arg @ref LL_ADC_SAMPLINGTIME_160CYCLES_5
  */
__STATIC_INLINE uint32_t LL_ADC_GetSamplingTimeCommonChannels(const ADC_TypeDef *ADCx, uint32_t SamplingTimeY)
{
 8000fa8:	b580      	push	{r7, lr}
 8000faa:	b082      	sub	sp, #8
 8000fac:	af00      	add	r7, sp, #0
 8000fae:	6078      	str	r0, [r7, #4]
 8000fb0:	6039      	str	r1, [r7, #0]
  return (uint32_t)((READ_BIT(ADCx->SMPR, ADC_SMPR_SMP1 << (SamplingTimeY & ADC_SAMPLING_TIME_SMP_SHIFT_MASK)))
 8000fb2:	687b      	ldr	r3, [r7, #4]
 8000fb4:	695b      	ldr	r3, [r3, #20]
 8000fb6:	683a      	ldr	r2, [r7, #0]
 8000fb8:	2104      	movs	r1, #4
 8000fba:	400a      	ands	r2, r1
 8000fbc:	2107      	movs	r1, #7
 8000fbe:	4091      	lsls	r1, r2
 8000fc0:	000a      	movs	r2, r1
 8000fc2:	401a      	ands	r2, r3
                    >> (SamplingTimeY & ADC_SAMPLING_TIME_SMP_SHIFT_MASK));
 8000fc4:	683b      	ldr	r3, [r7, #0]
 8000fc6:	2104      	movs	r1, #4
 8000fc8:	400b      	ands	r3, r1
  return (uint32_t)((READ_BIT(ADCx->SMPR, ADC_SMPR_SMP1 << (SamplingTimeY & ADC_SAMPLING_TIME_SMP_SHIFT_MASK)))
 8000fca:	40da      	lsrs	r2, r3
 8000fcc:	0013      	movs	r3, r2
}
 8000fce:	0018      	movs	r0, r3
 8000fd0:	46bd      	mov	sp, r7
 8000fd2:	b002      	add	sp, #8
 8000fd4:	bd80      	pop	{r7, pc}

08000fd6 <LL_ADC_REG_IsTriggerSourceSWStart>:
  * @param  ADCx ADC instance
  * @retval Value "0" if trigger source external trigger
  *         Value "1" if trigger source SW start.
  */
__STATIC_INLINE uint32_t LL_ADC_REG_IsTriggerSourceSWStart(const ADC_TypeDef *ADCx)
{
 8000fd6:	b580      	push	{r7, lr}
 8000fd8:	b082      	sub	sp, #8
 8000fda:	af00      	add	r7, sp, #0
 8000fdc:	6078      	str	r0, [r7, #4]
  return ((READ_BIT(ADCx->CFGR1, ADC_CFGR1_EXTEN) == (LL_ADC_REG_TRIG_SOFTWARE & ADC_CFGR1_EXTEN)) ? 1UL : 0UL);
 8000fde:	687b      	ldr	r3, [r7, #4]
 8000fe0:	68da      	ldr	r2, [r3, #12]
 8000fe2:	23c0      	movs	r3, #192	@ 0xc0
 8000fe4:	011b      	lsls	r3, r3, #4
 8000fe6:	4013      	ands	r3, r2
 8000fe8:	d101      	bne.n	8000fee <LL_ADC_REG_IsTriggerSourceSWStart+0x18>
 8000fea:	2301      	movs	r3, #1
 8000fec:	e000      	b.n	8000ff0 <LL_ADC_REG_IsTriggerSourceSWStart+0x1a>
 8000fee:	2300      	movs	r3, #0
}
 8000ff0:	0018      	movs	r0, r3
 8000ff2:	46bd      	mov	sp, r7
 8000ff4:	b002      	add	sp, #8
 8000ff6:	bd80      	pop	{r7, pc}

08000ff8 <LL_ADC_REG_SetSequencerRanks>:
  *             only if sequencer is set in mode "not fully configurable",
  *             refer to function @ref LL_ADC_REG_SetSequencerConfigurable().
  * @retval None
  */
__STATIC_INLINE void LL_ADC_REG_SetSequencerRanks(ADC_TypeDef *ADCx, uint32_t Rank, uint32_t Channel)
{
 8000ff8:	b580      	push	{r7, lr}
 8000ffa:	b084      	sub	sp, #16
 8000ffc:	af00      	add	r7, sp, #0
 8000ffe:	60f8      	str	r0, [r7, #12]
 8001000:	60b9      	str	r1, [r7, #8]
 8001002:	607a      	str	r2, [r7, #4]
  /* Set bits with content of parameter "Channel" with bits position          */
  /* in register depending on parameter "Rank".                               */
  /* Parameters "Rank" and "Channel" are used with masks because containing   */
  /* other bits reserved for other purpose.                                   */
  MODIFY_REG(ADCx->CHSELR,
 8001004:	68fb      	ldr	r3, [r7, #12]
 8001006:	6a9b      	ldr	r3, [r3, #40]	@ 0x28
 8001008:	68ba      	ldr	r2, [r7, #8]
 800100a:	211f      	movs	r1, #31
 800100c:	400a      	ands	r2, r1
 800100e:	210f      	movs	r1, #15
 8001010:	4091      	lsls	r1, r2
 8001012:	000a      	movs	r2, r1
 8001014:	43d2      	mvns	r2, r2
 8001016:	401a      	ands	r2, r3
 8001018:	687b      	ldr	r3, [r7, #4]
 800101a:	0e9b      	lsrs	r3, r3, #26
 800101c:	210f      	movs	r1, #15
 800101e:	4019      	ands	r1, r3
 8001020:	68bb      	ldr	r3, [r7, #8]
 8001022:	201f      	movs	r0, #31
 8001024:	4003      	ands	r3, r0
 8001026:	4099      	lsls	r1, r3
 8001028:	000b      	movs	r3, r1
 800102a:	431a      	orrs	r2, r3
 800102c:	68fb      	ldr	r3, [r7, #12]
 800102e:	629a      	str	r2, [r3, #40]	@ 0x28
             ADC_CHSELR_SQ1 << (Rank & ADC_REG_RANK_ID_SQRX_MASK),
             ((Channel & ADC_CHANNEL_ID_NUMBER_MASK_SEQ) >> ADC_CHANNEL_ID_NUMBER_BITOFFSET_POS)
             << (Rank & ADC_REG_RANK_ID_SQRX_MASK));
}
 8001030:	46c0      	nop			@ (mov r8, r8)
 8001032:	46bd      	mov	sp, r7
 8001034:	b004      	add	sp, #16
 8001036:	bd80      	pop	{r7, pc}

08001038 <LL_ADC_REG_SetSequencerChAdd>:
  *             only if sequencer is set in mode "not fully configurable",
  *             refer to function @ref LL_ADC_REG_SetSequencerConfigurable().
  * @retval None
  */
__STATIC_INLINE void LL_ADC_REG_SetSequencerChAdd(ADC_TypeDef *ADCx, uint32_t Channel)
{
 8001038:	b580      	push	{r7, lr}
 800103a:	b082      	sub	sp, #8
 800103c:	af00      	add	r7, sp, #0
 800103e:	6078      	str	r0, [r7, #4]
 8001040:	6039      	str	r1, [r7, #0]
  /* Parameter "Channel" is used with masks because containing                */
  /* other bits reserved for other purpose.                                   */
  SET_BIT(ADCx->CHSELR, (Channel & ADC_CHANNEL_ID_BITFIELD_MASK));
 8001042:	687b      	ldr	r3, [r7, #4]
 8001044:	6a9a      	ldr	r2, [r3, #40]	@ 0x28
 8001046:	683b      	ldr	r3, [r7, #0]
 8001048:	035b      	lsls	r3, r3, #13
 800104a:	0b5b      	lsrs	r3, r3, #13
 800104c:	431a      	orrs	r2, r3
 800104e:	687b      	ldr	r3, [r7, #4]
 8001050:	629a      	str	r2, [r3, #40]	@ 0x28
}
 8001052:	46c0      	nop			@ (mov r8, r8)
 8001054:	46bd      	mov	sp, r7
 8001056:	b002      	add	sp, #8
 8001058:	bd80      	pop	{r7, pc}

0800105a <LL_ADC_REG_SetSequencerChRem>:
  *             only if sequencer is set in mode "not fully configurable",
  *             refer to function @ref LL_ADC_REG_SetSequencerConfigurable().
  * @retval None
  */
__STATIC_INLINE void LL_ADC_REG_SetSequencerChRem(ADC_TypeDef *ADCx, uint32_t Channel)
{
 800105a:	b580      	push	{r7, lr}
 800105c:	b082      	sub	sp, #8
 800105e:	af00      	add	r7, sp, #0
 8001060:	6078      	str	r0, [r7, #4]
 8001062:	6039      	str	r1, [r7, #0]
  /* Parameter "Channel" is used with masks because containing                */
  /* other bits reserved for other purpose.                                   */
  CLEAR_BIT(ADCx->CHSELR, (Channel & ADC_CHANNEL_ID_BITFIELD_MASK));
 8001064:	687b      	ldr	r3, [r7, #4]
 8001066:	6a9b      	ldr	r3, [r3, #40]	@ 0x28
 8001068:	683a      	ldr	r2, [r7, #0]
 800106a:	0352      	lsls	r2, r2, #13
 800106c:	0b52      	lsrs	r2, r2, #13
 800106e:	43d2      	mvns	r2, r2
 8001070:	401a      	ands	r2, r3
 8001072:	687b      	ldr	r3, [r7, #4]
 8001074:	629a      	str	r2, [r3, #40]	@ 0x28
}
 8001076:	46c0      	nop			@ (mov r8, r8)
 8001078:	46bd      	mov	sp, r7
 800107a:	b002      	add	sp, #8
 800107c:	bd80      	pop	{r7, pc}
	...

08001080 <LL_ADC_SetChannelSamplingTime>:
  *         @arg @ref LL_ADC_SAMPLINGTIME_COMMON_1
  *         @arg @ref LL_ADC_SAMPLINGTIME_COMMON_2
  * @retval None
  */
__STATIC_INLINE void LL_ADC_SetChannelSamplingTime(ADC_TypeDef *ADCx, uint32_t Channel, uint32_t SamplingTimeY)
{
 8001080:	b580      	push	{r7, lr}
 8001082:	b084      	sub	sp, #16
 8001084:	af00      	add	r7, sp, #0
 8001086:	60f8      	str	r0, [r7, #12]
 8001088:	60b9      	str	r1, [r7, #8]
 800108a:	607a      	str	r2, [r7, #4]
  /* Parameter "Channel" is used with masks because containing                */
  /* other bits reserved for other purpose.                                   */
  MODIFY_REG(ADCx->SMPR,
 800108c:	68fb      	ldr	r3, [r7, #12]
 800108e:	695b      	ldr	r3, [r3, #20]
 8001090:	68ba      	ldr	r2, [r7, #8]
 8001092:	0212      	lsls	r2, r2, #8
 8001094:	43d2      	mvns	r2, r2
 8001096:	401a      	ands	r2, r3
 8001098:	68bb      	ldr	r3, [r7, #8]
 800109a:	021b      	lsls	r3, r3, #8
 800109c:	6879      	ldr	r1, [r7, #4]
 800109e:	400b      	ands	r3, r1
 80010a0:	4904      	ldr	r1, [pc, #16]	@ (80010b4 <LL_ADC_SetChannelSamplingTime+0x34>)
 80010a2:	400b      	ands	r3, r1
 80010a4:	431a      	orrs	r2, r3
 80010a6:	68fb      	ldr	r3, [r7, #12]
 80010a8:	615a      	str	r2, [r3, #20]
             (Channel << ADC_SMPR_SMPSEL0_BITOFFSET_POS),
             (Channel << ADC_SMPR_SMPSEL0_BITOFFSET_POS) & (SamplingTimeY & ADC_SAMPLING_TIME_CH_MASK)
            );
}
 80010aa:	46c0      	nop			@ (mov r8, r8)
 80010ac:	46bd      	mov	sp, r7
 80010ae:	b004      	add	sp, #16
 80010b0:	bd80      	pop	{r7, pc}
 80010b2:	46c0      	nop			@ (mov r8, r8)
 80010b4:	07ffff00 	.word	0x07ffff00

080010b8 <LL_ADC_EnableInternalRegulator>:
  * @rmtoll CR       ADVREGEN       LL_ADC_EnableInternalRegulator
  * @param  ADCx ADC instance
  * @retval None
  */
__STATIC_INLINE void LL_ADC_EnableInternalRegulator(ADC_TypeDef *ADCx)
{
 80010b8:	b580      	push	{r7, lr}
 80010ba:	b082      	sub	sp, #8
 80010bc:	af00      	add	r7, sp, #0
 80010be:	6078      	str	r0, [r7, #4]
  /* Note: Write register with some additional bits forced to state reset     */
  /*       instead of modifying only the selected bit for this function,      */
  /*       to not interfere with bits with HW property "rs".                  */
  MODIFY_REG(ADCx->CR,
 80010c0:	687b      	ldr	r3, [r7, #4]
 80010c2:	689b      	ldr	r3, [r3, #8]
 80010c4:	4a05      	ldr	r2, [pc, #20]	@ (80010dc <LL_ADC_EnableInternalRegulator+0x24>)
 80010c6:	4013      	ands	r3, r2
 80010c8:	2280      	movs	r2, #128	@ 0x80
 80010ca:	0552      	lsls	r2, r2, #21
 80010cc:	431a      	orrs	r2, r3
 80010ce:	687b      	ldr	r3, [r7, #4]
 80010d0:	609a      	str	r2, [r3, #8]
             ADC_CR_BITS_PROPERTY_RS,
             ADC_CR_ADVREGEN);
}
 80010d2:	46c0      	nop			@ (mov r8, r8)
 80010d4:	46bd      	mov	sp, r7
 80010d6:	b002      	add	sp, #8
 80010d8:	bd80      	pop	{r7, pc}
 80010da:	46c0      	nop			@ (mov r8, r8)
 80010dc:	6fffffe8 	.word	0x6fffffe8

080010e0 <LL_ADC_IsInternalRegulatorEnabled>:
  * @rmtoll CR       ADVREGEN       LL_ADC_IsInternalRegulatorEnabled
  * @param  ADCx ADC instance
  * @retval 0: internal regulator is disabled, 1: internal regulator is enabled.
  */
__STATIC_INLINE uint32_t LL_ADC_IsInternalRegulatorEnabled(const ADC_TypeDef *ADCx)
{
 80010e0:	b580      	push	{r7, lr}
 80010e2:	b082      	sub	sp, #8
 80010e4:	af00      	add	r7, sp, #0
 80010e6:	6078      	str	r0, [r7, #4]
  return ((READ_BIT(ADCx->CR, ADC_CR_ADVREGEN) == (ADC_CR_ADVREGEN)) ? 1UL : 0UL);
 80010e8:	687b      	ldr	r3, [r7, #4]
 80010ea:	689a      	ldr	r2, [r3, #8]
 80010ec:	2380      	movs	r3, #128	@ 0x80
 80010ee:	055b      	lsls	r3, r3, #21
 80010f0:	401a      	ands	r2, r3
 80010f2:	2380      	movs	r3, #128	@ 0x80
 80010f4:	055b      	lsls	r3, r3, #21
 80010f6:	429a      	cmp	r2, r3
 80010f8:	d101      	bne.n	80010fe <LL_ADC_IsInternalRegulatorEnabled+0x1e>
 80010fa:	2301      	movs	r3, #1
 80010fc:	e000      	b.n	8001100 <LL_ADC_IsInternalRegulatorEnabled+0x20>
 80010fe:	2300      	movs	r3, #0
}
 8001100:	0018      	movs	r0, r3
 8001102:	46bd      	mov	sp, r7
 8001104:	b002      	add	sp, #8
 8001106:	bd80      	pop	{r7, pc}

08001108 <LL_ADC_Enable>:
  * @rmtoll CR       ADEN           LL_ADC_Enable
  * @param  ADCx ADC instance
  * @retval None
  */
__STATIC_INLINE void LL_ADC_Enable(ADC_TypeDef *ADCx)
{
 8001108:	b580      	push	{r7, lr}
 800110a:	b082      	sub	sp, #8
 800110c:	af00      	add	r7, sp, #0
 800110e:	6078      	str	r0, [r7, #4]
  /* Note: Write register with some additional bits forced to state reset     */
  /*       instead of modifying only the selected bit for this function,      */
  /*       to not interfere with bits with HW property "rs".                  */
  MODIFY_REG(ADCx->CR,
 8001110:	687b      	ldr	r3, [r7, #4]
 8001112:	689b      	ldr	r3, [r3, #8]
 8001114:	4a04      	ldr	r2, [pc, #16]	@ (8001128 <LL_ADC_Enable+0x20>)
 8001116:	4013      	ands	r3, r2
 8001118:	2201      	movs	r2, #1
 800111a:	431a      	orrs	r2, r3
 800111c:	687b      	ldr	r3, [r7, #4]
 800111e:	609a      	str	r2, [r3, #8]
             ADC_CR_BITS_PROPERTY_RS,
             ADC_CR_ADEN);
}
 8001120:	46c0      	nop			@ (mov r8, r8)
 8001122:	46bd      	mov	sp, r7
 8001124:	b002      	add	sp, #8
 8001126:	bd80      	pop	{r7, pc}
 8001128:	7fffffe8 	.word	0x7fffffe8

0800112c <LL_ADC_Disable>:
  * @rmtoll CR       ADDIS          LL_ADC_Disable
  * @param  ADCx ADC instance
  * @retval None
  */
__STATIC_INLINE void LL_ADC_Disable(ADC_TypeDef *ADCx)
{
 800112c:	b580      	push	{r7, lr}
 800112e:	b082      	sub	sp, #8
 8001130:	af00      	add	r7, sp, #0
 8001132:	6078      	str	r0, [r7, #4]
  /* Note: Write register with some additional bits forced to state reset     */
  /*       instead of modifying only the selected bit for this function,      */
  /*       to not interfere with bits with HW property "rs".                  */
  MODIFY_REG(ADCx->CR,
 8001134:	687b      	ldr	r3, [r7, #4]
 8001136:	689b      	ldr	r3, [r3, #8]
 8001138:	4a04      	ldr	r2, [pc, #16]	@ (800114c <LL_ADC_Disable+0x20>)
 800113a:	4013      	ands	r3, r2
 800113c:	2202      	movs	r2, #2
 800113e:	431a      	orrs	r2, r3
 8001140:	687b      	ldr	r3, [r7, #4]
 8001142:	609a      	str	r2, [r3, #8]
             ADC_CR_BITS_PROPERTY_RS,
             ADC_CR_ADDIS);
}
 8001144:	46c0      	nop			@ (mov r8, r8)
 8001146:	46bd      	mov	sp, r7
 8001148:	b002      	add	sp, #8
 800114a:	bd80      	pop	{r7, pc}
 800114c:	7fffffe8 	.word	0x7fffffe8

08001150 <LL_ADC_IsEnabled>:
  * @rmtoll CR       ADEN           LL_ADC_IsEnabled
  * @param  ADCx ADC instance
  * @retval 0: ADC is disabled, 1: ADC is enabled.
  */
__STATIC_INLINE uint32_t LL_ADC_IsEnabled(const ADC_TypeDef *ADCx)
{
 8001150:	b580      	push	{r7, lr}
 8001152:	b082      	sub	sp, #8
 8001154:	af00      	add	r7, sp, #0
 8001156:	6078      	str	r0, [r7, #4]
  return ((READ_BIT(ADCx->CR, ADC_CR_ADEN) == (ADC_CR_ADEN)) ? 1UL : 0UL);
 8001158:	687b      	ldr	r3, [r7, #4]
 800115a:	689b      	ldr	r3, [r3, #8]
 800115c:	2201      	movs	r2, #1
 800115e:	4013      	ands	r3, r2
 8001160:	2b01      	cmp	r3, #1
 8001162:	d101      	bne.n	8001168 <LL_ADC_IsEnabled+0x18>
 8001164:	2301      	movs	r3, #1
 8001166:	e000      	b.n	800116a <LL_ADC_IsEnabled+0x1a>
 8001168:	2300      	movs	r3, #0
}
 800116a:	0018      	movs	r0, r3
 800116c:	46bd      	mov	sp, r7
 800116e:	b002      	add	sp, #8
 8001170:	bd80      	pop	{r7, pc}

08001172 <LL_ADC_IsDisableOngoing>:
  * @rmtoll CR       ADDIS          LL_ADC_IsDisableOngoing
  * @param  ADCx ADC instance
  * @retval 0: no ADC disable command on going.
  */
__STATIC_INLINE uint32_t LL_ADC_IsDisableOngoing(const ADC_TypeDef *ADCx)
{
 8001172:	b580      	push	{r7, lr}
 8001174:	b082      	sub	sp, #8
 8001176:	af00      	add	r7, sp, #0
 8001178:	6078      	str	r0, [r7, #4]
  return ((READ_BIT(ADCx->CR, ADC_CR_ADDIS) == (ADC_CR_ADDIS)) ? 1UL : 0UL);
 800117a:	687b      	ldr	r3, [r7, #4]
 800117c:	689b      	ldr	r3, [r3, #8]
 800117e:	2202      	movs	r2, #2
 8001180:	4013      	ands	r3, r2
 8001182:	2b02      	cmp	r3, #2
 8001184:	d101      	bne.n	800118a <LL_ADC_IsDisableOngoing+0x18>
 8001186:	2301      	movs	r3, #1
 8001188:	e000      	b.n	800118c <LL_ADC_IsDisableOngoing+0x1a>
 800118a:	2300      	movs	r3, #0
}
 800118c:	0018      	movs	r0, r3
 800118e:	46bd      	mov	sp, r7
 8001190:	b002      	add	sp, #8
 8001192:	bd80      	pop	{r7, pc}

08001194 <LL_ADC_REG_StartConversion>:
  * @rmtoll CR       ADSTART        LL_ADC_REG_StartConversion
  * @param  ADCx ADC instance
  * @retval None
  */
__STATIC_INLINE void LL_ADC_REG_StartConversion(ADC_TypeDef *ADCx)
{
 8001194:	b580      	push	{r7, lr}
 8001196:	b082      	sub	sp, #8
 8001198:	af00      	add	r7, sp, #0
 800119a:	6078      	str	r0, [r7, #4]
  /* Note: Write register with some additional bits forced to state reset     */
  /*       instead of modifying only the selected bit for this function,      */
  /*       to not interfere with bits with HW property "rs".                  */
  MODIFY_REG(ADCx->CR,
 800119c:	687b      	ldr	r3, [r7, #4]
 800119e:	689b      	ldr	r3, [r3, #8]
 80011a0:	4a04      	ldr	r2, [pc, #16]	@ (80011b4 <LL_ADC_REG_StartConversion+0x20>)
 80011a2:	4013      	ands	r3, r2
 80011a4:	2204      	movs	r2, #4
 80011a6:	431a      	orrs	r2, r3
 80011a8:	687b      	ldr	r3, [r7, #4]
 80011aa:	609a      	str	r2, [r3, #8]
             ADC_CR_BITS_PROPERTY_RS,
             ADC_CR_ADSTART);
}
 80011ac:	46c0      	nop			@ (mov r8, r8)
 80011ae:	46bd      	mov	sp, r7
 80011b0:	b002      	add	sp, #8
 80011b2:	bd80      	pop	{r7, pc}
 80011b4:	7fffffe8 	.word	0x7fffffe8

080011b8 <LL_ADC_REG_StopConversion>:
  * @rmtoll CR       ADSTP          LL_ADC_REG_StopConversion
  * @param  ADCx ADC instance
  * @retval None
  */
__STATIC_INLINE void LL_ADC_REG_StopConversion(ADC_TypeDef *ADCx)
{
 80011b8:	b580      	push	{r7, lr}
 80011ba:	b082      	sub	sp, #8
 80011bc:	af00      	add	r7, sp, #0
 80011be:	6078      	str	r0, [r7, #4]
  /* Note: Write register with some additional bits forced to state reset     */
  /*       instead of modifying only the selected bit for this function,      */
  /*       to not interfere with bits with HW property "rs".                  */
  MODIFY_REG(ADCx->CR,
 80011c0:	687b      	ldr	r3, [r7, #4]
 80011c2:	689b      	ldr	r3, [r3, #8]
 80011c4:	4a04      	ldr	r2, [pc, #16]	@ (80011d8 <LL_ADC_REG_StopConversion+0x20>)
 80011c6:	4013      	ands	r3, r2
 80011c8:	2210      	movs	r2, #16
 80011ca:	431a      	orrs	r2, r3
 80011cc:	687b      	ldr	r3, [r7, #4]
 80011ce:	609a      	str	r2, [r3, #8]
             ADC_CR_BITS_PROPERTY_RS,
             ADC_CR_ADSTP);
}
 80011d0:	46c0      	nop			@ (mov r8, r8)
 80011d2:	46bd      	mov	sp, r7
 80011d4:	b002      	add	sp, #8
 80011d6:	bd80      	pop	{r7, pc}
 80011d8:	7fffffe8 	.word	0x7fffffe8

080011dc <LL_ADC_REG_IsConversionOngoing>:
  * @rmtoll CR       ADSTART        LL_ADC_REG_IsConversionOngoing
  * @param  ADCx ADC instance
  * @retval 0: no conversion is on going on ADC group regular.
  */
__STATIC_INLINE uint32_t LL_ADC_REG_IsConversionOngoing(const ADC_TypeDef *ADCx)
{
 80011dc:	b580      	push	{r7, lr}
 80011de:	b082      	sub	sp, #8
 80011e0:	af00      	add	r7, sp, #0
 80011e2:	6078      	str	r0, [r7, #4]
  return ((READ_BIT(ADCx->CR, ADC_CR_ADSTART) == (ADC_CR_ADSTART)) ? 1UL : 0UL);
 80011e4:	687b      	ldr	r3, [r7, #4]
 80011e6:	689b      	ldr	r3, [r3, #8]
 80011e8:	2204      	movs	r2, #4
 80011ea:	4013      	ands	r3, r2
 80011ec:	2b04      	cmp	r3, #4
 80011ee:	d101      	bne.n	80011f4 <LL_ADC_REG_IsConversionOngoing+0x18>
 80011f0:	2301      	movs	r3, #1
 80011f2:	e000      	b.n	80011f6 <LL_ADC_REG_IsConversionOngoing+0x1a>
 80011f4:	2300      	movs	r3, #0
}
 80011f6:	0018      	movs	r0, r3
 80011f8:	46bd      	mov	sp, r7
 80011fa:	b002      	add	sp, #8
 80011fc:	bd80      	pop	{r7, pc}
	...

08001200 <HAL_ADC_Init>:
  *         of structure "ADC_InitTypeDef".
  * @param hadc ADC handle
  * @retval HAL status
  */
HAL_StatusTypeDef HAL_ADC_Init(ADC_HandleTypeDef *hadc)
{
 8001200:	b580      	push	{r7, lr}
 8001202:	b088      	sub	sp, #32
 8001204:	af00      	add	r7, sp, #0
 8001206:	6078      	str	r0, [r7, #4]
  HAL_StatusTypeDef tmp_hal_status = HAL_OK;
 8001208:	231f      	movs	r3, #31
 800120a:	18fb      	adds	r3, r7, r3
 800120c:	2200      	movs	r2, #0
 800120e:	701a      	strb	r2, [r3, #0]
  uint32_t tmp_cfgr1 = 0UL;
 8001210:	2300      	movs	r3, #0
 8001212:	61bb      	str	r3, [r7, #24]
  uint32_t tmp_cfgr2 = 0UL;
 8001214:	2300      	movs	r3, #0
 8001216:	617b      	str	r3, [r7, #20]
  uint32_t tmp_adc_reg_is_conversion_on_going;
  __IO uint32_t wait_loop_index = 0UL;
 8001218:	2300      	movs	r3, #0
 800121a:	60fb      	str	r3, [r7, #12]

  /* Check ADC handle */
  if (hadc == NULL)
 800121c:	687b      	ldr	r3, [r7, #4]
 800121e:	2b00      	cmp	r3, #0
 8001220:	d101      	bne.n	8001226 <HAL_ADC_Init+0x26>
  {
    return HAL_ERROR;
 8001222:	2301      	movs	r3, #1
 8001224:	e17f      	b.n	8001526 <HAL_ADC_Init+0x326>
  /* continuous mode is disabled.                                             */
  assert_param(!((hadc->Init.DiscontinuousConvMode == ENABLE) && (hadc->Init.ContinuousConvMode == ENABLE)));

  /* Actions performed only if ADC is coming from state reset:                */
  /* - Initialization of ADC MSP                                              */
  if (hadc->State == HAL_ADC_STATE_RESET)
 8001226:	687b      	ldr	r3, [r7, #4]
 8001228:	6d9b      	ldr	r3, [r3, #88]	@ 0x58
 800122a:	2b00      	cmp	r3, #0
 800122c:	d10a      	bne.n	8001244 <HAL_ADC_Init+0x44>

    /* Init the low level hardware */
    hadc->MspInitCallback(hadc);
#else
    /* Init the low level hardware */
    HAL_ADC_MspInit(hadc);
 800122e:	687b      	ldr	r3, [r7, #4]
 8001230:	0018      	movs	r0, r3
 8001232:	f7ff fa7d 	bl	8000730 <HAL_ADC_MspInit>
#endif /* USE_HAL_ADC_REGISTER_CALLBACKS */

    /* Set ADC error code to none */
    ADC_CLEAR_ERRORCODE(hadc);
 8001236:	687b      	ldr	r3, [r7, #4]
 8001238:	2200      	movs	r2, #0
 800123a:	65da      	str	r2, [r3, #92]	@ 0x5c

    /* Initialize Lock */
    hadc->Lock = HAL_UNLOCKED;
 800123c:	687b      	ldr	r3, [r7, #4]
 800123e:	2254      	movs	r2, #84	@ 0x54
 8001240:	2100      	movs	r1, #0
 8001242:	5499      	strb	r1, [r3, r2]
  }

  if (LL_ADC_IsInternalRegulatorEnabled(hadc->Instance) == 0UL)
 8001244:	687b      	ldr	r3, [r7, #4]
 8001246:	681b      	ldr	r3, [r3, #0]
 8001248:	0018      	movs	r0, r3
 800124a:	f7ff ff49 	bl	80010e0 <LL_ADC_IsInternalRegulatorEnabled>
 800124e:	1e03      	subs	r3, r0, #0
 8001250:	d115      	bne.n	800127e <HAL_ADC_Init+0x7e>
  {
    /* Enable ADC internal voltage regulator */
    LL_ADC_EnableInternalRegulator(hadc->Instance);
 8001252:	687b      	ldr	r3, [r7, #4]
 8001254:	681b      	ldr	r3, [r3, #0]
 8001256:	0018      	movs	r0, r3
 8001258:	f7ff ff2e 	bl	80010b8 <LL_ADC_EnableInternalRegulator>
    /* Delay for ADC stabilization time */
    /* Wait loop initialization and execution */
    /* Note: Variable divided by 2 to compensate partially              */
    /*       CPU processing cycles, scaling in us split to not          */
    /*       exceed 32 bits register capacity and handle low frequency. */
    wait_loop_index = ((LL_ADC_DELAY_INTERNAL_REGUL_STAB_US / 10UL) * ((SystemCoreClock / (100000UL * 2UL)) + 1UL));
 800125c:	4bb4      	ldr	r3, [pc, #720]	@ (8001530 <HAL_ADC_Init+0x330>)
 800125e:	681b      	ldr	r3, [r3, #0]
 8001260:	49b4      	ldr	r1, [pc, #720]	@ (8001534 <HAL_ADC_Init+0x334>)
 8001262:	0018      	movs	r0, r3
 8001264:	f7fe ff58 	bl	8000118 <__udivsi3>
 8001268:	0003      	movs	r3, r0
 800126a:	3301      	adds	r3, #1
 800126c:	005b      	lsls	r3, r3, #1
 800126e:	60fb      	str	r3, [r7, #12]
    while (wait_loop_index != 0UL)
 8001270:	e002      	b.n	8001278 <HAL_ADC_Init+0x78>
    {
      wait_loop_index--;
 8001272:	68fb      	ldr	r3, [r7, #12]
 8001274:	3b01      	subs	r3, #1
 8001276:	60fb      	str	r3, [r7, #12]
    while (wait_loop_index != 0UL)
 8001278:	68fb      	ldr	r3, [r7, #12]
 800127a:	2b00      	cmp	r3, #0
 800127c:	d1f9      	bne.n	8001272 <HAL_ADC_Init+0x72>
  }

  /* Verification that ADC voltage regulator is correctly enabled, whether    */
  /* or not ADC is coming from state reset (if any potential problem of       */
  /* clocking, voltage regulator would not be enabled).                       */
  if (LL_ADC_IsInternalRegulatorEnabled(hadc->Instance) == 0UL)
 800127e:	687b      	ldr	r3, [r7, #4]
 8001280:	681b      	ldr	r3, [r3, #0]
 8001282:	0018      	movs	r0, r3
 8001284:	f7ff ff2c 	bl	80010e0 <LL_ADC_IsInternalRegulatorEnabled>
 8001288:	1e03      	subs	r3, r0, #0
 800128a:	d10f      	bne.n	80012ac <HAL_ADC_Init+0xac>
  {
    /* Update ADC state machine to error */
    SET_BIT(hadc->State, HAL_ADC_STATE_ERROR_INTERNAL);
 800128c:	687b      	ldr	r3, [r7, #4]
 800128e:	6d9b      	ldr	r3, [r3, #88]	@ 0x58
 8001290:	2210      	movs	r2, #16
 8001292:	431a      	orrs	r2, r3
 8001294:	687b      	ldr	r3, [r7, #4]
 8001296:	659a      	str	r2, [r3, #88]	@ 0x58

    /* Set ADC error code to ADC peripheral internal error */
    SET_BIT(hadc->ErrorCode, HAL_ADC_ERROR_INTERNAL);
 8001298:	687b      	ldr	r3, [r7, #4]
 800129a:	6ddb      	ldr	r3, [r3, #92]	@ 0x5c
 800129c:	2201      	movs	r2, #1
 800129e:	431a      	orrs	r2, r3
 80012a0:	687b      	ldr	r3, [r7, #4]
 80012a2:	65da      	str	r2, [r3, #92]	@ 0x5c

    tmp_hal_status = HAL_ERROR;
 80012a4:	231f      	movs	r3, #31
 80012a6:	18fb      	adds	r3, r7, r3
 80012a8:	2201      	movs	r2, #1
 80012aa:	701a      	strb	r2, [r3, #0]

  /* Configuration of ADC parameters if previous preliminary actions are      */
  /* correctly completed and if there is no conversion on going on regular    */
  /* group (ADC may already be enabled at this point if HAL_ADC_Init() is     */
  /* called to update a parameter on the fly).                                */
  tmp_adc_reg_is_conversion_on_going = LL_ADC_REG_IsConversionOngoing(hadc->Instance);
 80012ac:	687b      	ldr	r3, [r7, #4]
 80012ae:	681b      	ldr	r3, [r3, #0]
 80012b0:	0018      	movs	r0, r3
 80012b2:	f7ff ff93 	bl	80011dc <LL_ADC_REG_IsConversionOngoing>
 80012b6:	0003      	movs	r3, r0
 80012b8:	613b      	str	r3, [r7, #16]

  if (((hadc->State & HAL_ADC_STATE_ERROR_INTERNAL) == 0UL)
 80012ba:	687b      	ldr	r3, [r7, #4]
 80012bc:	6d9b      	ldr	r3, [r3, #88]	@ 0x58
 80012be:	2210      	movs	r2, #16
 80012c0:	4013      	ands	r3, r2
 80012c2:	d000      	beq.n	80012c6 <HAL_ADC_Init+0xc6>
 80012c4:	e122      	b.n	800150c <HAL_ADC_Init+0x30c>
      && (tmp_adc_reg_is_conversion_on_going == 0UL)
 80012c6:	693b      	ldr	r3, [r7, #16]
 80012c8:	2b00      	cmp	r3, #0
 80012ca:	d000      	beq.n	80012ce <HAL_ADC_Init+0xce>
 80012cc:	e11e      	b.n	800150c <HAL_ADC_Init+0x30c>
     )
  {
    /* Set ADC state */
    ADC_STATE_CLR_SET(hadc->State,
 80012ce:	687b      	ldr	r3, [r7, #4]
 80012d0:	6d9b      	ldr	r3, [r3, #88]	@ 0x58
 80012d2:	4a99      	ldr	r2, [pc, #612]	@ (8001538 <HAL_ADC_Init+0x338>)
 80012d4:	4013      	ands	r3, r2
 80012d6:	2202      	movs	r2, #2
 80012d8:	431a      	orrs	r2, r3
 80012da:	687b      	ldr	r3, [r7, #4]
 80012dc:	659a      	str	r2, [r3, #88]	@ 0x58
    /*  - DMA continuous request                                              */
    /*  - Trigger frequency mode                                              */
    /* Note: If low power mode AutoPowerOff is enabled, ADC enable            */
    /*       and disable phases are performed automatically by hardware       */
    /*       (in this case, flag ADC_FLAG_RDY is not set).                    */
    if (LL_ADC_IsEnabled(hadc->Instance) == 0UL)
 80012de:	687b      	ldr	r3, [r7, #4]
 80012e0:	681b      	ldr	r3, [r3, #0]
 80012e2:	0018      	movs	r0, r3
 80012e4:	f7ff ff34 	bl	8001150 <LL_ADC_IsEnabled>
 80012e8:	1e03      	subs	r3, r0, #0
 80012ea:	d000      	beq.n	80012ee <HAL_ADC_Init+0xee>
 80012ec:	e0ad      	b.n	800144a <HAL_ADC_Init+0x24a>
      /* without needing to reconfigure all other ADC groups/channels         */
      /* parameters):                                                         */
      /*   - internal measurement paths (VrefInt, ...)                        */
      /*     (set into HAL_ADC_ConfigChannel() )                              */

      tmp_cfgr1 |= (hadc->Init.Resolution                                          |
 80012ee:	687b      	ldr	r3, [r7, #4]
 80012f0:	689a      	ldr	r2, [r3, #8]
                    ADC_CFGR1_AUTOWAIT((uint32_t)hadc->Init.LowPowerAutoWait)      |
 80012f2:	687b      	ldr	r3, [r7, #4]
 80012f4:	7e1b      	ldrb	r3, [r3, #24]
 80012f6:	039b      	lsls	r3, r3, #14
      tmp_cfgr1 |= (hadc->Init.Resolution                                          |
 80012f8:	431a      	orrs	r2, r3
                    ADC_CFGR1_AUTOOFF((uint32_t)hadc->Init.LowPowerAutoPowerOff)   |
 80012fa:	687b      	ldr	r3, [r7, #4]
 80012fc:	7e5b      	ldrb	r3, [r3, #25]
 80012fe:	03db      	lsls	r3, r3, #15
                    ADC_CFGR1_AUTOWAIT((uint32_t)hadc->Init.LowPowerAutoWait)      |
 8001300:	431a      	orrs	r2, r3
                    ADC_CFGR1_CONTINUOUS((uint32_t)hadc->Init.ContinuousConvMode)  |
 8001302:	687b      	ldr	r3, [r7, #4]
 8001304:	7e9b      	ldrb	r3, [r3, #26]
 8001306:	035b      	lsls	r3, r3, #13
                    ADC_CFGR1_AUTOOFF((uint32_t)hadc->Init.LowPowerAutoPowerOff)   |
 8001308:	431a      	orrs	r2, r3
                    ADC_CFGR1_OVERRUN(hadc->Init.Overrun)                          |
 800130a:	687b      	ldr	r3, [r7, #4]
 800130c:	6b1b      	ldr	r3, [r3, #48]	@ 0x30
 800130e:	2b00      	cmp	r3, #0
 8001310:	d002      	beq.n	8001318 <HAL_ADC_Init+0x118>
 8001312:	2380      	movs	r3, #128	@ 0x80
 8001314:	015b      	lsls	r3, r3, #5
 8001316:	e000      	b.n	800131a <HAL_ADC_Init+0x11a>
 8001318:	2300      	movs	r3, #0
                    ADC_CFGR1_CONTINUOUS((uint32_t)hadc->Init.ContinuousConvMode)  |
 800131a:	431a      	orrs	r2, r3
                    hadc->Init.DataAlign                                           |
 800131c:	687b      	ldr	r3, [r7, #4]
 800131e:	68db      	ldr	r3, [r3, #12]
                    ADC_CFGR1_OVERRUN(hadc->Init.Overrun)                          |
 8001320:	431a      	orrs	r2, r3
                    ADC_SCAN_SEQ_MODE(hadc->Init.ScanConvMode)                     |
 8001322:	687b      	ldr	r3, [r7, #4]
 8001324:	691b      	ldr	r3, [r3, #16]
 8001326:	2b00      	cmp	r3, #0
 8001328:	da04      	bge.n	8001334 <HAL_ADC_Init+0x134>
 800132a:	687b      	ldr	r3, [r7, #4]
 800132c:	691b      	ldr	r3, [r3, #16]
 800132e:	005b      	lsls	r3, r3, #1
 8001330:	085b      	lsrs	r3, r3, #1
 8001332:	e001      	b.n	8001338 <HAL_ADC_Init+0x138>
 8001334:	2380      	movs	r3, #128	@ 0x80
 8001336:	039b      	lsls	r3, r3, #14
                    hadc->Init.DataAlign                                           |
 8001338:	431a      	orrs	r2, r3
                    ADC_CFGR1_DMACONTREQ((uint32_t)hadc->Init.DMAContinuousRequests));
 800133a:	687b      	ldr	r3, [r7, #4]
 800133c:	212c      	movs	r1, #44	@ 0x2c
 800133e:	5c5b      	ldrb	r3, [r3, r1]
 8001340:	005b      	lsls	r3, r3, #1
                    ADC_SCAN_SEQ_MODE(hadc->Init.ScanConvMode)                     |
 8001342:	4313      	orrs	r3, r2
      tmp_cfgr1 |= (hadc->Init.Resolution                                          |
 8001344:	69ba      	ldr	r2, [r7, #24]
 8001346:	4313      	orrs	r3, r2
 8001348:	61bb      	str	r3, [r7, #24]

      /* Update setting of discontinuous mode only if continuous mode is disabled */
      if (hadc->Init.DiscontinuousConvMode == ENABLE)
 800134a:	687b      	ldr	r3, [r7, #4]
 800134c:	2220      	movs	r2, #32
 800134e:	5c9b      	ldrb	r3, [r3, r2]
 8001350:	2b01      	cmp	r3, #1
 8001352:	d115      	bne.n	8001380 <HAL_ADC_Init+0x180>
      {
        if (hadc->Init.ContinuousConvMode == DISABLE)
 8001354:	687b      	ldr	r3, [r7, #4]
 8001356:	7e9b      	ldrb	r3, [r3, #26]
 8001358:	2b00      	cmp	r3, #0
 800135a:	d105      	bne.n	8001368 <HAL_ADC_Init+0x168>
        {
          /* Enable the selected ADC group regular discontinuous mode */
          tmp_cfgr1 |= ADC_CFGR1_DISCEN;
 800135c:	69bb      	ldr	r3, [r7, #24]
 800135e:	2280      	movs	r2, #128	@ 0x80
 8001360:	0252      	lsls	r2, r2, #9
 8001362:	4313      	orrs	r3, r2
 8001364:	61bb      	str	r3, [r7, #24]
 8001366:	e00b      	b.n	8001380 <HAL_ADC_Init+0x180>
          /* ADC regular group discontinuous was intended to be enabled,        */
          /* but ADC regular group modes continuous and sequencer discontinuous */
          /* cannot be enabled simultaneously.                                  */

          /* Update ADC state machine to error */
          SET_BIT(hadc->State, HAL_ADC_STATE_ERROR_CONFIG);
 8001368:	687b      	ldr	r3, [r7, #4]
 800136a:	6d9b      	ldr	r3, [r3, #88]	@ 0x58
 800136c:	2220      	movs	r2, #32
 800136e:	431a      	orrs	r2, r3
 8001370:	687b      	ldr	r3, [r7, #4]
 8001372:	659a      	str	r2, [r3, #88]	@ 0x58

          /* Set ADC error code to ADC peripheral internal error */
          SET_BIT(hadc->ErrorCode, HAL_ADC_ERROR_INTERNAL);
 8001374:	687b      	ldr	r3, [r7, #4]
 8001376:	6ddb      	ldr	r3, [r3, #92]	@ 0x5c
 8001378:	2201      	movs	r2, #1
 800137a:	431a      	orrs	r2, r3
 800137c:	687b      	ldr	r3, [r7, #4]
 800137e:	65da      	str	r2, [r3, #92]	@ 0x5c
      /* Enable external trigger if trigger selection is different of software  */
      /* start.                                                                 */
      /* Note: This configuration keeps the hardware feature of parameter       */
      /*       ExternalTrigConvEdge "trigger edge none" equivalent to           */
      /*       software start.                                                  */
      if (hadc->Init.ExternalTrigConv != ADC_SOFTWARE_START)
 8001380:	687b      	ldr	r3, [r7, #4]
 8001382:	6a5b      	ldr	r3, [r3, #36]	@ 0x24
 8001384:	2b00      	cmp	r3, #0
 8001386:	d00a      	beq.n	800139e <HAL_ADC_Init+0x19e>
      {
        tmp_cfgr1 |= ((hadc->Init.ExternalTrigConv & ADC_CFGR1_EXTSEL) |
 8001388:	687b      	ldr	r3, [r7, #4]
 800138a:	6a5a      	ldr	r2, [r3, #36]	@ 0x24
 800138c:	23e0      	movs	r3, #224	@ 0xe0
 800138e:	005b      	lsls	r3, r3, #1
 8001390:	401a      	ands	r2, r3
                      hadc->Init.ExternalTrigConvEdge);
 8001392:	687b      	ldr	r3, [r7, #4]
 8001394:	6a9b      	ldr	r3, [r3, #40]	@ 0x28
        tmp_cfgr1 |= ((hadc->Init.ExternalTrigConv & ADC_CFGR1_EXTSEL) |
 8001396:	4313      	orrs	r3, r2
 8001398:	69ba      	ldr	r2, [r7, #24]
 800139a:	4313      	orrs	r3, r2
 800139c:	61bb      	str	r3, [r7, #24]
      }

      /* Update ADC configuration register with previous settings */
      MODIFY_REG(hadc->Instance->CFGR1,
 800139e:	687b      	ldr	r3, [r7, #4]
 80013a0:	681b      	ldr	r3, [r3, #0]
 80013a2:	68db      	ldr	r3, [r3, #12]
 80013a4:	4a65      	ldr	r2, [pc, #404]	@ (800153c <HAL_ADC_Init+0x33c>)
 80013a6:	4013      	ands	r3, r2
 80013a8:	0019      	movs	r1, r3
 80013aa:	687b      	ldr	r3, [r7, #4]
 80013ac:	681b      	ldr	r3, [r3, #0]
 80013ae:	69ba      	ldr	r2, [r7, #24]
 80013b0:	430a      	orrs	r2, r1
 80013b2:	60da      	str	r2, [r3, #12]
                 ADC_CFGR1_ALIGN     |
                 ADC_CFGR1_SCANDIR   |
                 ADC_CFGR1_DMACFG,
                 tmp_cfgr1);

      tmp_cfgr2 |= ((hadc->Init.ClockPrescaler & ADC_CFGR2_CKMODE) |
 80013b4:	687b      	ldr	r3, [r7, #4]
 80013b6:	685b      	ldr	r3, [r3, #4]
 80013b8:	0f9b      	lsrs	r3, r3, #30
 80013ba:	079a      	lsls	r2, r3, #30
                    hadc->Init.TriggerFrequencyMode
 80013bc:	687b      	ldr	r3, [r7, #4]
 80013be:	6cdb      	ldr	r3, [r3, #76]	@ 0x4c
      tmp_cfgr2 |= ((hadc->Init.ClockPrescaler & ADC_CFGR2_CKMODE) |
 80013c0:	4313      	orrs	r3, r2
 80013c2:	697a      	ldr	r2, [r7, #20]
 80013c4:	4313      	orrs	r3, r2
 80013c6:	617b      	str	r3, [r7, #20]
                   );

      if (hadc->Init.OversamplingMode == ENABLE)
 80013c8:	687b      	ldr	r3, [r7, #4]
 80013ca:	223c      	movs	r2, #60	@ 0x3c
 80013cc:	5c9b      	ldrb	r3, [r3, r2]
 80013ce:	2b01      	cmp	r3, #1
 80013d0:	d111      	bne.n	80013f6 <HAL_ADC_Init+0x1f6>
      {
        tmp_cfgr2 |= (ADC_CFGR2_OVSE |
                      (hadc->Init.ClockPrescaler & ADC_CFGR2_CKMODE) |
 80013d2:	687b      	ldr	r3, [r7, #4]
 80013d4:	685b      	ldr	r3, [r3, #4]
 80013d6:	0f9b      	lsrs	r3, r3, #30
 80013d8:	079a      	lsls	r2, r3, #30
                      hadc->Init.Oversampling.Ratio         |
 80013da:	687b      	ldr	r3, [r7, #4]
 80013dc:	6c1b      	ldr	r3, [r3, #64]	@ 0x40
                      (hadc->Init.ClockPrescaler & ADC_CFGR2_CKMODE) |
 80013de:	431a      	orrs	r2, r3
                      hadc->Init.Oversampling.RightBitShift |
 80013e0:	687b      	ldr	r3, [r7, #4]
 80013e2:	6c5b      	ldr	r3, [r3, #68]	@ 0x44
                      hadc->Init.Oversampling.Ratio         |
 80013e4:	431a      	orrs	r2, r3
                      hadc->Init.Oversampling.TriggeredMode
 80013e6:	687b      	ldr	r3, [r7, #4]
 80013e8:	6c9b      	ldr	r3, [r3, #72]	@ 0x48
                      hadc->Init.Oversampling.RightBitShift |
 80013ea:	431a      	orrs	r2, r3
        tmp_cfgr2 |= (ADC_CFGR2_OVSE |
 80013ec:	697b      	ldr	r3, [r7, #20]
 80013ee:	4313      	orrs	r3, r2
 80013f0:	2201      	movs	r2, #1
 80013f2:	4313      	orrs	r3, r2
 80013f4:	617b      	str	r3, [r7, #20]
                     );
      }

      MODIFY_REG(hadc->Instance->CFGR2,
 80013f6:	687b      	ldr	r3, [r7, #4]
 80013f8:	681b      	ldr	r3, [r3, #0]
 80013fa:	691b      	ldr	r3, [r3, #16]
 80013fc:	4a50      	ldr	r2, [pc, #320]	@ (8001540 <HAL_ADC_Init+0x340>)
 80013fe:	4013      	ands	r3, r2
 8001400:	0019      	movs	r1, r3
 8001402:	687b      	ldr	r3, [r7, #4]
 8001404:	681b      	ldr	r3, [r3, #0]
 8001406:	697a      	ldr	r2, [r7, #20]
 8001408:	430a      	orrs	r2, r1
 800140a:	611a      	str	r2, [r3, #16]
                 ADC_CFGR2_TOVS,
                 tmp_cfgr2);

      /* Configuration of ADC clock mode: asynchronous clock source           */
      /* with selectable prescaler.                                           */
      if (((hadc->Init.ClockPrescaler) != ADC_CLOCK_SYNC_PCLK_DIV1) &&
 800140c:	687b      	ldr	r3, [r7, #4]
 800140e:	685a      	ldr	r2, [r3, #4]
 8001410:	23c0      	movs	r3, #192	@ 0xc0
 8001412:	061b      	lsls	r3, r3, #24
 8001414:	429a      	cmp	r2, r3
 8001416:	d018      	beq.n	800144a <HAL_ADC_Init+0x24a>
          ((hadc->Init.ClockPrescaler) != ADC_CLOCK_SYNC_PCLK_DIV2) &&
 8001418:	687b      	ldr	r3, [r7, #4]
 800141a:	685a      	ldr	r2, [r3, #4]
      if (((hadc->Init.ClockPrescaler) != ADC_CLOCK_SYNC_PCLK_DIV1) &&
 800141c:	2380      	movs	r3, #128	@ 0x80
 800141e:	05db      	lsls	r3, r3, #23
 8001420:	429a      	cmp	r2, r3
 8001422:	d012      	beq.n	800144a <HAL_ADC_Init+0x24a>
          ((hadc->Init.ClockPrescaler) != ADC_CLOCK_SYNC_PCLK_DIV4))
 8001424:	687b      	ldr	r3, [r7, #4]
 8001426:	685a      	ldr	r2, [r3, #4]
          ((hadc->Init.ClockPrescaler) != ADC_CLOCK_SYNC_PCLK_DIV2) &&
 8001428:	2380      	movs	r3, #128	@ 0x80
 800142a:	061b      	lsls	r3, r3, #24
 800142c:	429a      	cmp	r2, r3
 800142e:	d00c      	beq.n	800144a <HAL_ADC_Init+0x24a>
      {
        MODIFY_REG(ADC1_COMMON->CCR,
 8001430:	4b44      	ldr	r3, [pc, #272]	@ (8001544 <HAL_ADC_Init+0x344>)
 8001432:	681b      	ldr	r3, [r3, #0]
 8001434:	4a44      	ldr	r2, [pc, #272]	@ (8001548 <HAL_ADC_Init+0x348>)
 8001436:	4013      	ands	r3, r2
 8001438:	0019      	movs	r1, r3
 800143a:	687b      	ldr	r3, [r7, #4]
 800143c:	685a      	ldr	r2, [r3, #4]
 800143e:	23f0      	movs	r3, #240	@ 0xf0
 8001440:	039b      	lsls	r3, r3, #14
 8001442:	401a      	ands	r2, r3
 8001444:	4b3f      	ldr	r3, [pc, #252]	@ (8001544 <HAL_ADC_Init+0x344>)
 8001446:	430a      	orrs	r2, r1
 8001448:	601a      	str	r2, [r3, #0]
                   hadc->Init.ClockPrescaler & ADC_CCR_PRESC);
      }
    }

    /* Channel sampling time configuration */
    LL_ADC_SetSamplingTimeCommonChannels(hadc->Instance, LL_ADC_SAMPLINGTIME_COMMON_1, hadc->Init.SamplingTimeCommon1);
 800144a:	687b      	ldr	r3, [r7, #4]
 800144c:	6818      	ldr	r0, [r3, #0]
 800144e:	687b      	ldr	r3, [r7, #4]
 8001450:	6b5b      	ldr	r3, [r3, #52]	@ 0x34
 8001452:	001a      	movs	r2, r3
 8001454:	2100      	movs	r1, #0
 8001456:	f7ff fd8a 	bl	8000f6e <LL_ADC_SetSamplingTimeCommonChannels>
    LL_ADC_SetSamplingTimeCommonChannels(hadc->Instance, LL_ADC_SAMPLINGTIME_COMMON_2, hadc->Init.SamplingTimeCommon2);
 800145a:	687b      	ldr	r3, [r7, #4]
 800145c:	6818      	ldr	r0, [r3, #0]
 800145e:	687b      	ldr	r3, [r7, #4]
 8001460:	6b9b      	ldr	r3, [r3, #56]	@ 0x38
 8001462:	493a      	ldr	r1, [pc, #232]	@ (800154c <HAL_ADC_Init+0x34c>)
 8001464:	001a      	movs	r2, r3
 8001466:	f7ff fd82 	bl	8000f6e <LL_ADC_SetSamplingTimeCommonChannels>
    /*   emulated by software for alignment over all STM32 devices.           */
    /* - if scan mode is enabled, regular channels sequence length is set to  */
    /*   parameter "NbrOfConversion".                                         */
    /*   Channels must be configured into each rank using function            */
    /*   "HAL_ADC_ConfigChannel()".                                           */
    if (hadc->Init.ScanConvMode == ADC_SCAN_DISABLE)
 800146a:	687b      	ldr	r3, [r7, #4]
 800146c:	691b      	ldr	r3, [r3, #16]
 800146e:	2b00      	cmp	r3, #0
 8001470:	d109      	bne.n	8001486 <HAL_ADC_Init+0x286>
    {
      /* Set sequencer scan length by clearing ranks above rank 1             */
      /* and do not modify rank 1 value.                                      */
      SET_BIT(hadc->Instance->CHSELR,
 8001472:	687b      	ldr	r3, [r7, #4]
 8001474:	681b      	ldr	r3, [r3, #0]
 8001476:	6a9a      	ldr	r2, [r3, #40]	@ 0x28
 8001478:	687b      	ldr	r3, [r7, #4]
 800147a:	681b      	ldr	r3, [r3, #0]
 800147c:	2110      	movs	r1, #16
 800147e:	4249      	negs	r1, r1
 8001480:	430a      	orrs	r2, r1
 8001482:	629a      	str	r2, [r3, #40]	@ 0x28
 8001484:	e018      	b.n	80014b8 <HAL_ADC_Init+0x2b8>
              ADC_CHSELR_SQ2_TO_SQ8);
    }
    else if (hadc->Init.ScanConvMode == ADC_SCAN_ENABLE)
 8001486:	687b      	ldr	r3, [r7, #4]
 8001488:	691a      	ldr	r2, [r3, #16]
 800148a:	2380      	movs	r3, #128	@ 0x80
 800148c:	039b      	lsls	r3, r3, #14
 800148e:	429a      	cmp	r2, r3
 8001490:	d112      	bne.n	80014b8 <HAL_ADC_Init+0x2b8>
      /*          therefore after the first call of "HAL_ADC_Init()",       */
      /*          each rank corresponding to parameter "NbrOfConversion"    */
      /*          must be set using "HAL_ADC_ConfigChannel()".              */
      /*  - Set sequencer scan length by clearing ranks above maximum rank  */
      /*    and do not modify other ranks value.                            */
      MODIFY_REG(hadc->Instance->CHSELR,
 8001492:	687b      	ldr	r3, [r7, #4]
 8001494:	681b      	ldr	r3, [r3, #0]
 8001496:	6a9b      	ldr	r3, [r3, #40]	@ 0x28
 8001498:	687b      	ldr	r3, [r7, #4]
 800149a:	69db      	ldr	r3, [r3, #28]
 800149c:	3b01      	subs	r3, #1
 800149e:	009b      	lsls	r3, r3, #2
 80014a0:	221c      	movs	r2, #28
 80014a2:	4013      	ands	r3, r2
 80014a4:	2210      	movs	r2, #16
 80014a6:	4252      	negs	r2, r2
 80014a8:	409a      	lsls	r2, r3
 80014aa:	0011      	movs	r1, r2
 80014ac:	687b      	ldr	r3, [r7, #4]
 80014ae:	6e1a      	ldr	r2, [r3, #96]	@ 0x60
 80014b0:	687b      	ldr	r3, [r7, #4]
 80014b2:	681b      	ldr	r3, [r3, #0]
 80014b4:	430a      	orrs	r2, r1
 80014b6:	629a      	str	r2, [r3, #40]	@ 0x28
      /* Nothing to do */
    }

    /* Check back that ADC registers have effectively been configured to      */
    /* ensure of no potential problem of ADC core peripheral clocking.        */
    if (LL_ADC_GetSamplingTimeCommonChannels(hadc->Instance, LL_ADC_SAMPLINGTIME_COMMON_1)
 80014b8:	687b      	ldr	r3, [r7, #4]
 80014ba:	681b      	ldr	r3, [r3, #0]
 80014bc:	2100      	movs	r1, #0
 80014be:	0018      	movs	r0, r3
 80014c0:	f7ff fd72 	bl	8000fa8 <LL_ADC_GetSamplingTimeCommonChannels>
 80014c4:	0002      	movs	r2, r0
        == hadc->Init.SamplingTimeCommon1)
 80014c6:	687b      	ldr	r3, [r7, #4]
 80014c8:	6b5b      	ldr	r3, [r3, #52]	@ 0x34
    if (LL_ADC_GetSamplingTimeCommonChannels(hadc->Instance, LL_ADC_SAMPLINGTIME_COMMON_1)
 80014ca:	429a      	cmp	r2, r3
 80014cc:	d10b      	bne.n	80014e6 <HAL_ADC_Init+0x2e6>
    {
      /* Set ADC error code to none */
      ADC_CLEAR_ERRORCODE(hadc);
 80014ce:	687b      	ldr	r3, [r7, #4]
 80014d0:	2200      	movs	r2, #0
 80014d2:	65da      	str	r2, [r3, #92]	@ 0x5c

      /* Set the ADC state */
      ADC_STATE_CLR_SET(hadc->State,
 80014d4:	687b      	ldr	r3, [r7, #4]
 80014d6:	6d9b      	ldr	r3, [r3, #88]	@ 0x58
 80014d8:	2203      	movs	r2, #3
 80014da:	4393      	bics	r3, r2
 80014dc:	2201      	movs	r2, #1
 80014de:	431a      	orrs	r2, r3
 80014e0:	687b      	ldr	r3, [r7, #4]
 80014e2:	659a      	str	r2, [r3, #88]	@ 0x58
    if (LL_ADC_GetSamplingTimeCommonChannels(hadc->Instance, LL_ADC_SAMPLINGTIME_COMMON_1)
 80014e4:	e01c      	b.n	8001520 <HAL_ADC_Init+0x320>
                        HAL_ADC_STATE_READY);
    }
    else
    {
      /* Update ADC state machine to error */
      ADC_STATE_CLR_SET(hadc->State,
 80014e6:	687b      	ldr	r3, [r7, #4]
 80014e8:	6d9b      	ldr	r3, [r3, #88]	@ 0x58
 80014ea:	2212      	movs	r2, #18
 80014ec:	4393      	bics	r3, r2
 80014ee:	2210      	movs	r2, #16
 80014f0:	431a      	orrs	r2, r3
 80014f2:	687b      	ldr	r3, [r7, #4]
 80014f4:	659a      	str	r2, [r3, #88]	@ 0x58
                        HAL_ADC_STATE_BUSY_INTERNAL,
                        HAL_ADC_STATE_ERROR_INTERNAL);

      /* Set ADC error code to ADC peripheral internal error */
      SET_BIT(hadc->ErrorCode, HAL_ADC_ERROR_INTERNAL);
 80014f6:	687b      	ldr	r3, [r7, #4]
 80014f8:	6ddb      	ldr	r3, [r3, #92]	@ 0x5c
 80014fa:	2201      	movs	r2, #1
 80014fc:	431a      	orrs	r2, r3
 80014fe:	687b      	ldr	r3, [r7, #4]
 8001500:	65da      	str	r2, [r3, #92]	@ 0x5c

      tmp_hal_status = HAL_ERROR;
 8001502:	231f      	movs	r3, #31
 8001504:	18fb      	adds	r3, r7, r3
 8001506:	2201      	movs	r2, #1
 8001508:	701a      	strb	r2, [r3, #0]
    if (LL_ADC_GetSamplingTimeCommonChannels(hadc->Instance, LL_ADC_SAMPLINGTIME_COMMON_1)
 800150a:	e009      	b.n	8001520 <HAL_ADC_Init+0x320>

  }
  else
  {
    /* Update ADC state machine to error */
    SET_BIT(hadc->State, HAL_ADC_STATE_ERROR_INTERNAL);
 800150c:	687b      	ldr	r3, [r7, #4]
 800150e:	6d9b      	ldr	r3, [r3, #88]	@ 0x58
 8001510:	2210      	movs	r2, #16
 8001512:	431a      	orrs	r2, r3
 8001514:	687b      	ldr	r3, [r7, #4]
 8001516:	659a      	str	r2, [r3, #88]	@ 0x58

    tmp_hal_status = HAL_ERROR;
 8001518:	231f      	movs	r3, #31
 800151a:	18fb      	adds	r3, r7, r3
 800151c:	2201      	movs	r2, #1
 800151e:	701a      	strb	r2, [r3, #0]
  }

  return tmp_hal_status;
 8001520:	231f      	movs	r3, #31
 8001522:	18fb      	adds	r3, r7, r3
 8001524:	781b      	ldrb	r3, [r3, #0]
}
 8001526:	0018      	movs	r0, r3
 8001528:	46bd      	mov	sp, r7
 800152a:	b008      	add	sp, #32
 800152c:	bd80      	pop	{r7, pc}
 800152e:	46c0      	nop			@ (mov r8, r8)
 8001530:	20000000 	.word	0x20000000
 8001534:	00030d40 	.word	0x00030d40
 8001538:	fffffefd 	.word	0xfffffefd
 800153c:	ffde0201 	.word	0xffde0201
 8001540:	1ffffc02 	.word	0x1ffffc02
 8001544:	40012708 	.word	0x40012708
 8001548:	ffc3ffff 	.word	0xffc3ffff
 800154c:	07ffff04 	.word	0x07ffff04

08001550 <HAL_ADC_Start_DMA>:
  * @param pData Destination Buffer address.
  * @param Length Number of data to be transferred from ADC peripheral to memory
  * @retval HAL status.
  */
HAL_StatusTypeDef HAL_ADC_Start_DMA(ADC_HandleTypeDef *hadc, uint32_t *pData, uint32_t Length)
{
 8001550:	b5b0      	push	{r4, r5, r7, lr}
 8001552:	b086      	sub	sp, #24
 8001554:	af00      	add	r7, sp, #0
 8001556:	60f8      	str	r0, [r7, #12]
 8001558:	60b9      	str	r1, [r7, #8]
 800155a:	607a      	str	r2, [r7, #4]

  /* Check the parameters */
  assert_param(IS_ADC_ALL_INSTANCE(hadc->Instance));

  /* Perform ADC enable and conversion start if no conversion is on going */
  if (LL_ADC_REG_IsConversionOngoing(hadc->Instance) == 0UL)
 800155c:	68fb      	ldr	r3, [r7, #12]
 800155e:	681b      	ldr	r3, [r3, #0]
 8001560:	0018      	movs	r0, r3
 8001562:	f7ff fe3b 	bl	80011dc <LL_ADC_REG_IsConversionOngoing>
 8001566:	1e03      	subs	r3, r0, #0
 8001568:	d16c      	bne.n	8001644 <HAL_ADC_Start_DMA+0xf4>
  {
    __HAL_LOCK(hadc);
 800156a:	68fb      	ldr	r3, [r7, #12]
 800156c:	2254      	movs	r2, #84	@ 0x54
 800156e:	5c9b      	ldrb	r3, [r3, r2]
 8001570:	2b01      	cmp	r3, #1
 8001572:	d101      	bne.n	8001578 <HAL_ADC_Start_DMA+0x28>
 8001574:	2302      	movs	r3, #2
 8001576:	e06c      	b.n	8001652 <HAL_ADC_Start_DMA+0x102>
 8001578:	68fb      	ldr	r3, [r7, #12]
 800157a:	2254      	movs	r2, #84	@ 0x54
 800157c:	2101      	movs	r1, #1
 800157e:	5499      	strb	r1, [r3, r2]

    /* Specific case for first call occurrence of this function (DMA transfer */
    /* not activated and ADC disabled), DMA transfer must be activated        */
    /* with ADC disabled.                                                     */
    if ((hadc->Instance->CFGR1 & ADC_CFGR1_DMAEN) == 0UL)
 8001580:	68fb      	ldr	r3, [r7, #12]
 8001582:	681b      	ldr	r3, [r3, #0]
 8001584:	68db      	ldr	r3, [r3, #12]
 8001586:	2201      	movs	r2, #1
 8001588:	4013      	ands	r3, r2
 800158a:	d113      	bne.n	80015b4 <HAL_ADC_Start_DMA+0x64>
    {
      if (LL_ADC_IsEnabled(hadc->Instance) != 0UL)
 800158c:	68fb      	ldr	r3, [r7, #12]
 800158e:	681b      	ldr	r3, [r3, #0]
 8001590:	0018      	movs	r0, r3
 8001592:	f7ff fddd 	bl	8001150 <LL_ADC_IsEnabled>
 8001596:	1e03      	subs	r3, r0, #0
 8001598:	d004      	beq.n	80015a4 <HAL_ADC_Start_DMA+0x54>
      {
        /* Disable ADC */
        LL_ADC_Disable(hadc->Instance);
 800159a:	68fb      	ldr	r3, [r7, #12]
 800159c:	681b      	ldr	r3, [r3, #0]
 800159e:	0018      	movs	r0, r3
 80015a0:	f7ff fdc4 	bl	800112c <LL_ADC_Disable>
      }

      /* Enable ADC DMA mode */
      hadc->Instance->CFGR1 |= ADC_CFGR1_DMAEN;
 80015a4:	68fb      	ldr	r3, [r7, #12]
 80015a6:	681b      	ldr	r3, [r3, #0]
 80015a8:	68da      	ldr	r2, [r3, #12]
 80015aa:	68fb      	ldr	r3, [r7, #12]
 80015ac:	681b      	ldr	r3, [r3, #0]
 80015ae:	2101      	movs	r1, #1
 80015b0:	430a      	orrs	r2, r1
 80015b2:	60da      	str	r2, [r3, #12]
    }

    /* Enable the ADC peripheral */
    tmp_hal_status = ADC_Enable(hadc);
 80015b4:	2517      	movs	r5, #23
 80015b6:	197c      	adds	r4, r7, r5
 80015b8:	68fb      	ldr	r3, [r7, #12]
 80015ba:	0018      	movs	r0, r3
 80015bc:	f000 faf2 	bl	8001ba4 <ADC_Enable>
 80015c0:	0003      	movs	r3, r0
 80015c2:	7023      	strb	r3, [r4, #0]

    /* Start conversion if ADC is effectively enabled */
    if (tmp_hal_status == HAL_OK)
 80015c4:	002c      	movs	r4, r5
 80015c6:	193b      	adds	r3, r7, r4
 80015c8:	781b      	ldrb	r3, [r3, #0]
 80015ca:	2b00      	cmp	r3, #0
 80015cc:	d13e      	bne.n	800164c <HAL_ADC_Start_DMA+0xfc>
    {
      /* Set ADC state                                                        */
      /* - Clear state bitfield related to regular group conversion results   */
      /* - Set state bitfield related to regular operation                    */
      ADC_STATE_CLR_SET(hadc->State,
 80015ce:	68fb      	ldr	r3, [r7, #12]
 80015d0:	6d9b      	ldr	r3, [r3, #88]	@ 0x58
 80015d2:	4a22      	ldr	r2, [pc, #136]	@ (800165c <HAL_ADC_Start_DMA+0x10c>)
 80015d4:	4013      	ands	r3, r2
 80015d6:	2280      	movs	r2, #128	@ 0x80
 80015d8:	0052      	lsls	r2, r2, #1
 80015da:	431a      	orrs	r2, r3
 80015dc:	68fb      	ldr	r3, [r7, #12]
 80015de:	659a      	str	r2, [r3, #88]	@ 0x58
                        HAL_ADC_STATE_READY | HAL_ADC_STATE_REG_EOC | HAL_ADC_STATE_REG_OVR | HAL_ADC_STATE_REG_EOSMP,
                        HAL_ADC_STATE_REG_BUSY);

      /* Set ADC error code */
      /* Reset all ADC error code fields */
      ADC_CLEAR_ERRORCODE(hadc);
 80015e0:	68fb      	ldr	r3, [r7, #12]
 80015e2:	2200      	movs	r2, #0
 80015e4:	65da      	str	r2, [r3, #92]	@ 0x5c

      /* Set the DMA transfer complete callback */
      hadc->DMA_Handle->XferCpltCallback = ADC_DMAConvCplt;
 80015e6:	68fb      	ldr	r3, [r7, #12]
 80015e8:	6d1b      	ldr	r3, [r3, #80]	@ 0x50
 80015ea:	4a1d      	ldr	r2, [pc, #116]	@ (8001660 <HAL_ADC_Start_DMA+0x110>)
 80015ec:	62da      	str	r2, [r3, #44]	@ 0x2c

      /* Set the DMA half transfer complete callback */
      hadc->DMA_Handle->XferHalfCpltCallback = ADC_DMAHalfConvCplt;
 80015ee:	68fb      	ldr	r3, [r7, #12]
 80015f0:	6d1b      	ldr	r3, [r3, #80]	@ 0x50
 80015f2:	4a1c      	ldr	r2, [pc, #112]	@ (8001664 <HAL_ADC_Start_DMA+0x114>)
 80015f4:	631a      	str	r2, [r3, #48]	@ 0x30

      /* Set the DMA error callback */
      hadc->DMA_Handle->XferErrorCallback = ADC_DMAError;
 80015f6:	68fb      	ldr	r3, [r7, #12]
 80015f8:	6d1b      	ldr	r3, [r3, #80]	@ 0x50
 80015fa:	4a1b      	ldr	r2, [pc, #108]	@ (8001668 <HAL_ADC_Start_DMA+0x118>)
 80015fc:	635a      	str	r2, [r3, #52]	@ 0x34
      /* start (in case of SW start):                                         */

      /* Clear regular group conversion flag and overrun flag */
      /* (To ensure of no unknown state from potential previous ADC           */
      /* operations)                                                          */
      __HAL_ADC_CLEAR_FLAG(hadc, (ADC_FLAG_EOC | ADC_FLAG_EOS | ADC_FLAG_OVR));
 80015fe:	68fb      	ldr	r3, [r7, #12]
 8001600:	681b      	ldr	r3, [r3, #0]
 8001602:	221c      	movs	r2, #28
 8001604:	601a      	str	r2, [r3, #0]

      /* Process unlocked */
      /* Unlock before starting ADC conversions: in case of potential         */
      /* interruption, to let the process to ADC IRQ Handler.                 */
      __HAL_UNLOCK(hadc);
 8001606:	68fb      	ldr	r3, [r7, #12]
 8001608:	2254      	movs	r2, #84	@ 0x54
 800160a:	2100      	movs	r1, #0
 800160c:	5499      	strb	r1, [r3, r2]

      /* Enable ADC overrun interrupt */
      __HAL_ADC_ENABLE_IT(hadc, ADC_IT_OVR);
 800160e:	68fb      	ldr	r3, [r7, #12]
 8001610:	681b      	ldr	r3, [r3, #0]
 8001612:	685a      	ldr	r2, [r3, #4]
 8001614:	68fb      	ldr	r3, [r7, #12]
 8001616:	681b      	ldr	r3, [r3, #0]
 8001618:	2110      	movs	r1, #16
 800161a:	430a      	orrs	r2, r1
 800161c:	605a      	str	r2, [r3, #4]

      /* Start the DMA channel */
      tmp_hal_status = HAL_DMA_Start_IT(hadc->DMA_Handle, (uint32_t)&hadc->Instance->DR, (uint32_t)pData, Length);
 800161e:	68fb      	ldr	r3, [r7, #12]
 8001620:	6d18      	ldr	r0, [r3, #80]	@ 0x50
 8001622:	68fb      	ldr	r3, [r7, #12]
 8001624:	681b      	ldr	r3, [r3, #0]
 8001626:	3340      	adds	r3, #64	@ 0x40
 8001628:	0019      	movs	r1, r3
 800162a:	68ba      	ldr	r2, [r7, #8]
 800162c:	193c      	adds	r4, r7, r4
 800162e:	687b      	ldr	r3, [r7, #4]
 8001630:	f000 ff26 	bl	8002480 <HAL_DMA_Start_IT>
 8001634:	0003      	movs	r3, r0
 8001636:	7023      	strb	r3, [r4, #0]
      /* Enable conversion of regular group.                                  */
      /* If software start has been selected, conversion starts immediately.  */
      /* If external trigger has been selected, conversion will start at next */
      /* trigger event.                                                       */
      /* Start ADC group regular conversion */
      LL_ADC_REG_StartConversion(hadc->Instance);
 8001638:	68fb      	ldr	r3, [r7, #12]
 800163a:	681b      	ldr	r3, [r3, #0]
 800163c:	0018      	movs	r0, r3
 800163e:	f7ff fda9 	bl	8001194 <LL_ADC_REG_StartConversion>
 8001642:	e003      	b.n	800164c <HAL_ADC_Start_DMA+0xfc>
    }
  }
  else
  {
    tmp_hal_status = HAL_BUSY;
 8001644:	2317      	movs	r3, #23
 8001646:	18fb      	adds	r3, r7, r3
 8001648:	2202      	movs	r2, #2
 800164a:	701a      	strb	r2, [r3, #0]
  }

  return tmp_hal_status;
 800164c:	2317      	movs	r3, #23
 800164e:	18fb      	adds	r3, r7, r3
 8001650:	781b      	ldrb	r3, [r3, #0]
}
 8001652:	0018      	movs	r0, r3
 8001654:	46bd      	mov	sp, r7
 8001656:	b006      	add	sp, #24
 8001658:	bdb0      	pop	{r4, r5, r7, pc}
 800165a:	46c0      	nop			@ (mov r8, r8)
 800165c:	fffff0fe 	.word	0xfffff0fe
 8001660:	08001d6d 	.word	0x08001d6d
 8001664:	08001e35 	.word	0x08001e35
 8001668:	08001e53 	.word	0x08001e53

0800166c <HAL_ADC_Stop_DMA>:
  *         ADC peripheral.
  * @param hadc ADC handle
  * @retval HAL status.
  */
HAL_StatusTypeDef HAL_ADC_Stop_DMA(ADC_HandleTypeDef *hadc)
{
 800166c:	b5b0      	push	{r4, r5, r7, lr}
 800166e:	b084      	sub	sp, #16
 8001670:	af00      	add	r7, sp, #0
 8001672:	6078      	str	r0, [r7, #4]
  HAL_StatusTypeDef tmp_hal_status;

  /* Check the parameters */
  assert_param(IS_ADC_ALL_INSTANCE(hadc->Instance));

  __HAL_LOCK(hadc);
 8001674:	687b      	ldr	r3, [r7, #4]
 8001676:	2254      	movs	r2, #84	@ 0x54
 8001678:	5c9b      	ldrb	r3, [r3, r2]
 800167a:	2b01      	cmp	r3, #1
 800167c:	d101      	bne.n	8001682 <HAL_ADC_Stop_DMA+0x16>
 800167e:	2302      	movs	r3, #2
 8001680:	e05f      	b.n	8001742 <HAL_ADC_Stop_DMA+0xd6>
 8001682:	687b      	ldr	r3, [r7, #4]
 8001684:	2254      	movs	r2, #84	@ 0x54
 8001686:	2101      	movs	r1, #1
 8001688:	5499      	strb	r1, [r3, r2]

  /* 1. Stop potential ADC group regular conversion on going */
  tmp_hal_status = ADC_ConversionStop(hadc);
 800168a:	250f      	movs	r5, #15
 800168c:	197c      	adds	r4, r7, r5
 800168e:	687b      	ldr	r3, [r7, #4]
 8001690:	0018      	movs	r0, r3
 8001692:	f000 fa45 	bl	8001b20 <ADC_ConversionStop>
 8001696:	0003      	movs	r3, r0
 8001698:	7023      	strb	r3, [r4, #0]

  /* Disable ADC peripheral if conversions are effectively stopped */
  if (tmp_hal_status == HAL_OK)
 800169a:	0029      	movs	r1, r5
 800169c:	187b      	adds	r3, r7, r1
 800169e:	781b      	ldrb	r3, [r3, #0]
 80016a0:	2b00      	cmp	r3, #0
 80016a2:	d147      	bne.n	8001734 <HAL_ADC_Stop_DMA+0xc8>
  {
    /* Disable the DMA channel (in case of DMA in circular mode or stop       */
    /* while DMA transfer is on going)                                        */
    if (hadc->DMA_Handle->State == HAL_DMA_STATE_BUSY)
 80016a4:	687b      	ldr	r3, [r7, #4]
 80016a6:	6d1b      	ldr	r3, [r3, #80]	@ 0x50
 80016a8:	2225      	movs	r2, #37	@ 0x25
 80016aa:	5c9b      	ldrb	r3, [r3, r2]
 80016ac:	b2db      	uxtb	r3, r3
 80016ae:	2b02      	cmp	r3, #2
 80016b0:	d112      	bne.n	80016d8 <HAL_ADC_Stop_DMA+0x6c>
    {
      tmp_hal_status = HAL_DMA_Abort(hadc->DMA_Handle);
 80016b2:	687b      	ldr	r3, [r7, #4]
 80016b4:	6d1b      	ldr	r3, [r3, #80]	@ 0x50
 80016b6:	000d      	movs	r5, r1
 80016b8:	187c      	adds	r4, r7, r1
 80016ba:	0018      	movs	r0, r3
 80016bc:	f000 ff66 	bl	800258c <HAL_DMA_Abort>
 80016c0:	0003      	movs	r3, r0
 80016c2:	7023      	strb	r3, [r4, #0]

      /* Check if DMA channel effectively disabled */
      if (tmp_hal_status != HAL_OK)
 80016c4:	197b      	adds	r3, r7, r5
 80016c6:	781b      	ldrb	r3, [r3, #0]
 80016c8:	2b00      	cmp	r3, #0
 80016ca:	d005      	beq.n	80016d8 <HAL_ADC_Stop_DMA+0x6c>
      {
        /* Update ADC state machine to error */
        SET_BIT(hadc->State, HAL_ADC_STATE_ERROR_DMA);
 80016cc:	687b      	ldr	r3, [r7, #4]
 80016ce:	6d9b      	ldr	r3, [r3, #88]	@ 0x58
 80016d0:	2240      	movs	r2, #64	@ 0x40
 80016d2:	431a      	orrs	r2, r3
 80016d4:	687b      	ldr	r3, [r7, #4]
 80016d6:	659a      	str	r2, [r3, #88]	@ 0x58
      }
    }

    /* Disable ADC overrun interrupt */
    __HAL_ADC_DISABLE_IT(hadc, ADC_IT_OVR);
 80016d8:	687b      	ldr	r3, [r7, #4]
 80016da:	681b      	ldr	r3, [r3, #0]
 80016dc:	685a      	ldr	r2, [r3, #4]
 80016de:	687b      	ldr	r3, [r7, #4]
 80016e0:	681b      	ldr	r3, [r3, #0]
 80016e2:	2110      	movs	r1, #16
 80016e4:	438a      	bics	r2, r1
 80016e6:	605a      	str	r2, [r3, #4]

    /* 2. Disable the ADC peripheral */
    /* Update "tmp_hal_status" only if DMA channel disabling passed,          */
    /* to keep in memory a potential failing status.                          */
    if (tmp_hal_status == HAL_OK)
 80016e8:	220f      	movs	r2, #15
 80016ea:	18bb      	adds	r3, r7, r2
 80016ec:	781b      	ldrb	r3, [r3, #0]
 80016ee:	2b00      	cmp	r3, #0
 80016f0:	d107      	bne.n	8001702 <HAL_ADC_Stop_DMA+0x96>
    {
      tmp_hal_status = ADC_Disable(hadc);
 80016f2:	18bc      	adds	r4, r7, r2
 80016f4:	687b      	ldr	r3, [r7, #4]
 80016f6:	0018      	movs	r0, r3
 80016f8:	f000 fada 	bl	8001cb0 <ADC_Disable>
 80016fc:	0003      	movs	r3, r0
 80016fe:	7023      	strb	r3, [r4, #0]
 8001700:	e003      	b.n	800170a <HAL_ADC_Stop_DMA+0x9e>
    }
    else
    {
      (void)ADC_Disable(hadc);
 8001702:	687b      	ldr	r3, [r7, #4]
 8001704:	0018      	movs	r0, r3
 8001706:	f000 fad3 	bl	8001cb0 <ADC_Disable>
    }

    /* Check if ADC is effectively disabled */
    if (tmp_hal_status == HAL_OK)
 800170a:	230f      	movs	r3, #15
 800170c:	18fb      	adds	r3, r7, r3
 800170e:	781b      	ldrb	r3, [r3, #0]
 8001710:	2b00      	cmp	r3, #0
 8001712:	d107      	bne.n	8001724 <HAL_ADC_Stop_DMA+0xb8>
    {
      /* Set ADC state */
      ADC_STATE_CLR_SET(hadc->State,
 8001714:	687b      	ldr	r3, [r7, #4]
 8001716:	6d9b      	ldr	r3, [r3, #88]	@ 0x58
 8001718:	4a0c      	ldr	r2, [pc, #48]	@ (800174c <HAL_ADC_Stop_DMA+0xe0>)
 800171a:	4013      	ands	r3, r2
 800171c:	2201      	movs	r2, #1
 800171e:	431a      	orrs	r2, r3
 8001720:	687b      	ldr	r3, [r7, #4]
 8001722:	659a      	str	r2, [r3, #88]	@ 0x58
                        HAL_ADC_STATE_REG_BUSY,
                        HAL_ADC_STATE_READY);
    }

    /* Disable ADC DMA (ADC DMA configuration of continuous requests is kept) */
    CLEAR_BIT(hadc->Instance->CFGR1, ADC_CFGR1_DMAEN);
 8001724:	687b      	ldr	r3, [r7, #4]
 8001726:	681b      	ldr	r3, [r3, #0]
 8001728:	68da      	ldr	r2, [r3, #12]
 800172a:	687b      	ldr	r3, [r7, #4]
 800172c:	681b      	ldr	r3, [r3, #0]
 800172e:	2101      	movs	r1, #1
 8001730:	438a      	bics	r2, r1
 8001732:	60da      	str	r2, [r3, #12]
  }

  __HAL_UNLOCK(hadc);
 8001734:	687b      	ldr	r3, [r7, #4]
 8001736:	2254      	movs	r2, #84	@ 0x54
 8001738:	2100      	movs	r1, #0
 800173a:	5499      	strb	r1, [r3, r2]

  return tmp_hal_status;
 800173c:	230f      	movs	r3, #15
 800173e:	18fb      	adds	r3, r7, r3
 8001740:	781b      	ldrb	r3, [r3, #0]
}
 8001742:	0018      	movs	r0, r3
 8001744:	46bd      	mov	sp, r7
 8001746:	b004      	add	sp, #16
 8001748:	bdb0      	pop	{r4, r5, r7, pc}
 800174a:	46c0      	nop			@ (mov r8, r8)
 800174c:	fffffefe 	.word	0xfffffefe

08001750 <HAL_ADC_ConvHalfCpltCallback>:
  * @brief  Conversion DMA half-transfer callback in non-blocking mode.
  * @param hadc ADC handle
  * @retval None
  */
__weak void HAL_ADC_ConvHalfCpltCallback(ADC_HandleTypeDef *hadc)
{
 8001750:	b580      	push	{r7, lr}
 8001752:	b082      	sub	sp, #8
 8001754:	af00      	add	r7, sp, #0
 8001756:	6078      	str	r0, [r7, #4]
  UNUSED(hadc);

  /* NOTE : This function should not be modified. When the callback is needed,
            function HAL_ADC_ConvHalfCpltCallback must be implemented in the user file.
  */
}
 8001758:	46c0      	nop			@ (mov r8, r8)
 800175a:	46bd      	mov	sp, r7
 800175c:	b002      	add	sp, #8
 800175e:	bd80      	pop	{r7, pc}

08001760 <HAL_ADC_ErrorCallback>:
  *           (this function is also clearing overrun flag)
  * @param hadc ADC handle
  * @retval None
  */
__weak void HAL_ADC_ErrorCallback(ADC_HandleTypeDef *hadc)
{
 8001760:	b580      	push	{r7, lr}
 8001762:	b082      	sub	sp, #8
 8001764:	af00      	add	r7, sp, #0
 8001766:	6078      	str	r0, [r7, #4]
  UNUSED(hadc);

  /* NOTE : This function should not be modified. When the callback is needed,
            function HAL_ADC_ErrorCallback must be implemented in the user file.
  */
}
 8001768:	46c0      	nop			@ (mov r8, r8)
 800176a:	46bd      	mov	sp, r7
 800176c:	b002      	add	sp, #8
 800176e:	bd80      	pop	{r7, pc}

08001770 <HAL_ADC_ConfigChannel>:
  * @param hadc ADC handle
  * @param pConfig Structure of ADC channel assigned to ADC group regular.
  * @retval HAL status
  */
HAL_StatusTypeDef HAL_ADC_ConfigChannel(ADC_HandleTypeDef *hadc, const ADC_ChannelConfTypeDef *pConfig)
{
 8001770:	b580      	push	{r7, lr}
 8001772:	b086      	sub	sp, #24
 8001774:	af00      	add	r7, sp, #0
 8001776:	6078      	str	r0, [r7, #4]
 8001778:	6039      	str	r1, [r7, #0]
  HAL_StatusTypeDef tmp_hal_status = HAL_OK;
 800177a:	2317      	movs	r3, #23
 800177c:	18fb      	adds	r3, r7, r3
 800177e:	2200      	movs	r2, #0
 8001780:	701a      	strb	r2, [r3, #0]
  uint32_t tmp_config_internal_channel;
  __IO uint32_t wait_loop_index = 0UL;
 8001782:	2300      	movs	r3, #0
 8001784:	60fb      	str	r3, [r7, #12]
    assert_param(IS_ADC_REGULAR_NB_CONV(hadc->Init.NbrOfConversion));

    assert_param(IS_ADC_REGULAR_RANK(pConfig->Rank));
  }

  __HAL_LOCK(hadc);
 8001786:	687b      	ldr	r3, [r7, #4]
 8001788:	2254      	movs	r2, #84	@ 0x54
 800178a:	5c9b      	ldrb	r3, [r3, r2]
 800178c:	2b01      	cmp	r3, #1
 800178e:	d101      	bne.n	8001794 <HAL_ADC_ConfigChannel+0x24>
 8001790:	2302      	movs	r3, #2
 8001792:	e1c0      	b.n	8001b16 <HAL_ADC_ConfigChannel+0x3a6>
 8001794:	687b      	ldr	r3, [r7, #4]
 8001796:	2254      	movs	r2, #84	@ 0x54
 8001798:	2101      	movs	r1, #1
 800179a:	5499      	strb	r1, [r3, r2]
  /* Parameters that can be updated when ADC is disabled or enabled without   */
  /* conversion on going on regular group:                                    */
  /*  - Channel number                                                        */
  /*  - Channel sampling time                                                 */
  /*  - Management of internal measurement channels: VrefInt/TempSensor/Vbat  */
  if (LL_ADC_REG_IsConversionOngoing(hadc->Instance) == 0UL)
 800179c:	687b      	ldr	r3, [r7, #4]
 800179e:	681b      	ldr	r3, [r3, #0]
 80017a0:	0018      	movs	r0, r3
 80017a2:	f7ff fd1b 	bl	80011dc <LL_ADC_REG_IsConversionOngoing>
 80017a6:	1e03      	subs	r3, r0, #0
 80017a8:	d000      	beq.n	80017ac <HAL_ADC_ConfigChannel+0x3c>
 80017aa:	e1a3      	b.n	8001af4 <HAL_ADC_ConfigChannel+0x384>
    /* If sequencer set to not fully configurable with channel rank set to    */
    /* none, remove the channel from the sequencer.                           */
    /* Otherwise (sequencer set to fully configurable or to to not fully      */
    /* configurable with channel rank to be set), configure the selected      */
    /* channel.                                                               */
    if (pConfig->Rank != ADC_RANK_NONE)
 80017ac:	683b      	ldr	r3, [r7, #0]
 80017ae:	685b      	ldr	r3, [r3, #4]
 80017b0:	2b02      	cmp	r3, #2
 80017b2:	d100      	bne.n	80017b6 <HAL_ADC_ConfigChannel+0x46>
 80017b4:	e143      	b.n	8001a3e <HAL_ADC_ConfigChannel+0x2ce>
      /* Note: ADC channel configuration requires few ADC clock cycles        */
      /*       to be ready. Processing of ADC settings in this function       */
      /*       induce that a specific wait time is not necessary.             */
      /*       For more details on ADC channel configuration ready,           */
      /*       refer to function "LL_ADC_IsActiveFlag_CCRDY()".               */
      if ((hadc->Init.ScanConvMode == ADC_SCAN_SEQ_FIXED)       ||
 80017b6:	687b      	ldr	r3, [r7, #4]
 80017b8:	691a      	ldr	r2, [r3, #16]
 80017ba:	2380      	movs	r3, #128	@ 0x80
 80017bc:	061b      	lsls	r3, r3, #24
 80017be:	429a      	cmp	r2, r3
 80017c0:	d004      	beq.n	80017cc <HAL_ADC_ConfigChannel+0x5c>
          (hadc->Init.ScanConvMode == ADC_SCAN_SEQ_FIXED_BACKWARD))
 80017c2:	687b      	ldr	r3, [r7, #4]
 80017c4:	691b      	ldr	r3, [r3, #16]
      if ((hadc->Init.ScanConvMode == ADC_SCAN_SEQ_FIXED)       ||
 80017c6:	4ac1      	ldr	r2, [pc, #772]	@ (8001acc <HAL_ADC_ConfigChannel+0x35c>)
 80017c8:	4293      	cmp	r3, r2
 80017ca:	d108      	bne.n	80017de <HAL_ADC_ConfigChannel+0x6e>
      {
        /* Sequencer set to not fully configurable:                           */
        /* Set the channel by enabling the corresponding bitfield.            */
        LL_ADC_REG_SetSequencerChAdd(hadc->Instance, pConfig->Channel);
 80017cc:	687b      	ldr	r3, [r7, #4]
 80017ce:	681a      	ldr	r2, [r3, #0]
 80017d0:	683b      	ldr	r3, [r7, #0]
 80017d2:	681b      	ldr	r3, [r3, #0]
 80017d4:	0019      	movs	r1, r3
 80017d6:	0010      	movs	r0, r2
 80017d8:	f7ff fc2e 	bl	8001038 <LL_ADC_REG_SetSequencerChAdd>
 80017dc:	e0c9      	b.n	8001972 <HAL_ADC_ConfigChannel+0x202>
      {
        /* Sequencer set to fully configurable:                               */
        /* Set the channel by entering it into the selected rank.             */

        /* Memorize the channel set into variable in HAL ADC handle */
        MODIFY_REG(hadc->ADCGroupRegularSequencerRanks,
 80017de:	687b      	ldr	r3, [r7, #4]
 80017e0:	6e1a      	ldr	r2, [r3, #96]	@ 0x60
 80017e2:	683b      	ldr	r3, [r7, #0]
 80017e4:	685b      	ldr	r3, [r3, #4]
 80017e6:	211f      	movs	r1, #31
 80017e8:	400b      	ands	r3, r1
 80017ea:	210f      	movs	r1, #15
 80017ec:	4099      	lsls	r1, r3
 80017ee:	000b      	movs	r3, r1
 80017f0:	43db      	mvns	r3, r3
 80017f2:	4013      	ands	r3, r2
 80017f4:	0019      	movs	r1, r3
 80017f6:	683b      	ldr	r3, [r7, #0]
 80017f8:	681b      	ldr	r3, [r3, #0]
 80017fa:	035b      	lsls	r3, r3, #13
 80017fc:	0b5b      	lsrs	r3, r3, #13
 80017fe:	d105      	bne.n	800180c <HAL_ADC_ConfigChannel+0x9c>
 8001800:	683b      	ldr	r3, [r7, #0]
 8001802:	681b      	ldr	r3, [r3, #0]
 8001804:	0e9b      	lsrs	r3, r3, #26
 8001806:	221f      	movs	r2, #31
 8001808:	4013      	ands	r3, r2
 800180a:	e098      	b.n	800193e <HAL_ADC_ConfigChannel+0x1ce>
 800180c:	683b      	ldr	r3, [r7, #0]
 800180e:	681b      	ldr	r3, [r3, #0]
 8001810:	2201      	movs	r2, #1
 8001812:	4013      	ands	r3, r2
 8001814:	d000      	beq.n	8001818 <HAL_ADC_ConfigChannel+0xa8>
 8001816:	e091      	b.n	800193c <HAL_ADC_ConfigChannel+0x1cc>
 8001818:	683b      	ldr	r3, [r7, #0]
 800181a:	681b      	ldr	r3, [r3, #0]
 800181c:	2202      	movs	r2, #2
 800181e:	4013      	ands	r3, r2
 8001820:	d000      	beq.n	8001824 <HAL_ADC_ConfigChannel+0xb4>
 8001822:	e089      	b.n	8001938 <HAL_ADC_ConfigChannel+0x1c8>
 8001824:	683b      	ldr	r3, [r7, #0]
 8001826:	681b      	ldr	r3, [r3, #0]
 8001828:	2204      	movs	r2, #4
 800182a:	4013      	ands	r3, r2
 800182c:	d000      	beq.n	8001830 <HAL_ADC_ConfigChannel+0xc0>
 800182e:	e081      	b.n	8001934 <HAL_ADC_ConfigChannel+0x1c4>
 8001830:	683b      	ldr	r3, [r7, #0]
 8001832:	681b      	ldr	r3, [r3, #0]
 8001834:	2208      	movs	r2, #8
 8001836:	4013      	ands	r3, r2
 8001838:	d000      	beq.n	800183c <HAL_ADC_ConfigChannel+0xcc>
 800183a:	e079      	b.n	8001930 <HAL_ADC_ConfigChannel+0x1c0>
 800183c:	683b      	ldr	r3, [r7, #0]
 800183e:	681b      	ldr	r3, [r3, #0]
 8001840:	2210      	movs	r2, #16
 8001842:	4013      	ands	r3, r2
 8001844:	d000      	beq.n	8001848 <HAL_ADC_ConfigChannel+0xd8>
 8001846:	e071      	b.n	800192c <HAL_ADC_ConfigChannel+0x1bc>
 8001848:	683b      	ldr	r3, [r7, #0]
 800184a:	681b      	ldr	r3, [r3, #0]
 800184c:	2220      	movs	r2, #32
 800184e:	4013      	ands	r3, r2
 8001850:	d000      	beq.n	8001854 <HAL_ADC_ConfigChannel+0xe4>
 8001852:	e069      	b.n	8001928 <HAL_ADC_ConfigChannel+0x1b8>
 8001854:	683b      	ldr	r3, [r7, #0]
 8001856:	681b      	ldr	r3, [r3, #0]
 8001858:	2240      	movs	r2, #64	@ 0x40
 800185a:	4013      	ands	r3, r2
 800185c:	d000      	beq.n	8001860 <HAL_ADC_ConfigChannel+0xf0>
 800185e:	e061      	b.n	8001924 <HAL_ADC_ConfigChannel+0x1b4>
 8001860:	683b      	ldr	r3, [r7, #0]
 8001862:	681b      	ldr	r3, [r3, #0]
 8001864:	2280      	movs	r2, #128	@ 0x80
 8001866:	4013      	ands	r3, r2
 8001868:	d000      	beq.n	800186c <HAL_ADC_ConfigChannel+0xfc>
 800186a:	e059      	b.n	8001920 <HAL_ADC_ConfigChannel+0x1b0>
 800186c:	683b      	ldr	r3, [r7, #0]
 800186e:	681a      	ldr	r2, [r3, #0]
 8001870:	2380      	movs	r3, #128	@ 0x80
 8001872:	005b      	lsls	r3, r3, #1
 8001874:	4013      	ands	r3, r2
 8001876:	d151      	bne.n	800191c <HAL_ADC_ConfigChannel+0x1ac>
 8001878:	683b      	ldr	r3, [r7, #0]
 800187a:	681a      	ldr	r2, [r3, #0]
 800187c:	2380      	movs	r3, #128	@ 0x80
 800187e:	009b      	lsls	r3, r3, #2
 8001880:	4013      	ands	r3, r2
 8001882:	d149      	bne.n	8001918 <HAL_ADC_ConfigChannel+0x1a8>
 8001884:	683b      	ldr	r3, [r7, #0]
 8001886:	681a      	ldr	r2, [r3, #0]
 8001888:	2380      	movs	r3, #128	@ 0x80
 800188a:	00db      	lsls	r3, r3, #3
 800188c:	4013      	ands	r3, r2
 800188e:	d141      	bne.n	8001914 <HAL_ADC_ConfigChannel+0x1a4>
 8001890:	683b      	ldr	r3, [r7, #0]
 8001892:	681a      	ldr	r2, [r3, #0]
 8001894:	2380      	movs	r3, #128	@ 0x80
 8001896:	011b      	lsls	r3, r3, #4
 8001898:	4013      	ands	r3, r2
 800189a:	d139      	bne.n	8001910 <HAL_ADC_ConfigChannel+0x1a0>
 800189c:	683b      	ldr	r3, [r7, #0]
 800189e:	681a      	ldr	r2, [r3, #0]
 80018a0:	2380      	movs	r3, #128	@ 0x80
 80018a2:	015b      	lsls	r3, r3, #5
 80018a4:	4013      	ands	r3, r2
 80018a6:	d131      	bne.n	800190c <HAL_ADC_ConfigChannel+0x19c>
 80018a8:	683b      	ldr	r3, [r7, #0]
 80018aa:	681a      	ldr	r2, [r3, #0]
 80018ac:	2380      	movs	r3, #128	@ 0x80
 80018ae:	019b      	lsls	r3, r3, #6
 80018b0:	4013      	ands	r3, r2
 80018b2:	d129      	bne.n	8001908 <HAL_ADC_ConfigChannel+0x198>
 80018b4:	683b      	ldr	r3, [r7, #0]
 80018b6:	681a      	ldr	r2, [r3, #0]
 80018b8:	2380      	movs	r3, #128	@ 0x80
 80018ba:	01db      	lsls	r3, r3, #7
 80018bc:	4013      	ands	r3, r2
 80018be:	d121      	bne.n	8001904 <HAL_ADC_ConfigChannel+0x194>
 80018c0:	683b      	ldr	r3, [r7, #0]
 80018c2:	681a      	ldr	r2, [r3, #0]
 80018c4:	2380      	movs	r3, #128	@ 0x80
 80018c6:	021b      	lsls	r3, r3, #8
 80018c8:	4013      	ands	r3, r2
 80018ca:	d119      	bne.n	8001900 <HAL_ADC_ConfigChannel+0x190>
 80018cc:	683b      	ldr	r3, [r7, #0]
 80018ce:	681a      	ldr	r2, [r3, #0]
 80018d0:	2380      	movs	r3, #128	@ 0x80
 80018d2:	025b      	lsls	r3, r3, #9
 80018d4:	4013      	ands	r3, r2
 80018d6:	d111      	bne.n	80018fc <HAL_ADC_ConfigChannel+0x18c>
 80018d8:	683b      	ldr	r3, [r7, #0]
 80018da:	681a      	ldr	r2, [r3, #0]
 80018dc:	2380      	movs	r3, #128	@ 0x80
 80018de:	029b      	lsls	r3, r3, #10
 80018e0:	4013      	ands	r3, r2
 80018e2:	d109      	bne.n	80018f8 <HAL_ADC_ConfigChannel+0x188>
 80018e4:	683b      	ldr	r3, [r7, #0]
 80018e6:	681a      	ldr	r2, [r3, #0]
 80018e8:	2380      	movs	r3, #128	@ 0x80
 80018ea:	02db      	lsls	r3, r3, #11
 80018ec:	4013      	ands	r3, r2
 80018ee:	d001      	beq.n	80018f4 <HAL_ADC_ConfigChannel+0x184>
 80018f0:	2312      	movs	r3, #18
 80018f2:	e024      	b.n	800193e <HAL_ADC_ConfigChannel+0x1ce>
 80018f4:	2300      	movs	r3, #0
 80018f6:	e022      	b.n	800193e <HAL_ADC_ConfigChannel+0x1ce>
 80018f8:	2311      	movs	r3, #17
 80018fa:	e020      	b.n	800193e <HAL_ADC_ConfigChannel+0x1ce>
 80018fc:	2310      	movs	r3, #16
 80018fe:	e01e      	b.n	800193e <HAL_ADC_ConfigChannel+0x1ce>
 8001900:	230f      	movs	r3, #15
 8001902:	e01c      	b.n	800193e <HAL_ADC_ConfigChannel+0x1ce>
 8001904:	230e      	movs	r3, #14
 8001906:	e01a      	b.n	800193e <HAL_ADC_ConfigChannel+0x1ce>
 8001908:	230d      	movs	r3, #13
 800190a:	e018      	b.n	800193e <HAL_ADC_ConfigChannel+0x1ce>
 800190c:	230c      	movs	r3, #12
 800190e:	e016      	b.n	800193e <HAL_ADC_ConfigChannel+0x1ce>
 8001910:	230b      	movs	r3, #11
 8001912:	e014      	b.n	800193e <HAL_ADC_ConfigChannel+0x1ce>
 8001914:	230a      	movs	r3, #10
 8001916:	e012      	b.n	800193e <HAL_ADC_ConfigChannel+0x1ce>
 8001918:	2309      	movs	r3, #9
 800191a:	e010      	b.n	800193e <HAL_ADC_ConfigChannel+0x1ce>
 800191c:	2308      	movs	r3, #8
 800191e:	e00e      	b.n	800193e <HAL_ADC_ConfigChannel+0x1ce>
 8001920:	2307      	movs	r3, #7
 8001922:	e00c      	b.n	800193e <HAL_ADC_ConfigChannel+0x1ce>
 8001924:	2306      	movs	r3, #6
 8001926:	e00a      	b.n	800193e <HAL_ADC_ConfigChannel+0x1ce>
 8001928:	2305      	movs	r3, #5
 800192a:	e008      	b.n	800193e <HAL_ADC_ConfigChannel+0x1ce>
 800192c:	2304      	movs	r3, #4
 800192e:	e006      	b.n	800193e <HAL_ADC_ConfigChannel+0x1ce>
 8001930:	2303      	movs	r3, #3
 8001932:	e004      	b.n	800193e <HAL_ADC_ConfigChannel+0x1ce>
 8001934:	2302      	movs	r3, #2
 8001936:	e002      	b.n	800193e <HAL_ADC_ConfigChannel+0x1ce>
 8001938:	2301      	movs	r3, #1
 800193a:	e000      	b.n	800193e <HAL_ADC_ConfigChannel+0x1ce>
 800193c:	2300      	movs	r3, #0
 800193e:	683a      	ldr	r2, [r7, #0]
 8001940:	6852      	ldr	r2, [r2, #4]
 8001942:	201f      	movs	r0, #31
 8001944:	4002      	ands	r2, r0
 8001946:	4093      	lsls	r3, r2
 8001948:	000a      	movs	r2, r1
 800194a:	431a      	orrs	r2, r3
 800194c:	687b      	ldr	r3, [r7, #4]
 800194e:	661a      	str	r2, [r3, #96]	@ 0x60

        /* If the selected rank is below ADC group regular sequencer length,  */
        /* apply the configuration in ADC register.                           */
        /* Note: Otherwise, configuration is not applied.                     */
        /*       To apply it, parameter'NbrOfConversion' must be increased.   */
        if (((pConfig->Rank >> 2UL) + 1UL) <= hadc->Init.NbrOfConversion)
 8001950:	683b      	ldr	r3, [r7, #0]
 8001952:	685b      	ldr	r3, [r3, #4]
 8001954:	089b      	lsrs	r3, r3, #2
 8001956:	1c5a      	adds	r2, r3, #1
 8001958:	687b      	ldr	r3, [r7, #4]
 800195a:	69db      	ldr	r3, [r3, #28]
 800195c:	429a      	cmp	r2, r3
 800195e:	d808      	bhi.n	8001972 <HAL_ADC_ConfigChannel+0x202>
        {
          LL_ADC_REG_SetSequencerRanks(hadc->Instance, pConfig->Rank, pConfig->Channel);
 8001960:	687b      	ldr	r3, [r7, #4]
 8001962:	6818      	ldr	r0, [r3, #0]
 8001964:	683b      	ldr	r3, [r7, #0]
 8001966:	6859      	ldr	r1, [r3, #4]
 8001968:	683b      	ldr	r3, [r7, #0]
 800196a:	681b      	ldr	r3, [r3, #0]
 800196c:	001a      	movs	r2, r3
 800196e:	f7ff fb43 	bl	8000ff8 <LL_ADC_REG_SetSequencerRanks>
        }
      }

      /* Set sampling time of the selected ADC channel */
      LL_ADC_SetChannelSamplingTime(hadc->Instance, pConfig->Channel, pConfig->SamplingTime);
 8001972:	687b      	ldr	r3, [r7, #4]
 8001974:	6818      	ldr	r0, [r3, #0]
 8001976:	683b      	ldr	r3, [r7, #0]
 8001978:	6819      	ldr	r1, [r3, #0]
 800197a:	683b      	ldr	r3, [r7, #0]
 800197c:	689b      	ldr	r3, [r3, #8]
 800197e:	001a      	movs	r2, r3
 8001980:	f7ff fb7e 	bl	8001080 <LL_ADC_SetChannelSamplingTime>
      /* internal measurement paths enable: If internal channel selected,     */
      /* enable dedicated internal buffers and path.                          */
      /* Note: these internal measurement paths can be disabled using         */
      /*       HAL_ADC_DeInit() or removing the channel from sequencer with   */
      /*       channel configuration parameter "Rank".                        */
      if (__LL_ADC_IS_CHANNEL_INTERNAL(pConfig->Channel))
 8001984:	683b      	ldr	r3, [r7, #0]
 8001986:	681b      	ldr	r3, [r3, #0]
 8001988:	2b00      	cmp	r3, #0
 800198a:	db00      	blt.n	800198e <HAL_ADC_ConfigChannel+0x21e>
 800198c:	e0bc      	b.n	8001b08 <HAL_ADC_ConfigChannel+0x398>
      {
        tmp_config_internal_channel = LL_ADC_GetCommonPathInternalCh(__LL_ADC_COMMON_INSTANCE(hadc->Instance));
 800198e:	4b50      	ldr	r3, [pc, #320]	@ (8001ad0 <HAL_ADC_ConfigChannel+0x360>)
 8001990:	0018      	movs	r0, r3
 8001992:	f7ff fadf 	bl	8000f54 <LL_ADC_GetCommonPathInternalCh>
 8001996:	0003      	movs	r3, r0
 8001998:	613b      	str	r3, [r7, #16]

        /* If the requested internal measurement path has already been enabled,   */
        /* bypass the configuration processing.                                   */
        if ((pConfig->Channel == ADC_CHANNEL_TEMPSENSOR) &&
 800199a:	683b      	ldr	r3, [r7, #0]
 800199c:	681b      	ldr	r3, [r3, #0]
 800199e:	4a4d      	ldr	r2, [pc, #308]	@ (8001ad4 <HAL_ADC_ConfigChannel+0x364>)
 80019a0:	4293      	cmp	r3, r2
 80019a2:	d122      	bne.n	80019ea <HAL_ADC_ConfigChannel+0x27a>
            ((tmp_config_internal_channel & LL_ADC_PATH_INTERNAL_TEMPSENSOR) == 0UL))
 80019a4:	693a      	ldr	r2, [r7, #16]
 80019a6:	2380      	movs	r3, #128	@ 0x80
 80019a8:	041b      	lsls	r3, r3, #16
 80019aa:	4013      	ands	r3, r2
        if ((pConfig->Channel == ADC_CHANNEL_TEMPSENSOR) &&
 80019ac:	d11d      	bne.n	80019ea <HAL_ADC_ConfigChannel+0x27a>
        {
          LL_ADC_SetCommonPathInternalCh(__LL_ADC_COMMON_INSTANCE(hadc->Instance),
 80019ae:	693b      	ldr	r3, [r7, #16]
 80019b0:	2280      	movs	r2, #128	@ 0x80
 80019b2:	0412      	lsls	r2, r2, #16
 80019b4:	4313      	orrs	r3, r2
 80019b6:	4a46      	ldr	r2, [pc, #280]	@ (8001ad0 <HAL_ADC_ConfigChannel+0x360>)
 80019b8:	0019      	movs	r1, r3
 80019ba:	0010      	movs	r0, r2
 80019bc:	f7ff fab6 	bl	8000f2c <LL_ADC_SetCommonPathInternalCh>
          /* Delay for temperature sensor stabilization time */
          /* Wait loop initialization and execution */
          /* Note: Variable divided by 2 to compensate partially              */
          /*       CPU processing cycles, scaling in us split to not          */
          /*       exceed 32 bits register capacity and handle low frequency. */
          wait_loop_index = ((LL_ADC_DELAY_TEMPSENSOR_STAB_US / 10UL) * ((SystemCoreClock / (100000UL * 2UL)) + 1UL));
 80019c0:	4b45      	ldr	r3, [pc, #276]	@ (8001ad8 <HAL_ADC_ConfigChannel+0x368>)
 80019c2:	681b      	ldr	r3, [r3, #0]
 80019c4:	4945      	ldr	r1, [pc, #276]	@ (8001adc <HAL_ADC_ConfigChannel+0x36c>)
 80019c6:	0018      	movs	r0, r3
 80019c8:	f7fe fba6 	bl	8000118 <__udivsi3>
 80019cc:	0003      	movs	r3, r0
 80019ce:	1c5a      	adds	r2, r3, #1
 80019d0:	0013      	movs	r3, r2
 80019d2:	005b      	lsls	r3, r3, #1
 80019d4:	189b      	adds	r3, r3, r2
 80019d6:	009b      	lsls	r3, r3, #2
 80019d8:	60fb      	str	r3, [r7, #12]
          while (wait_loop_index != 0UL)
 80019da:	e002      	b.n	80019e2 <HAL_ADC_ConfigChannel+0x272>
          {
            wait_loop_index--;
 80019dc:	68fb      	ldr	r3, [r7, #12]
 80019de:	3b01      	subs	r3, #1
 80019e0:	60fb      	str	r3, [r7, #12]
          while (wait_loop_index != 0UL)
 80019e2:	68fb      	ldr	r3, [r7, #12]
 80019e4:	2b00      	cmp	r3, #0
 80019e6:	d1f9      	bne.n	80019dc <HAL_ADC_ConfigChannel+0x26c>
        if ((pConfig->Channel == ADC_CHANNEL_TEMPSENSOR) &&
 80019e8:	e08e      	b.n	8001b08 <HAL_ADC_ConfigChannel+0x398>
          }
        }
        else if ((pConfig->Channel == ADC_CHANNEL_VBAT)
 80019ea:	683b      	ldr	r3, [r7, #0]
 80019ec:	681b      	ldr	r3, [r3, #0]
 80019ee:	4a3c      	ldr	r2, [pc, #240]	@ (8001ae0 <HAL_ADC_ConfigChannel+0x370>)
 80019f0:	4293      	cmp	r3, r2
 80019f2:	d10e      	bne.n	8001a12 <HAL_ADC_ConfigChannel+0x2a2>
                 && ((tmp_config_internal_channel & LL_ADC_PATH_INTERNAL_VBAT) == 0UL))
 80019f4:	693a      	ldr	r2, [r7, #16]
 80019f6:	2380      	movs	r3, #128	@ 0x80
 80019f8:	045b      	lsls	r3, r3, #17
 80019fa:	4013      	ands	r3, r2
 80019fc:	d109      	bne.n	8001a12 <HAL_ADC_ConfigChannel+0x2a2>
        {
          LL_ADC_SetCommonPathInternalCh(__LL_ADC_COMMON_INSTANCE(hadc->Instance),
 80019fe:	693b      	ldr	r3, [r7, #16]
 8001a00:	2280      	movs	r2, #128	@ 0x80
 8001a02:	0452      	lsls	r2, r2, #17
 8001a04:	4313      	orrs	r3, r2
 8001a06:	4a32      	ldr	r2, [pc, #200]	@ (8001ad0 <HAL_ADC_ConfigChannel+0x360>)
 8001a08:	0019      	movs	r1, r3
 8001a0a:	0010      	movs	r0, r2
 8001a0c:	f7ff fa8e 	bl	8000f2c <LL_ADC_SetCommonPathInternalCh>
 8001a10:	e07a      	b.n	8001b08 <HAL_ADC_ConfigChannel+0x398>
                                         LL_ADC_PATH_INTERNAL_VBAT | tmp_config_internal_channel);
        }
        else if ((pConfig->Channel == ADC_CHANNEL_VREFINT) &&
 8001a12:	683b      	ldr	r3, [r7, #0]
 8001a14:	681b      	ldr	r3, [r3, #0]
 8001a16:	4a33      	ldr	r2, [pc, #204]	@ (8001ae4 <HAL_ADC_ConfigChannel+0x374>)
 8001a18:	4293      	cmp	r3, r2
 8001a1a:	d000      	beq.n	8001a1e <HAL_ADC_ConfigChannel+0x2ae>
 8001a1c:	e074      	b.n	8001b08 <HAL_ADC_ConfigChannel+0x398>
                 ((tmp_config_internal_channel & LL_ADC_PATH_INTERNAL_VREFINT) == 0UL))
 8001a1e:	693a      	ldr	r2, [r7, #16]
 8001a20:	2380      	movs	r3, #128	@ 0x80
 8001a22:	03db      	lsls	r3, r3, #15
 8001a24:	4013      	ands	r3, r2
        else if ((pConfig->Channel == ADC_CHANNEL_VREFINT) &&
 8001a26:	d000      	beq.n	8001a2a <HAL_ADC_ConfigChannel+0x2ba>
 8001a28:	e06e      	b.n	8001b08 <HAL_ADC_ConfigChannel+0x398>
        {
          LL_ADC_SetCommonPathInternalCh(__LL_ADC_COMMON_INSTANCE(hadc->Instance),
 8001a2a:	693b      	ldr	r3, [r7, #16]
 8001a2c:	2280      	movs	r2, #128	@ 0x80
 8001a2e:	03d2      	lsls	r2, r2, #15
 8001a30:	4313      	orrs	r3, r2
 8001a32:	4a27      	ldr	r2, [pc, #156]	@ (8001ad0 <HAL_ADC_ConfigChannel+0x360>)
 8001a34:	0019      	movs	r1, r3
 8001a36:	0010      	movs	r0, r2
 8001a38:	f7ff fa78 	bl	8000f2c <LL_ADC_SetCommonPathInternalCh>
 8001a3c:	e064      	b.n	8001b08 <HAL_ADC_ConfigChannel+0x398>
      /* Regular sequencer configuration */
      /* Note: Case of sequencer set to fully configurable:                   */
      /*       Sequencer rank cannot be disabled, only affected to            */
      /*       another channel.                                               */
      /*       To remove a rank, use parameter 'NbrOfConversion".             */
      if ((hadc->Init.ScanConvMode == ADC_SCAN_SEQ_FIXED)       ||
 8001a3e:	687b      	ldr	r3, [r7, #4]
 8001a40:	691a      	ldr	r2, [r3, #16]
 8001a42:	2380      	movs	r3, #128	@ 0x80
 8001a44:	061b      	lsls	r3, r3, #24
 8001a46:	429a      	cmp	r2, r3
 8001a48:	d004      	beq.n	8001a54 <HAL_ADC_ConfigChannel+0x2e4>
          (hadc->Init.ScanConvMode == ADC_SCAN_SEQ_FIXED_BACKWARD))
 8001a4a:	687b      	ldr	r3, [r7, #4]
 8001a4c:	691b      	ldr	r3, [r3, #16]
      if ((hadc->Init.ScanConvMode == ADC_SCAN_SEQ_FIXED)       ||
 8001a4e:	4a1f      	ldr	r2, [pc, #124]	@ (8001acc <HAL_ADC_ConfigChannel+0x35c>)
 8001a50:	4293      	cmp	r3, r2
 8001a52:	d107      	bne.n	8001a64 <HAL_ADC_ConfigChannel+0x2f4>
      {
        /* Sequencer set to not fully configurable:                           */
        /* Reset the channel by disabling the corresponding bitfield.         */
        LL_ADC_REG_SetSequencerChRem(hadc->Instance, pConfig->Channel);
 8001a54:	687b      	ldr	r3, [r7, #4]
 8001a56:	681a      	ldr	r2, [r3, #0]
 8001a58:	683b      	ldr	r3, [r7, #0]
 8001a5a:	681b      	ldr	r3, [r3, #0]
 8001a5c:	0019      	movs	r1, r3
 8001a5e:	0010      	movs	r0, r2
 8001a60:	f7ff fafb 	bl	800105a <LL_ADC_REG_SetSequencerChRem>
      }

      /* Management of internal measurement channels: Vbat/VrefInt/TempSensor.  */
      /* If internal channel selected, enable dedicated internal buffers and    */
      /* paths.                                                                 */
      if (__LL_ADC_IS_CHANNEL_INTERNAL(pConfig->Channel))
 8001a64:	683b      	ldr	r3, [r7, #0]
 8001a66:	681b      	ldr	r3, [r3, #0]
 8001a68:	2b00      	cmp	r3, #0
 8001a6a:	da4d      	bge.n	8001b08 <HAL_ADC_ConfigChannel+0x398>
      {
        tmp_config_internal_channel = LL_ADC_GetCommonPathInternalCh(__LL_ADC_COMMON_INSTANCE(hadc->Instance));
 8001a6c:	4b18      	ldr	r3, [pc, #96]	@ (8001ad0 <HAL_ADC_ConfigChannel+0x360>)
 8001a6e:	0018      	movs	r0, r3
 8001a70:	f7ff fa70 	bl	8000f54 <LL_ADC_GetCommonPathInternalCh>
 8001a74:	0003      	movs	r3, r0
 8001a76:	613b      	str	r3, [r7, #16]

        if (pConfig->Channel == ADC_CHANNEL_TEMPSENSOR)
 8001a78:	683b      	ldr	r3, [r7, #0]
 8001a7a:	681b      	ldr	r3, [r3, #0]
 8001a7c:	4a15      	ldr	r2, [pc, #84]	@ (8001ad4 <HAL_ADC_ConfigChannel+0x364>)
 8001a7e:	4293      	cmp	r3, r2
 8001a80:	d108      	bne.n	8001a94 <HAL_ADC_ConfigChannel+0x324>
        {
          LL_ADC_SetCommonPathInternalCh(__LL_ADC_COMMON_INSTANCE(hadc->Instance),
 8001a82:	693b      	ldr	r3, [r7, #16]
 8001a84:	4a18      	ldr	r2, [pc, #96]	@ (8001ae8 <HAL_ADC_ConfigChannel+0x378>)
 8001a86:	4013      	ands	r3, r2
 8001a88:	4a11      	ldr	r2, [pc, #68]	@ (8001ad0 <HAL_ADC_ConfigChannel+0x360>)
 8001a8a:	0019      	movs	r1, r3
 8001a8c:	0010      	movs	r0, r2
 8001a8e:	f7ff fa4d 	bl	8000f2c <LL_ADC_SetCommonPathInternalCh>
 8001a92:	e039      	b.n	8001b08 <HAL_ADC_ConfigChannel+0x398>
                                         ~LL_ADC_PATH_INTERNAL_TEMPSENSOR & tmp_config_internal_channel);
        }
        else if (pConfig->Channel == ADC_CHANNEL_VBAT)
 8001a94:	683b      	ldr	r3, [r7, #0]
 8001a96:	681b      	ldr	r3, [r3, #0]
 8001a98:	4a11      	ldr	r2, [pc, #68]	@ (8001ae0 <HAL_ADC_ConfigChannel+0x370>)
 8001a9a:	4293      	cmp	r3, r2
 8001a9c:	d108      	bne.n	8001ab0 <HAL_ADC_ConfigChannel+0x340>
        {
          LL_ADC_SetCommonPathInternalCh(__LL_ADC_COMMON_INSTANCE(hadc->Instance),
 8001a9e:	693b      	ldr	r3, [r7, #16]
 8001aa0:	4a12      	ldr	r2, [pc, #72]	@ (8001aec <HAL_ADC_ConfigChannel+0x37c>)
 8001aa2:	4013      	ands	r3, r2
 8001aa4:	4a0a      	ldr	r2, [pc, #40]	@ (8001ad0 <HAL_ADC_ConfigChannel+0x360>)
 8001aa6:	0019      	movs	r1, r3
 8001aa8:	0010      	movs	r0, r2
 8001aaa:	f7ff fa3f 	bl	8000f2c <LL_ADC_SetCommonPathInternalCh>
 8001aae:	e02b      	b.n	8001b08 <HAL_ADC_ConfigChannel+0x398>
                                         ~LL_ADC_PATH_INTERNAL_VBAT & tmp_config_internal_channel);
        }
        else if (pConfig->Channel == ADC_CHANNEL_VREFINT)
 8001ab0:	683b      	ldr	r3, [r7, #0]
 8001ab2:	681b      	ldr	r3, [r3, #0]
 8001ab4:	4a0b      	ldr	r2, [pc, #44]	@ (8001ae4 <HAL_ADC_ConfigChannel+0x374>)
 8001ab6:	4293      	cmp	r3, r2
 8001ab8:	d126      	bne.n	8001b08 <HAL_ADC_ConfigChannel+0x398>
        {
          LL_ADC_SetCommonPathInternalCh(__LL_ADC_COMMON_INSTANCE(hadc->Instance),
 8001aba:	693b      	ldr	r3, [r7, #16]
 8001abc:	4a0c      	ldr	r2, [pc, #48]	@ (8001af0 <HAL_ADC_ConfigChannel+0x380>)
 8001abe:	4013      	ands	r3, r2
 8001ac0:	4a03      	ldr	r2, [pc, #12]	@ (8001ad0 <HAL_ADC_ConfigChannel+0x360>)
 8001ac2:	0019      	movs	r1, r3
 8001ac4:	0010      	movs	r0, r2
 8001ac6:	f7ff fa31 	bl	8000f2c <LL_ADC_SetCommonPathInternalCh>
 8001aca:	e01d      	b.n	8001b08 <HAL_ADC_ConfigChannel+0x398>
 8001acc:	80000004 	.word	0x80000004
 8001ad0:	40012708 	.word	0x40012708
 8001ad4:	b0001000 	.word	0xb0001000
 8001ad8:	20000000 	.word	0x20000000
 8001adc:	00030d40 	.word	0x00030d40
 8001ae0:	b8004000 	.word	0xb8004000
 8001ae4:	b4002000 	.word	0xb4002000
 8001ae8:	ff7fffff 	.word	0xff7fffff
 8001aec:	feffffff 	.word	0xfeffffff
 8001af0:	ffbfffff 	.word	0xffbfffff
  /* channel could be done on neither of the channel configuration structure  */
  /* parameters.                                                              */
  else
  {
    /* Update ADC state machine to error */
    SET_BIT(hadc->State, HAL_ADC_STATE_ERROR_CONFIG);
 8001af4:	687b      	ldr	r3, [r7, #4]
 8001af6:	6d9b      	ldr	r3, [r3, #88]	@ 0x58
 8001af8:	2220      	movs	r2, #32
 8001afa:	431a      	orrs	r2, r3
 8001afc:	687b      	ldr	r3, [r7, #4]
 8001afe:	659a      	str	r2, [r3, #88]	@ 0x58

    tmp_hal_status = HAL_ERROR;
 8001b00:	2317      	movs	r3, #23
 8001b02:	18fb      	adds	r3, r7, r3
 8001b04:	2201      	movs	r2, #1
 8001b06:	701a      	strb	r2, [r3, #0]
  }

  __HAL_UNLOCK(hadc);
 8001b08:	687b      	ldr	r3, [r7, #4]
 8001b0a:	2254      	movs	r2, #84	@ 0x54
 8001b0c:	2100      	movs	r1, #0
 8001b0e:	5499      	strb	r1, [r3, r2]

  return tmp_hal_status;
 8001b10:	2317      	movs	r3, #23
 8001b12:	18fb      	adds	r3, r7, r3
 8001b14:	781b      	ldrb	r3, [r3, #0]
}
 8001b16:	0018      	movs	r0, r3
 8001b18:	46bd      	mov	sp, r7
 8001b1a:	b006      	add	sp, #24
 8001b1c:	bd80      	pop	{r7, pc}
 8001b1e:	46c0      	nop			@ (mov r8, r8)

08001b20 <ADC_ConversionStop>:
  *         stopped to disable the ADC.
  * @param  hadc ADC handle
  * @retval HAL status.
  */
HAL_StatusTypeDef ADC_ConversionStop(ADC_HandleTypeDef *hadc)
{
 8001b20:	b580      	push	{r7, lr}
 8001b22:	b084      	sub	sp, #16
 8001b24:	af00      	add	r7, sp, #0
 8001b26:	6078      	str	r0, [r7, #4]
  /* Check the parameters */
  assert_param(IS_ADC_ALL_INSTANCE(hadc->Instance));

  /* Verification if ADC is not already stopped on regular group to bypass    */
  /* this function if not needed.                                             */
  if (LL_ADC_REG_IsConversionOngoing(hadc->Instance) != 0UL)
 8001b28:	687b      	ldr	r3, [r7, #4]
 8001b2a:	681b      	ldr	r3, [r3, #0]
 8001b2c:	0018      	movs	r0, r3
 8001b2e:	f7ff fb55 	bl	80011dc <LL_ADC_REG_IsConversionOngoing>
 8001b32:	1e03      	subs	r3, r0, #0
 8001b34:	d031      	beq.n	8001b9a <ADC_ConversionStop+0x7a>
  {
    /* Stop potential conversion on going on regular group */
    /* Software is allowed to set ADSTP only when ADSTART=1 and ADDIS=0 */
    if (LL_ADC_IsDisableOngoing(hadc->Instance) == 0UL)
 8001b36:	687b      	ldr	r3, [r7, #4]
 8001b38:	681b      	ldr	r3, [r3, #0]
 8001b3a:	0018      	movs	r0, r3
 8001b3c:	f7ff fb19 	bl	8001172 <LL_ADC_IsDisableOngoing>
 8001b40:	1e03      	subs	r3, r0, #0
 8001b42:	d104      	bne.n	8001b4e <ADC_ConversionStop+0x2e>
    {
      /* Stop ADC group regular conversion */
      LL_ADC_REG_StopConversion(hadc->Instance);
 8001b44:	687b      	ldr	r3, [r7, #4]
 8001b46:	681b      	ldr	r3, [r3, #0]
 8001b48:	0018      	movs	r0, r3
 8001b4a:	f7ff fb35 	bl	80011b8 <LL_ADC_REG_StopConversion>
    }

    /* Wait for conversion effectively stopped */
    /* Get tick count */
    tickstart = HAL_GetTick();
 8001b4e:	f7ff f9bf 	bl	8000ed0 <HAL_GetTick>
 8001b52:	0003      	movs	r3, r0
 8001b54:	60fb      	str	r3, [r7, #12]

    while ((hadc->Instance->CR & ADC_CR_ADSTART) != 0UL)
 8001b56:	e01a      	b.n	8001b8e <ADC_ConversionStop+0x6e>
    {
      if ((HAL_GetTick() - tickstart) > ADC_STOP_CONVERSION_TIMEOUT)
 8001b58:	f7ff f9ba 	bl	8000ed0 <HAL_GetTick>
 8001b5c:	0002      	movs	r2, r0
 8001b5e:	68fb      	ldr	r3, [r7, #12]
 8001b60:	1ad3      	subs	r3, r2, r3
 8001b62:	2b02      	cmp	r3, #2
 8001b64:	d913      	bls.n	8001b8e <ADC_ConversionStop+0x6e>
      {
        /* New check to avoid false timeout detection in case of preemption */
        if ((hadc->Instance->CR & ADC_CR_ADSTART) != 0UL)
 8001b66:	687b      	ldr	r3, [r7, #4]
 8001b68:	681b      	ldr	r3, [r3, #0]
 8001b6a:	689b      	ldr	r3, [r3, #8]
 8001b6c:	2204      	movs	r2, #4
 8001b6e:	4013      	ands	r3, r2
 8001b70:	d00d      	beq.n	8001b8e <ADC_ConversionStop+0x6e>
        {
          /* Update ADC state machine to error */
          SET_BIT(hadc->State, HAL_ADC_STATE_ERROR_INTERNAL);
 8001b72:	687b      	ldr	r3, [r7, #4]
 8001b74:	6d9b      	ldr	r3, [r3, #88]	@ 0x58
 8001b76:	2210      	movs	r2, #16
 8001b78:	431a      	orrs	r2, r3
 8001b7a:	687b      	ldr	r3, [r7, #4]
 8001b7c:	659a      	str	r2, [r3, #88]	@ 0x58

          /* Set ADC error code to ADC peripheral internal error */
          SET_BIT(hadc->ErrorCode, HAL_ADC_ERROR_INTERNAL);
 8001b7e:	687b      	ldr	r3, [r7, #4]
 8001b80:	6ddb      	ldr	r3, [r3, #92]	@ 0x5c
 8001b82:	2201      	movs	r2, #1
 8001b84:	431a      	orrs	r2, r3
 8001b86:	687b      	ldr	r3, [r7, #4]
 8001b88:	65da      	str	r2, [r3, #92]	@ 0x5c

          return HAL_ERROR;
 8001b8a:	2301      	movs	r3, #1
 8001b8c:	e006      	b.n	8001b9c <ADC_ConversionStop+0x7c>
    while ((hadc->Instance->CR & ADC_CR_ADSTART) != 0UL)
 8001b8e:	687b      	ldr	r3, [r7, #4]
 8001b90:	681b      	ldr	r3, [r3, #0]
 8001b92:	689b      	ldr	r3, [r3, #8]
 8001b94:	2204      	movs	r2, #4
 8001b96:	4013      	ands	r3, r2
 8001b98:	d1de      	bne.n	8001b58 <ADC_ConversionStop+0x38>
    }

  }

  /* Return HAL status */
  return HAL_OK;
 8001b9a:	2300      	movs	r3, #0
}
 8001b9c:	0018      	movs	r0, r3
 8001b9e:	46bd      	mov	sp, r7
 8001ba0:	b004      	add	sp, #16
 8001ba2:	bd80      	pop	{r7, pc}

08001ba4 <ADC_Enable>:
  *         and voltage regulator must be enabled (done into HAL_ADC_Init()).
  * @param hadc ADC handle
  * @retval HAL status.
  */
HAL_StatusTypeDef ADC_Enable(ADC_HandleTypeDef *hadc)
{
 8001ba4:	b580      	push	{r7, lr}
 8001ba6:	b084      	sub	sp, #16
 8001ba8:	af00      	add	r7, sp, #0
 8001baa:	6078      	str	r0, [r7, #4]
  uint32_t tickstart;
  __IO uint32_t wait_loop_index = 0UL;
 8001bac:	2300      	movs	r3, #0
 8001bae:	60bb      	str	r3, [r7, #8]

  /* ADC enable and wait for ADC ready (in case of ADC is disabled or         */
  /* enabling phase not yet completed: flag ADC ready not yet set).           */
  /* Timeout implemented to not be stuck if ADC cannot be enabled (possible   */
  /* causes: ADC clock not running, ...).                                     */
  if (LL_ADC_IsEnabled(hadc->Instance) == 0UL)
 8001bb0:	687b      	ldr	r3, [r7, #4]
 8001bb2:	681b      	ldr	r3, [r3, #0]
 8001bb4:	0018      	movs	r0, r3
 8001bb6:	f7ff facb 	bl	8001150 <LL_ADC_IsEnabled>
 8001bba:	1e03      	subs	r3, r0, #0
 8001bbc:	d000      	beq.n	8001bc0 <ADC_Enable+0x1c>
 8001bbe:	e069      	b.n	8001c94 <ADC_Enable+0xf0>
  {
    /* Check if conditions to enable the ADC are fulfilled */
    if ((hadc->Instance->CR & (ADC_CR_ADCAL | ADC_CR_ADSTP | ADC_CR_ADSTART | ADC_CR_ADDIS | ADC_CR_ADEN)) != 0UL)
 8001bc0:	687b      	ldr	r3, [r7, #4]
 8001bc2:	681b      	ldr	r3, [r3, #0]
 8001bc4:	689b      	ldr	r3, [r3, #8]
 8001bc6:	4a36      	ldr	r2, [pc, #216]	@ (8001ca0 <ADC_Enable+0xfc>)
 8001bc8:	4013      	ands	r3, r2
 8001bca:	d00d      	beq.n	8001be8 <ADC_Enable+0x44>
    {
      /* Update ADC state machine to error */
      SET_BIT(hadc->State, HAL_ADC_STATE_ERROR_INTERNAL);
 8001bcc:	687b      	ldr	r3, [r7, #4]
 8001bce:	6d9b      	ldr	r3, [r3, #88]	@ 0x58
 8001bd0:	2210      	movs	r2, #16
 8001bd2:	431a      	orrs	r2, r3
 8001bd4:	687b      	ldr	r3, [r7, #4]
 8001bd6:	659a      	str	r2, [r3, #88]	@ 0x58

      /* Set ADC error code to ADC peripheral internal error */
      SET_BIT(hadc->ErrorCode, HAL_ADC_ERROR_INTERNAL);
 8001bd8:	687b      	ldr	r3, [r7, #4]
 8001bda:	6ddb      	ldr	r3, [r3, #92]	@ 0x5c
 8001bdc:	2201      	movs	r2, #1
 8001bde:	431a      	orrs	r2, r3
 8001be0:	687b      	ldr	r3, [r7, #4]
 8001be2:	65da      	str	r2, [r3, #92]	@ 0x5c

      return HAL_ERROR;
 8001be4:	2301      	movs	r3, #1
 8001be6:	e056      	b.n	8001c96 <ADC_Enable+0xf2>
    }

    /* Enable the ADC peripheral */
    LL_ADC_Enable(hadc->Instance);
 8001be8:	687b      	ldr	r3, [r7, #4]
 8001bea:	681b      	ldr	r3, [r3, #0]
 8001bec:	0018      	movs	r0, r3
 8001bee:	f7ff fa8b 	bl	8001108 <LL_ADC_Enable>

    if ((LL_ADC_GetCommonPathInternalCh(__LL_ADC_COMMON_INSTANCE(hadc->Instance)) & LL_ADC_PATH_INTERNAL_TEMPSENSOR)
 8001bf2:	4b2c      	ldr	r3, [pc, #176]	@ (8001ca4 <ADC_Enable+0x100>)
 8001bf4:	0018      	movs	r0, r3
 8001bf6:	f7ff f9ad 	bl	8000f54 <LL_ADC_GetCommonPathInternalCh>
 8001bfa:	0002      	movs	r2, r0
 8001bfc:	2380      	movs	r3, #128	@ 0x80
 8001bfe:	041b      	lsls	r3, r3, #16
 8001c00:	4013      	ands	r3, r2
 8001c02:	d00f      	beq.n	8001c24 <ADC_Enable+0x80>
      /* Wait loop initialization and execution */
      /* Note: Variable divided by 2 to compensate partially              */
      /*       CPU processing cycles, scaling in us split to not          */
      /*       exceed 32 bits register capacity and handle low frequency. */
      wait_loop_index = ((LL_ADC_DELAY_TEMPSENSOR_BUFFER_STAB_US / 10UL)
                         * ((SystemCoreClock / (100000UL * 2UL)) + 1UL));
 8001c04:	4b28      	ldr	r3, [pc, #160]	@ (8001ca8 <ADC_Enable+0x104>)
 8001c06:	681b      	ldr	r3, [r3, #0]
 8001c08:	4928      	ldr	r1, [pc, #160]	@ (8001cac <ADC_Enable+0x108>)
 8001c0a:	0018      	movs	r0, r3
 8001c0c:	f7fe fa84 	bl	8000118 <__udivsi3>
 8001c10:	0003      	movs	r3, r0
 8001c12:	3301      	adds	r3, #1
      wait_loop_index = ((LL_ADC_DELAY_TEMPSENSOR_BUFFER_STAB_US / 10UL)
 8001c14:	60bb      	str	r3, [r7, #8]
      while (wait_loop_index != 0UL)
 8001c16:	e002      	b.n	8001c1e <ADC_Enable+0x7a>
      {
        wait_loop_index--;
 8001c18:	68bb      	ldr	r3, [r7, #8]
 8001c1a:	3b01      	subs	r3, #1
 8001c1c:	60bb      	str	r3, [r7, #8]
      while (wait_loop_index != 0UL)
 8001c1e:	68bb      	ldr	r3, [r7, #8]
 8001c20:	2b00      	cmp	r3, #0
 8001c22:	d1f9      	bne.n	8001c18 <ADC_Enable+0x74>
      }
    }

    /* If low power mode AutoPowerOff is enabled, power-on/off phases are     */
    /* performed automatically by hardware and flag ADC ready is not set.     */
    if (hadc->Init.LowPowerAutoPowerOff != ENABLE)
 8001c24:	687b      	ldr	r3, [r7, #4]
 8001c26:	7e5b      	ldrb	r3, [r3, #25]
 8001c28:	2b01      	cmp	r3, #1
 8001c2a:	d033      	beq.n	8001c94 <ADC_Enable+0xf0>
    {
      /* Wait for ADC effectively enabled */
      tickstart = HAL_GetTick();
 8001c2c:	f7ff f950 	bl	8000ed0 <HAL_GetTick>
 8001c30:	0003      	movs	r3, r0
 8001c32:	60fb      	str	r3, [r7, #12]

      while (__HAL_ADC_GET_FLAG(hadc, ADC_FLAG_RDY) == 0UL)
 8001c34:	e027      	b.n	8001c86 <ADC_Enable+0xe2>
            The workaround is to continue setting ADEN until ADRDY is becomes 1.
            Additionally, ADC_ENABLE_TIMEOUT is defined to encompass this
            4 ADC clock cycle duration */
        /* Note: Test of ADC enabled required due to hardware constraint to     */
        /*       not enable ADC if already enabled.                             */
        if (LL_ADC_IsEnabled(hadc->Instance) == 0UL)
 8001c36:	687b      	ldr	r3, [r7, #4]
 8001c38:	681b      	ldr	r3, [r3, #0]
 8001c3a:	0018      	movs	r0, r3
 8001c3c:	f7ff fa88 	bl	8001150 <LL_ADC_IsEnabled>
 8001c40:	1e03      	subs	r3, r0, #0
 8001c42:	d104      	bne.n	8001c4e <ADC_Enable+0xaa>
        {
          LL_ADC_Enable(hadc->Instance);
 8001c44:	687b      	ldr	r3, [r7, #4]
 8001c46:	681b      	ldr	r3, [r3, #0]
 8001c48:	0018      	movs	r0, r3
 8001c4a:	f7ff fa5d 	bl	8001108 <LL_ADC_Enable>
        }

        if ((HAL_GetTick() - tickstart) > ADC_ENABLE_TIMEOUT)
 8001c4e:	f7ff f93f 	bl	8000ed0 <HAL_GetTick>
 8001c52:	0002      	movs	r2, r0
 8001c54:	68fb      	ldr	r3, [r7, #12]
 8001c56:	1ad3      	subs	r3, r2, r3
 8001c58:	2b02      	cmp	r3, #2
 8001c5a:	d914      	bls.n	8001c86 <ADC_Enable+0xe2>
        {
          /* New check to avoid false timeout detection in case of preemption */
          if (__HAL_ADC_GET_FLAG(hadc, ADC_FLAG_RDY) == 0UL)
 8001c5c:	687b      	ldr	r3, [r7, #4]
 8001c5e:	681b      	ldr	r3, [r3, #0]
 8001c60:	681b      	ldr	r3, [r3, #0]
 8001c62:	2201      	movs	r2, #1
 8001c64:	4013      	ands	r3, r2
 8001c66:	2b01      	cmp	r3, #1
 8001c68:	d00d      	beq.n	8001c86 <ADC_Enable+0xe2>
          {
            /* Update ADC state machine to error */
            SET_BIT(hadc->State, HAL_ADC_STATE_ERROR_INTERNAL);
 8001c6a:	687b      	ldr	r3, [r7, #4]
 8001c6c:	6d9b      	ldr	r3, [r3, #88]	@ 0x58
 8001c6e:	2210      	movs	r2, #16
 8001c70:	431a      	orrs	r2, r3
 8001c72:	687b      	ldr	r3, [r7, #4]
 8001c74:	659a      	str	r2, [r3, #88]	@ 0x58

            /* Set ADC error code to ADC peripheral internal error */
            SET_BIT(hadc->ErrorCode, HAL_ADC_ERROR_INTERNAL);
 8001c76:	687b      	ldr	r3, [r7, #4]
 8001c78:	6ddb      	ldr	r3, [r3, #92]	@ 0x5c
 8001c7a:	2201      	movs	r2, #1
 8001c7c:	431a      	orrs	r2, r3
 8001c7e:	687b      	ldr	r3, [r7, #4]
 8001c80:	65da      	str	r2, [r3, #92]	@ 0x5c

            return HAL_ERROR;
 8001c82:	2301      	movs	r3, #1
 8001c84:	e007      	b.n	8001c96 <ADC_Enable+0xf2>
      while (__HAL_ADC_GET_FLAG(hadc, ADC_FLAG_RDY) == 0UL)
 8001c86:	687b      	ldr	r3, [r7, #4]
 8001c88:	681b      	ldr	r3, [r3, #0]
 8001c8a:	681b      	ldr	r3, [r3, #0]
 8001c8c:	2201      	movs	r2, #1
 8001c8e:	4013      	ands	r3, r2
 8001c90:	2b01      	cmp	r3, #1
 8001c92:	d1d0      	bne.n	8001c36 <ADC_Enable+0x92>
      }
    }
  }

  /* Return HAL status */
  return HAL_OK;
 8001c94:	2300      	movs	r3, #0
}
 8001c96:	0018      	movs	r0, r3
 8001c98:	46bd      	mov	sp, r7
 8001c9a:	b004      	add	sp, #16
 8001c9c:	bd80      	pop	{r7, pc}
 8001c9e:	46c0      	nop			@ (mov r8, r8)
 8001ca0:	80000017 	.word	0x80000017
 8001ca4:	40012708 	.word	0x40012708
 8001ca8:	20000000 	.word	0x20000000
 8001cac:	00030d40 	.word	0x00030d40

08001cb0 <ADC_Disable>:
  *         stopped.
  * @param hadc ADC handle
  * @retval HAL status.
  */
HAL_StatusTypeDef ADC_Disable(ADC_HandleTypeDef *hadc)
{
 8001cb0:	b580      	push	{r7, lr}
 8001cb2:	b084      	sub	sp, #16
 8001cb4:	af00      	add	r7, sp, #0
 8001cb6:	6078      	str	r0, [r7, #4]
  uint32_t tickstart;
  const uint32_t tmp_adc_is_disable_on_going = LL_ADC_IsDisableOngoing(hadc->Instance);
 8001cb8:	687b      	ldr	r3, [r7, #4]
 8001cba:	681b      	ldr	r3, [r3, #0]
 8001cbc:	0018      	movs	r0, r3
 8001cbe:	f7ff fa58 	bl	8001172 <LL_ADC_IsDisableOngoing>
 8001cc2:	0003      	movs	r3, r0
 8001cc4:	60fb      	str	r3, [r7, #12]

  /* Verification if ADC is not already disabled:                             */
  /* Note: forbidden to disable ADC (set bit ADC_CR_ADDIS) if ADC is already  */
  /*       disabled.                                                          */
  if ((LL_ADC_IsEnabled(hadc->Instance) != 0UL)
 8001cc6:	687b      	ldr	r3, [r7, #4]
 8001cc8:	681b      	ldr	r3, [r3, #0]
 8001cca:	0018      	movs	r0, r3
 8001ccc:	f7ff fa40 	bl	8001150 <LL_ADC_IsEnabled>
 8001cd0:	1e03      	subs	r3, r0, #0
 8001cd2:	d046      	beq.n	8001d62 <ADC_Disable+0xb2>
      && (tmp_adc_is_disable_on_going == 0UL)
 8001cd4:	68fb      	ldr	r3, [r7, #12]
 8001cd6:	2b00      	cmp	r3, #0
 8001cd8:	d143      	bne.n	8001d62 <ADC_Disable+0xb2>
     )
  {
    /* Check if conditions to disable the ADC are fulfilled */
    if ((hadc->Instance->CR & (ADC_CR_ADSTART | ADC_CR_ADEN)) == ADC_CR_ADEN)
 8001cda:	687b      	ldr	r3, [r7, #4]
 8001cdc:	681b      	ldr	r3, [r3, #0]
 8001cde:	689b      	ldr	r3, [r3, #8]
 8001ce0:	2205      	movs	r2, #5
 8001ce2:	4013      	ands	r3, r2
 8001ce4:	2b01      	cmp	r3, #1
 8001ce6:	d10d      	bne.n	8001d04 <ADC_Disable+0x54>
    {
      /* Disable the ADC peripheral */
      LL_ADC_Disable(hadc->Instance);
 8001ce8:	687b      	ldr	r3, [r7, #4]
 8001cea:	681b      	ldr	r3, [r3, #0]
 8001cec:	0018      	movs	r0, r3
 8001cee:	f7ff fa1d 	bl	800112c <LL_ADC_Disable>
      __HAL_ADC_CLEAR_FLAG(hadc, (ADC_FLAG_EOSMP | ADC_FLAG_RDY));
 8001cf2:	687b      	ldr	r3, [r7, #4]
 8001cf4:	681b      	ldr	r3, [r3, #0]
 8001cf6:	2203      	movs	r2, #3
 8001cf8:	601a      	str	r2, [r3, #0]
      return HAL_ERROR;
    }

    /* Wait for ADC effectively disabled */
    /* Get tick count */
    tickstart = HAL_GetTick();
 8001cfa:	f7ff f8e9 	bl	8000ed0 <HAL_GetTick>
 8001cfe:	0003      	movs	r3, r0
 8001d00:	60bb      	str	r3, [r7, #8]

    while ((hadc->Instance->CR & ADC_CR_ADEN) != 0UL)
 8001d02:	e028      	b.n	8001d56 <ADC_Disable+0xa6>
      SET_BIT(hadc->State, HAL_ADC_STATE_ERROR_INTERNAL);
 8001d04:	687b      	ldr	r3, [r7, #4]
 8001d06:	6d9b      	ldr	r3, [r3, #88]	@ 0x58
 8001d08:	2210      	movs	r2, #16
 8001d0a:	431a      	orrs	r2, r3
 8001d0c:	687b      	ldr	r3, [r7, #4]
 8001d0e:	659a      	str	r2, [r3, #88]	@ 0x58
      SET_BIT(hadc->ErrorCode, HAL_ADC_ERROR_INTERNAL);
 8001d10:	687b      	ldr	r3, [r7, #4]
 8001d12:	6ddb      	ldr	r3, [r3, #92]	@ 0x5c
 8001d14:	2201      	movs	r2, #1
 8001d16:	431a      	orrs	r2, r3
 8001d18:	687b      	ldr	r3, [r7, #4]
 8001d1a:	65da      	str	r2, [r3, #92]	@ 0x5c
      return HAL_ERROR;
 8001d1c:	2301      	movs	r3, #1
 8001d1e:	e021      	b.n	8001d64 <ADC_Disable+0xb4>
    {
      if ((HAL_GetTick() - tickstart) > ADC_DISABLE_TIMEOUT)
 8001d20:	f7ff f8d6 	bl	8000ed0 <HAL_GetTick>
 8001d24:	0002      	movs	r2, r0
 8001d26:	68bb      	ldr	r3, [r7, #8]
 8001d28:	1ad3      	subs	r3, r2, r3
 8001d2a:	2b02      	cmp	r3, #2
 8001d2c:	d913      	bls.n	8001d56 <ADC_Disable+0xa6>
      {
        /* New check to avoid false timeout detection in case of preemption */
        if ((hadc->Instance->CR & ADC_CR_ADEN) != 0UL)
 8001d2e:	687b      	ldr	r3, [r7, #4]
 8001d30:	681b      	ldr	r3, [r3, #0]
 8001d32:	689b      	ldr	r3, [r3, #8]
 8001d34:	2201      	movs	r2, #1
 8001d36:	4013      	ands	r3, r2
 8001d38:	d00d      	beq.n	8001d56 <ADC_Disable+0xa6>
        {
          /* Update ADC state machine to error */
          SET_BIT(hadc->State, HAL_ADC_STATE_ERROR_INTERNAL);
 8001d3a:	687b      	ldr	r3, [r7, #4]
 8001d3c:	6d9b      	ldr	r3, [r3, #88]	@ 0x58
 8001d3e:	2210      	movs	r2, #16
 8001d40:	431a      	orrs	r2, r3
 8001d42:	687b      	ldr	r3, [r7, #4]
 8001d44:	659a      	str	r2, [r3, #88]	@ 0x58

          /* Set ADC error code to ADC peripheral internal error */
          SET_BIT(hadc->ErrorCode, HAL_ADC_ERROR_INTERNAL);
 8001d46:	687b      	ldr	r3, [r7, #4]
 8001d48:	6ddb      	ldr	r3, [r3, #92]	@ 0x5c
 8001d4a:	2201      	movs	r2, #1
 8001d4c:	431a      	orrs	r2, r3
 8001d4e:	687b      	ldr	r3, [r7, #4]
 8001d50:	65da      	str	r2, [r3, #92]	@ 0x5c

          return HAL_ERROR;
 8001d52:	2301      	movs	r3, #1
 8001d54:	e006      	b.n	8001d64 <ADC_Disable+0xb4>
    while ((hadc->Instance->CR & ADC_CR_ADEN) != 0UL)
 8001d56:	687b      	ldr	r3, [r7, #4]
 8001d58:	681b      	ldr	r3, [r3, #0]
 8001d5a:	689b      	ldr	r3, [r3, #8]
 8001d5c:	2201      	movs	r2, #1
 8001d5e:	4013      	ands	r3, r2
 8001d60:	d1de      	bne.n	8001d20 <ADC_Disable+0x70>
      }
    }
  }

  /* Return HAL status */
  return HAL_OK;
 8001d62:	2300      	movs	r3, #0
}
 8001d64:	0018      	movs	r0, r3
 8001d66:	46bd      	mov	sp, r7
 8001d68:	b004      	add	sp, #16
 8001d6a:	bd80      	pop	{r7, pc}

08001d6c <ADC_DMAConvCplt>:
  * @brief  DMA transfer complete callback.
  * @param hdma pointer to DMA handle.
  * @retval None
  */
static void ADC_DMAConvCplt(DMA_HandleTypeDef *hdma)
{
 8001d6c:	b580      	push	{r7, lr}
 8001d6e:	b084      	sub	sp, #16
 8001d70:	af00      	add	r7, sp, #0
 8001d72:	6078      	str	r0, [r7, #4]
  /* Retrieve ADC handle corresponding to current DMA handle */
  ADC_HandleTypeDef *hadc = (ADC_HandleTypeDef *)((DMA_HandleTypeDef *)hdma)->Parent;
 8001d74:	687b      	ldr	r3, [r7, #4]
 8001d76:	6a9b      	ldr	r3, [r3, #40]	@ 0x28
 8001d78:	60fb      	str	r3, [r7, #12]

  /* Update state machine on conversion status if not in error state */
  if ((hadc->State & (HAL_ADC_STATE_ERROR_INTERNAL | HAL_ADC_STATE_ERROR_DMA)) == 0UL)
 8001d7a:	68fb      	ldr	r3, [r7, #12]
 8001d7c:	6d9b      	ldr	r3, [r3, #88]	@ 0x58
 8001d7e:	2250      	movs	r2, #80	@ 0x50
 8001d80:	4013      	ands	r3, r2
 8001d82:	d141      	bne.n	8001e08 <ADC_DMAConvCplt+0x9c>
  {
    /* Set ADC state */
    SET_BIT(hadc->State, HAL_ADC_STATE_REG_EOC);
 8001d84:	68fb      	ldr	r3, [r7, #12]
 8001d86:	6d9b      	ldr	r3, [r3, #88]	@ 0x58
 8001d88:	2280      	movs	r2, #128	@ 0x80
 8001d8a:	0092      	lsls	r2, r2, #2
 8001d8c:	431a      	orrs	r2, r3
 8001d8e:	68fb      	ldr	r3, [r7, #12]
 8001d90:	659a      	str	r2, [r3, #88]	@ 0x58

    /* Determine whether any further conversion upcoming on group regular     */
    /* by external trigger, continuous mode or scan sequence on going         */
    /* to disable interruption.                                               */
    if ((LL_ADC_REG_IsTriggerSourceSWStart(hadc->Instance) != 0UL)
 8001d92:	68fb      	ldr	r3, [r7, #12]
 8001d94:	681b      	ldr	r3, [r3, #0]
 8001d96:	0018      	movs	r0, r3
 8001d98:	f7ff f91d 	bl	8000fd6 <LL_ADC_REG_IsTriggerSourceSWStart>
 8001d9c:	1e03      	subs	r3, r0, #0
 8001d9e:	d02e      	beq.n	8001dfe <ADC_DMAConvCplt+0x92>
        && (hadc->Init.ContinuousConvMode == DISABLE)
 8001da0:	68fb      	ldr	r3, [r7, #12]
 8001da2:	7e9b      	ldrb	r3, [r3, #26]
 8001da4:	2b00      	cmp	r3, #0
 8001da6:	d12a      	bne.n	8001dfe <ADC_DMAConvCplt+0x92>
       )
    {
      /* If End of Sequence is reached, disable interrupts */
      if (__HAL_ADC_GET_FLAG(hadc, ADC_FLAG_EOS))
 8001da8:	68fb      	ldr	r3, [r7, #12]
 8001daa:	681b      	ldr	r3, [r3, #0]
 8001dac:	681b      	ldr	r3, [r3, #0]
 8001dae:	2208      	movs	r2, #8
 8001db0:	4013      	ands	r3, r2
 8001db2:	2b08      	cmp	r3, #8
 8001db4:	d123      	bne.n	8001dfe <ADC_DMAConvCplt+0x92>
      {
        /* Allowed to modify bits ADC_IT_EOC/ADC_IT_EOS only if bit           */
        /* ADSTART==0 (no conversion on going)                                */
        if (LL_ADC_REG_IsConversionOngoing(hadc->Instance) == 0UL)
 8001db6:	68fb      	ldr	r3, [r7, #12]
 8001db8:	681b      	ldr	r3, [r3, #0]
 8001dba:	0018      	movs	r0, r3
 8001dbc:	f7ff fa0e 	bl	80011dc <LL_ADC_REG_IsConversionOngoing>
 8001dc0:	1e03      	subs	r3, r0, #0
 8001dc2:	d110      	bne.n	8001de6 <ADC_DMAConvCplt+0x7a>
        {
          /* Disable ADC end of single conversion interrupt on group regular */
          /* Note: Overrun interrupt was enabled with EOC interrupt in        */
          /* HAL_Start_IT(), but is not disabled here because can be used     */
          /* by overrun IRQ process below.                                    */
          __HAL_ADC_DISABLE_IT(hadc, ADC_IT_EOC | ADC_IT_EOS);
 8001dc4:	68fb      	ldr	r3, [r7, #12]
 8001dc6:	681b      	ldr	r3, [r3, #0]
 8001dc8:	685a      	ldr	r2, [r3, #4]
 8001dca:	68fb      	ldr	r3, [r7, #12]
 8001dcc:	681b      	ldr	r3, [r3, #0]
 8001dce:	210c      	movs	r1, #12
 8001dd0:	438a      	bics	r2, r1
 8001dd2:	605a      	str	r2, [r3, #4]

          /* Set ADC state */
          ADC_STATE_CLR_SET(hadc->State,
 8001dd4:	68fb      	ldr	r3, [r7, #12]
 8001dd6:	6d9b      	ldr	r3, [r3, #88]	@ 0x58
 8001dd8:	4a15      	ldr	r2, [pc, #84]	@ (8001e30 <ADC_DMAConvCplt+0xc4>)
 8001dda:	4013      	ands	r3, r2
 8001ddc:	2201      	movs	r2, #1
 8001dde:	431a      	orrs	r2, r3
 8001de0:	68fb      	ldr	r3, [r7, #12]
 8001de2:	659a      	str	r2, [r3, #88]	@ 0x58
 8001de4:	e00b      	b.n	8001dfe <ADC_DMAConvCplt+0x92>
                            HAL_ADC_STATE_READY);
        }
        else
        {
          /* Change ADC state to error state */
          SET_BIT(hadc->State, HAL_ADC_STATE_ERROR_CONFIG);
 8001de6:	68fb      	ldr	r3, [r7, #12]
 8001de8:	6d9b      	ldr	r3, [r3, #88]	@ 0x58
 8001dea:	2220      	movs	r2, #32
 8001dec:	431a      	orrs	r2, r3
 8001dee:	68fb      	ldr	r3, [r7, #12]
 8001df0:	659a      	str	r2, [r3, #88]	@ 0x58

          /* Set ADC error code to ADC peripheral internal error */
          SET_BIT(hadc->ErrorCode, HAL_ADC_ERROR_INTERNAL);
 8001df2:	68fb      	ldr	r3, [r7, #12]
 8001df4:	6ddb      	ldr	r3, [r3, #92]	@ 0x5c
 8001df6:	2201      	movs	r2, #1
 8001df8:	431a      	orrs	r2, r3
 8001dfa:	68fb      	ldr	r3, [r7, #12]
 8001dfc:	65da      	str	r2, [r3, #92]	@ 0x5c

    /* Conversion complete callback */
#if (USE_HAL_ADC_REGISTER_CALLBACKS == 1)
    hadc->ConvCpltCallback(hadc);
#else
    HAL_ADC_ConvCpltCallback(hadc);
 8001dfe:	68fb      	ldr	r3, [r7, #12]
 8001e00:	0018      	movs	r0, r3
 8001e02:	f7fe fe15 	bl	8000a30 <HAL_ADC_ConvCpltCallback>
    {
      /* Call ADC DMA error callback */
      hadc->DMA_Handle->XferErrorCallback(hdma);
    }
  }
}
 8001e06:	e00f      	b.n	8001e28 <ADC_DMAConvCplt+0xbc>
    if ((hadc->State & HAL_ADC_STATE_ERROR_INTERNAL) != 0UL)
 8001e08:	68fb      	ldr	r3, [r7, #12]
 8001e0a:	6d9b      	ldr	r3, [r3, #88]	@ 0x58
 8001e0c:	2210      	movs	r2, #16
 8001e0e:	4013      	ands	r3, r2
 8001e10:	d004      	beq.n	8001e1c <ADC_DMAConvCplt+0xb0>
      HAL_ADC_ErrorCallback(hadc);
 8001e12:	68fb      	ldr	r3, [r7, #12]
 8001e14:	0018      	movs	r0, r3
 8001e16:	f7ff fca3 	bl	8001760 <HAL_ADC_ErrorCallback>
}
 8001e1a:	e005      	b.n	8001e28 <ADC_DMAConvCplt+0xbc>
      hadc->DMA_Handle->XferErrorCallback(hdma);
 8001e1c:	68fb      	ldr	r3, [r7, #12]
 8001e1e:	6d1b      	ldr	r3, [r3, #80]	@ 0x50
 8001e20:	6b5b      	ldr	r3, [r3, #52]	@ 0x34
 8001e22:	687a      	ldr	r2, [r7, #4]
 8001e24:	0010      	movs	r0, r2
 8001e26:	4798      	blx	r3
}
 8001e28:	46c0      	nop			@ (mov r8, r8)
 8001e2a:	46bd      	mov	sp, r7
 8001e2c:	b004      	add	sp, #16
 8001e2e:	bd80      	pop	{r7, pc}
 8001e30:	fffffefe 	.word	0xfffffefe

08001e34 <ADC_DMAHalfConvCplt>:
  * @brief  DMA half transfer complete callback.
  * @param hdma pointer to DMA handle.
  * @retval None
  */
static void ADC_DMAHalfConvCplt(DMA_HandleTypeDef *hdma)
{
 8001e34:	b580      	push	{r7, lr}
 8001e36:	b084      	sub	sp, #16
 8001e38:	af00      	add	r7, sp, #0
 8001e3a:	6078      	str	r0, [r7, #4]
  /* Retrieve ADC handle corresponding to current DMA handle */
  ADC_HandleTypeDef *hadc = (ADC_HandleTypeDef *)((DMA_HandleTypeDef *)hdma)->Parent;
 8001e3c:	687b      	ldr	r3, [r7, #4]
 8001e3e:	6a9b      	ldr	r3, [r3, #40]	@ 0x28
 8001e40:	60fb      	str	r3, [r7, #12]

  /* Half conversion callback */
#if (USE_HAL_ADC_REGISTER_CALLBACKS == 1)
  hadc->ConvHalfCpltCallback(hadc);
#else
  HAL_ADC_ConvHalfCpltCallback(hadc);
 8001e42:	68fb      	ldr	r3, [r7, #12]
 8001e44:	0018      	movs	r0, r3
 8001e46:	f7ff fc83 	bl	8001750 <HAL_ADC_ConvHalfCpltCallback>
#endif /* USE_HAL_ADC_REGISTER_CALLBACKS */
}
 8001e4a:	46c0      	nop			@ (mov r8, r8)
 8001e4c:	46bd      	mov	sp, r7
 8001e4e:	b004      	add	sp, #16
 8001e50:	bd80      	pop	{r7, pc}

08001e52 <ADC_DMAError>:
  * @brief  DMA error callback.
  * @param hdma pointer to DMA handle.
  * @retval None
  */
static void ADC_DMAError(DMA_HandleTypeDef *hdma)
{
 8001e52:	b580      	push	{r7, lr}
 8001e54:	b084      	sub	sp, #16
 8001e56:	af00      	add	r7, sp, #0
 8001e58:	6078      	str	r0, [r7, #4]
  /* Retrieve ADC handle corresponding to current DMA handle */
  ADC_HandleTypeDef *hadc = (ADC_HandleTypeDef *)((DMA_HandleTypeDef *)hdma)->Parent;
 8001e5a:	687b      	ldr	r3, [r7, #4]
 8001e5c:	6a9b      	ldr	r3, [r3, #40]	@ 0x28
 8001e5e:	60fb      	str	r3, [r7, #12]

  /* Set ADC state */
  SET_BIT(hadc->State, HAL_ADC_STATE_ERROR_DMA);
 8001e60:	68fb      	ldr	r3, [r7, #12]
 8001e62:	6d9b      	ldr	r3, [r3, #88]	@ 0x58
 8001e64:	2240      	movs	r2, #64	@ 0x40
 8001e66:	431a      	orrs	r2, r3
 8001e68:	68fb      	ldr	r3, [r7, #12]
 8001e6a:	659a      	str	r2, [r3, #88]	@ 0x58

  /* Set ADC error code to DMA error */
  SET_BIT(hadc->ErrorCode, HAL_ADC_ERROR_DMA);
 8001e6c:	68fb      	ldr	r3, [r7, #12]
 8001e6e:	6ddb      	ldr	r3, [r3, #92]	@ 0x5c
 8001e70:	2204      	movs	r2, #4
 8001e72:	431a      	orrs	r2, r3
 8001e74:	68fb      	ldr	r3, [r7, #12]
 8001e76:	65da      	str	r2, [r3, #92]	@ 0x5c

  /* Error callback */
#if (USE_HAL_ADC_REGISTER_CALLBACKS == 1)
  hadc->ErrorCallback(hadc);
#else
  HAL_ADC_ErrorCallback(hadc);
 8001e78:	68fb      	ldr	r3, [r7, #12]
 8001e7a:	0018      	movs	r0, r3
 8001e7c:	f7ff fc70 	bl	8001760 <HAL_ADC_ErrorCallback>
#endif /* USE_HAL_ADC_REGISTER_CALLBACKS */
}
 8001e80:	46c0      	nop			@ (mov r8, r8)
 8001e82:	46bd      	mov	sp, r7
 8001e84:	b004      	add	sp, #16
 8001e86:	bd80      	pop	{r7, pc}

08001e88 <LL_ADC_GetCommonClock>:
{
 8001e88:	b580      	push	{r7, lr}
 8001e8a:	b082      	sub	sp, #8
 8001e8c:	af00      	add	r7, sp, #0
 8001e8e:	6078      	str	r0, [r7, #4]
  return (uint32_t)(READ_BIT(ADCxy_COMMON->CCR, ADC_CCR_PRESC));
 8001e90:	687b      	ldr	r3, [r7, #4]
 8001e92:	681a      	ldr	r2, [r3, #0]
 8001e94:	23f0      	movs	r3, #240	@ 0xf0
 8001e96:	039b      	lsls	r3, r3, #14
 8001e98:	4013      	ands	r3, r2
}
 8001e9a:	0018      	movs	r0, r3
 8001e9c:	46bd      	mov	sp, r7
 8001e9e:	b002      	add	sp, #8
 8001ea0:	bd80      	pop	{r7, pc}

08001ea2 <LL_ADC_GetClock>:
{
 8001ea2:	b580      	push	{r7, lr}
 8001ea4:	b082      	sub	sp, #8
 8001ea6:	af00      	add	r7, sp, #0
 8001ea8:	6078      	str	r0, [r7, #4]
  return (uint32_t)(READ_BIT(ADCx->CFGR2, ADC_CFGR2_CKMODE));
 8001eaa:	687b      	ldr	r3, [r7, #4]
 8001eac:	691b      	ldr	r3, [r3, #16]
 8001eae:	0f9b      	lsrs	r3, r3, #30
 8001eb0:	079b      	lsls	r3, r3, #30
}
 8001eb2:	0018      	movs	r0, r3
 8001eb4:	46bd      	mov	sp, r7
 8001eb6:	b002      	add	sp, #8
 8001eb8:	bd80      	pop	{r7, pc}

08001eba <LL_ADC_SetCalibrationFactor>:
{
 8001eba:	b580      	push	{r7, lr}
 8001ebc:	b082      	sub	sp, #8
 8001ebe:	af00      	add	r7, sp, #0
 8001ec0:	6078      	str	r0, [r7, #4]
 8001ec2:	6039      	str	r1, [r7, #0]
  MODIFY_REG(ADCx->CALFACT,
 8001ec4:	687b      	ldr	r3, [r7, #4]
 8001ec6:	22b4      	movs	r2, #180	@ 0xb4
 8001ec8:	589b      	ldr	r3, [r3, r2]
 8001eca:	227f      	movs	r2, #127	@ 0x7f
 8001ecc:	4393      	bics	r3, r2
 8001ece:	001a      	movs	r2, r3
 8001ed0:	683b      	ldr	r3, [r7, #0]
 8001ed2:	431a      	orrs	r2, r3
 8001ed4:	687b      	ldr	r3, [r7, #4]
 8001ed6:	21b4      	movs	r1, #180	@ 0xb4
 8001ed8:	505a      	str	r2, [r3, r1]
}
 8001eda:	46c0      	nop			@ (mov r8, r8)
 8001edc:	46bd      	mov	sp, r7
 8001ede:	b002      	add	sp, #8
 8001ee0:	bd80      	pop	{r7, pc}

08001ee2 <LL_ADC_GetCalibrationFactor>:
{
 8001ee2:	b580      	push	{r7, lr}
 8001ee4:	b082      	sub	sp, #8
 8001ee6:	af00      	add	r7, sp, #0
 8001ee8:	6078      	str	r0, [r7, #4]
  return (uint32_t)(READ_BIT(ADCx->CALFACT, ADC_CALFACT_CALFACT));
 8001eea:	687b      	ldr	r3, [r7, #4]
 8001eec:	22b4      	movs	r2, #180	@ 0xb4
 8001eee:	589b      	ldr	r3, [r3, r2]
 8001ef0:	227f      	movs	r2, #127	@ 0x7f
 8001ef2:	4013      	ands	r3, r2
}
 8001ef4:	0018      	movs	r0, r3
 8001ef6:	46bd      	mov	sp, r7
 8001ef8:	b002      	add	sp, #8
 8001efa:	bd80      	pop	{r7, pc}

08001efc <LL_ADC_Enable>:
{
 8001efc:	b580      	push	{r7, lr}
 8001efe:	b082      	sub	sp, #8
 8001f00:	af00      	add	r7, sp, #0
 8001f02:	6078      	str	r0, [r7, #4]
  MODIFY_REG(ADCx->CR,
 8001f04:	687b      	ldr	r3, [r7, #4]
 8001f06:	689b      	ldr	r3, [r3, #8]
 8001f08:	4a04      	ldr	r2, [pc, #16]	@ (8001f1c <LL_ADC_Enable+0x20>)
 8001f0a:	4013      	ands	r3, r2
 8001f0c:	2201      	movs	r2, #1
 8001f0e:	431a      	orrs	r2, r3
 8001f10:	687b      	ldr	r3, [r7, #4]
 8001f12:	609a      	str	r2, [r3, #8]
}
 8001f14:	46c0      	nop			@ (mov r8, r8)
 8001f16:	46bd      	mov	sp, r7
 8001f18:	b002      	add	sp, #8
 8001f1a:	bd80      	pop	{r7, pc}
 8001f1c:	7fffffe8 	.word	0x7fffffe8

08001f20 <LL_ADC_Disable>:
{
 8001f20:	b580      	push	{r7, lr}
 8001f22:	b082      	sub	sp, #8
 8001f24:	af00      	add	r7, sp, #0
 8001f26:	6078      	str	r0, [r7, #4]
  MODIFY_REG(ADCx->CR,
 8001f28:	687b      	ldr	r3, [r7, #4]
 8001f2a:	689b      	ldr	r3, [r3, #8]
 8001f2c:	4a04      	ldr	r2, [pc, #16]	@ (8001f40 <LL_ADC_Disable+0x20>)
 8001f2e:	4013      	ands	r3, r2
 8001f30:	2202      	movs	r2, #2
 8001f32:	431a      	orrs	r2, r3
 8001f34:	687b      	ldr	r3, [r7, #4]
 8001f36:	609a      	str	r2, [r3, #8]
}
 8001f38:	46c0      	nop			@ (mov r8, r8)
 8001f3a:	46bd      	mov	sp, r7
 8001f3c:	b002      	add	sp, #8
 8001f3e:	bd80      	pop	{r7, pc}
 8001f40:	7fffffe8 	.word	0x7fffffe8

08001f44 <LL_ADC_IsEnabled>:
{
 8001f44:	b580      	push	{r7, lr}
 8001f46:	b082      	sub	sp, #8
 8001f48:	af00      	add	r7, sp, #0
 8001f4a:	6078      	str	r0, [r7, #4]
  return ((READ_BIT(ADCx->CR, ADC_CR_ADEN) == (ADC_CR_ADEN)) ? 1UL : 0UL);
 8001f4c:	687b      	ldr	r3, [r7, #4]
 8001f4e:	689b      	ldr	r3, [r3, #8]
 8001f50:	2201      	movs	r2, #1
 8001f52:	4013      	ands	r3, r2
 8001f54:	2b01      	cmp	r3, #1
 8001f56:	d101      	bne.n	8001f5c <LL_ADC_IsEnabled+0x18>
 8001f58:	2301      	movs	r3, #1
 8001f5a:	e000      	b.n	8001f5e <LL_ADC_IsEnabled+0x1a>
 8001f5c:	2300      	movs	r3, #0
}
 8001f5e:	0018      	movs	r0, r3
 8001f60:	46bd      	mov	sp, r7
 8001f62:	b002      	add	sp, #8
 8001f64:	bd80      	pop	{r7, pc}
	...

08001f68 <LL_ADC_StartCalibration>:
{
 8001f68:	b580      	push	{r7, lr}
 8001f6a:	b082      	sub	sp, #8
 8001f6c:	af00      	add	r7, sp, #0
 8001f6e:	6078      	str	r0, [r7, #4]
  MODIFY_REG(ADCx->CR,
 8001f70:	687b      	ldr	r3, [r7, #4]
 8001f72:	689b      	ldr	r3, [r3, #8]
 8001f74:	4a05      	ldr	r2, [pc, #20]	@ (8001f8c <LL_ADC_StartCalibration+0x24>)
 8001f76:	4013      	ands	r3, r2
 8001f78:	2280      	movs	r2, #128	@ 0x80
 8001f7a:	0612      	lsls	r2, r2, #24
 8001f7c:	431a      	orrs	r2, r3
 8001f7e:	687b      	ldr	r3, [r7, #4]
 8001f80:	609a      	str	r2, [r3, #8]
}
 8001f82:	46c0      	nop			@ (mov r8, r8)
 8001f84:	46bd      	mov	sp, r7
 8001f86:	b002      	add	sp, #8
 8001f88:	bd80      	pop	{r7, pc}
 8001f8a:	46c0      	nop			@ (mov r8, r8)
 8001f8c:	7fffffe8 	.word	0x7fffffe8

08001f90 <LL_ADC_IsCalibrationOnGoing>:
{
 8001f90:	b580      	push	{r7, lr}
 8001f92:	b082      	sub	sp, #8
 8001f94:	af00      	add	r7, sp, #0
 8001f96:	6078      	str	r0, [r7, #4]
  return ((READ_BIT(ADCx->CR, ADC_CR_ADCAL) == (ADC_CR_ADCAL)) ? 1UL : 0UL);
 8001f98:	687b      	ldr	r3, [r7, #4]
 8001f9a:	689b      	ldr	r3, [r3, #8]
 8001f9c:	0fdb      	lsrs	r3, r3, #31
 8001f9e:	07da      	lsls	r2, r3, #31
 8001fa0:	2380      	movs	r3, #128	@ 0x80
 8001fa2:	061b      	lsls	r3, r3, #24
 8001fa4:	429a      	cmp	r2, r3
 8001fa6:	d101      	bne.n	8001fac <LL_ADC_IsCalibrationOnGoing+0x1c>
 8001fa8:	2301      	movs	r3, #1
 8001faa:	e000      	b.n	8001fae <LL_ADC_IsCalibrationOnGoing+0x1e>
 8001fac:	2300      	movs	r3, #0
}
 8001fae:	0018      	movs	r0, r3
 8001fb0:	46bd      	mov	sp, r7
 8001fb2:	b002      	add	sp, #8
 8001fb4:	bd80      	pop	{r7, pc}
	...

08001fb8 <HAL_ADCEx_Calibration_Start>:
  *         HAL_ADC_GetValue() (value on 7 bits: from DR[6;0]).
  * @param  hadc       ADC handle
  * @retval HAL status
  */
HAL_StatusTypeDef HAL_ADCEx_Calibration_Start(ADC_HandleTypeDef *hadc)
{
 8001fb8:	b590      	push	{r4, r7, lr}
 8001fba:	b08b      	sub	sp, #44	@ 0x2c
 8001fbc:	af00      	add	r7, sp, #0
 8001fbe:	6078      	str	r0, [r7, #4]
  HAL_StatusTypeDef tmp_hal_status;
  __IO uint32_t wait_loop_index = 0UL;
 8001fc0:	2300      	movs	r3, #0
 8001fc2:	60fb      	str	r3, [r7, #12]
  uint32_t backup_setting_cfgr1;
  uint32_t calibration_index;
  uint32_t calibration_factor_accumulated = 0;
 8001fc4:	2300      	movs	r3, #0
 8001fc6:	623b      	str	r3, [r7, #32]
  __IO uint32_t delay_cpu_cycles;

  /* Check the parameters */
  assert_param(IS_ADC_ALL_INSTANCE(hadc->Instance));

  __HAL_LOCK(hadc);
 8001fc8:	687b      	ldr	r3, [r7, #4]
 8001fca:	2254      	movs	r2, #84	@ 0x54
 8001fcc:	5c9b      	ldrb	r3, [r3, r2]
 8001fce:	2b01      	cmp	r3, #1
 8001fd0:	d101      	bne.n	8001fd6 <HAL_ADCEx_Calibration_Start+0x1e>
 8001fd2:	2302      	movs	r3, #2
 8001fd4:	e0dd      	b.n	8002192 <HAL_ADCEx_Calibration_Start+0x1da>
 8001fd6:	687b      	ldr	r3, [r7, #4]
 8001fd8:	2254      	movs	r2, #84	@ 0x54
 8001fda:	2101      	movs	r1, #1
 8001fdc:	5499      	strb	r1, [r3, r2]

  /* Calibration prerequisite: ADC must be disabled. */

  /* Disable the ADC (if not already disabled) */
  tmp_hal_status = ADC_Disable(hadc);
 8001fde:	231f      	movs	r3, #31
 8001fe0:	18fc      	adds	r4, r7, r3
 8001fe2:	687b      	ldr	r3, [r7, #4]
 8001fe4:	0018      	movs	r0, r3
 8001fe6:	f7ff fe63 	bl	8001cb0 <ADC_Disable>
 8001fea:	0003      	movs	r3, r0
 8001fec:	7023      	strb	r3, [r4, #0]

  /* Check if ADC is effectively disabled */
  if (LL_ADC_IsEnabled(hadc->Instance) == 0UL)
 8001fee:	687b      	ldr	r3, [r7, #4]
 8001ff0:	681b      	ldr	r3, [r3, #0]
 8001ff2:	0018      	movs	r0, r3
 8001ff4:	f7ff ffa6 	bl	8001f44 <LL_ADC_IsEnabled>
 8001ff8:	1e03      	subs	r3, r0, #0
 8001ffa:	d000      	beq.n	8001ffe <HAL_ADCEx_Calibration_Start+0x46>
 8001ffc:	e0bc      	b.n	8002178 <HAL_ADCEx_Calibration_Start+0x1c0>
  {
    /* Set ADC state */
    ADC_STATE_CLR_SET(hadc->State,
 8001ffe:	687b      	ldr	r3, [r7, #4]
 8002000:	6d9b      	ldr	r3, [r3, #88]	@ 0x58
 8002002:	4a66      	ldr	r2, [pc, #408]	@ (800219c <HAL_ADCEx_Calibration_Start+0x1e4>)
 8002004:	4013      	ands	r3, r2
 8002006:	2202      	movs	r2, #2
 8002008:	431a      	orrs	r2, r3
 800200a:	687b      	ldr	r3, [r7, #4]
 800200c:	659a      	str	r2, [r3, #88]	@ 0x58
    /* Note: Specificity of this STM32 series: Calibration factor is          */
    /*       available in data register and also transferred by DMA.          */
    /*       To not insert ADC calibration factor among ADC conversion data   */
    /*       in array variable, DMA transfer must be disabled during          */
    /*       calibration.                                                     */
    backup_setting_cfgr1 = READ_BIT(hadc->Instance->CFGR1, ADC_CFGR1_DMAEN | ADC_CFGR1_DMACFG | ADC_CFGR1_AUTOFF);
 800200e:	687b      	ldr	r3, [r7, #4]
 8002010:	681b      	ldr	r3, [r3, #0]
 8002012:	68db      	ldr	r3, [r3, #12]
 8002014:	4a62      	ldr	r2, [pc, #392]	@ (80021a0 <HAL_ADCEx_Calibration_Start+0x1e8>)
 8002016:	4013      	ands	r3, r2
 8002018:	61bb      	str	r3, [r7, #24]
    CLEAR_BIT(hadc->Instance->CFGR1, ADC_CFGR1_DMAEN | ADC_CFGR1_DMACFG | ADC_CFGR1_AUTOFF);
 800201a:	687b      	ldr	r3, [r7, #4]
 800201c:	681b      	ldr	r3, [r3, #0]
 800201e:	68da      	ldr	r2, [r3, #12]
 8002020:	687b      	ldr	r3, [r7, #4]
 8002022:	681b      	ldr	r3, [r3, #0]
 8002024:	495f      	ldr	r1, [pc, #380]	@ (80021a4 <HAL_ADCEx_Calibration_Start+0x1ec>)
 8002026:	400a      	ands	r2, r1
 8002028:	60da      	str	r2, [r3, #12]

    /* ADC calibration procedure */
    /* Note: Perform an averaging of 8 calibrations for optimized accuracy */
    for (calibration_index = 0UL; calibration_index < 8UL; calibration_index++)
 800202a:	2300      	movs	r3, #0
 800202c:	627b      	str	r3, [r7, #36]	@ 0x24
 800202e:	e02d      	b.n	800208c <HAL_ADCEx_Calibration_Start+0xd4>
    {
      /* Start ADC calibration */
      LL_ADC_StartCalibration(hadc->Instance);
 8002030:	687b      	ldr	r3, [r7, #4]
 8002032:	681b      	ldr	r3, [r3, #0]
 8002034:	0018      	movs	r0, r3
 8002036:	f7ff ff97 	bl	8001f68 <LL_ADC_StartCalibration>

      /* Wait for calibration completion */
      while (LL_ADC_IsCalibrationOnGoing(hadc->Instance) != 0UL)
 800203a:	e014      	b.n	8002066 <HAL_ADCEx_Calibration_Start+0xae>
      {
        wait_loop_index++;
 800203c:	68fb      	ldr	r3, [r7, #12]
 800203e:	3301      	adds	r3, #1
 8002040:	60fb      	str	r3, [r7, #12]
        if (wait_loop_index >= ADC_CALIBRATION_TIMEOUT)
 8002042:	68fb      	ldr	r3, [r7, #12]
 8002044:	4a58      	ldr	r2, [pc, #352]	@ (80021a8 <HAL_ADCEx_Calibration_Start+0x1f0>)
 8002046:	4293      	cmp	r3, r2
 8002048:	d90d      	bls.n	8002066 <HAL_ADCEx_Calibration_Start+0xae>
        {
          /* Update ADC state machine to error */
          ADC_STATE_CLR_SET(hadc->State,
 800204a:	687b      	ldr	r3, [r7, #4]
 800204c:	6d9b      	ldr	r3, [r3, #88]	@ 0x58
 800204e:	2212      	movs	r2, #18
 8002050:	4393      	bics	r3, r2
 8002052:	2210      	movs	r2, #16
 8002054:	431a      	orrs	r2, r3
 8002056:	687b      	ldr	r3, [r7, #4]
 8002058:	659a      	str	r2, [r3, #88]	@ 0x58
                            HAL_ADC_STATE_BUSY_INTERNAL,
                            HAL_ADC_STATE_ERROR_INTERNAL);

          __HAL_UNLOCK(hadc);
 800205a:	687b      	ldr	r3, [r7, #4]
 800205c:	2254      	movs	r2, #84	@ 0x54
 800205e:	2100      	movs	r1, #0
 8002060:	5499      	strb	r1, [r3, r2]

          return HAL_ERROR;
 8002062:	2301      	movs	r3, #1
 8002064:	e095      	b.n	8002192 <HAL_ADCEx_Calibration_Start+0x1da>
      while (LL_ADC_IsCalibrationOnGoing(hadc->Instance) != 0UL)
 8002066:	687b      	ldr	r3, [r7, #4]
 8002068:	681b      	ldr	r3, [r3, #0]
 800206a:	0018      	movs	r0, r3
 800206c:	f7ff ff90 	bl	8001f90 <LL_ADC_IsCalibrationOnGoing>
 8002070:	1e03      	subs	r3, r0, #0
 8002072:	d1e3      	bne.n	800203c <HAL_ADCEx_Calibration_Start+0x84>
        }
      }

      calibration_factor_accumulated += LL_ADC_GetCalibrationFactor(hadc->Instance);
 8002074:	687b      	ldr	r3, [r7, #4]
 8002076:	681b      	ldr	r3, [r3, #0]
 8002078:	0018      	movs	r0, r3
 800207a:	f7ff ff32 	bl	8001ee2 <LL_ADC_GetCalibrationFactor>
 800207e:	0002      	movs	r2, r0
 8002080:	6a3b      	ldr	r3, [r7, #32]
 8002082:	189b      	adds	r3, r3, r2
 8002084:	623b      	str	r3, [r7, #32]
    for (calibration_index = 0UL; calibration_index < 8UL; calibration_index++)
 8002086:	6a7b      	ldr	r3, [r7, #36]	@ 0x24
 8002088:	3301      	adds	r3, #1
 800208a:	627b      	str	r3, [r7, #36]	@ 0x24
 800208c:	6a7b      	ldr	r3, [r7, #36]	@ 0x24
 800208e:	2b07      	cmp	r3, #7
 8002090:	d9ce      	bls.n	8002030 <HAL_ADCEx_Calibration_Start+0x78>
    }
    /* Compute average */
    calibration_factor_accumulated /= calibration_index;
 8002092:	6a79      	ldr	r1, [r7, #36]	@ 0x24
 8002094:	6a38      	ldr	r0, [r7, #32]
 8002096:	f7fe f83f 	bl	8000118 <__udivsi3>
 800209a:	0003      	movs	r3, r0
 800209c:	623b      	str	r3, [r7, #32]

    /* Apply calibration factor (requires ADC enable and disable process) */
    LL_ADC_Enable(hadc->Instance);
 800209e:	687b      	ldr	r3, [r7, #4]
 80020a0:	681b      	ldr	r3, [r3, #0]
 80020a2:	0018      	movs	r0, r3
 80020a4:	f7ff ff2a 	bl	8001efc <LL_ADC_Enable>

    /* Case of ADC clocked at low frequency: Delay required between ADC enable and disable actions */
    if (LL_ADC_GetClock(hadc->Instance) == LL_ADC_CLOCK_ASYNC)
 80020a8:	687b      	ldr	r3, [r7, #4]
 80020aa:	681b      	ldr	r3, [r3, #0]
 80020ac:	0018      	movs	r0, r3
 80020ae:	f7ff fef8 	bl	8001ea2 <LL_ADC_GetClock>
 80020b2:	1e03      	subs	r3, r0, #0
 80020b4:	d11b      	bne.n	80020ee <HAL_ADCEx_Calibration_Start+0x136>
    {
      adc_clk_async_presc = LL_ADC_GetCommonClock(__LL_ADC_COMMON_INSTANCE(hadc->Instance));
 80020b6:	4b3d      	ldr	r3, [pc, #244]	@ (80021ac <HAL_ADCEx_Calibration_Start+0x1f4>)
 80020b8:	0018      	movs	r0, r3
 80020ba:	f7ff fee5 	bl	8001e88 <LL_ADC_GetCommonClock>
 80020be:	0003      	movs	r3, r0
 80020c0:	617b      	str	r3, [r7, #20]

      if (adc_clk_async_presc >= LL_ADC_CLOCK_ASYNC_DIV16)
 80020c2:	697a      	ldr	r2, [r7, #20]
 80020c4:	23e0      	movs	r3, #224	@ 0xe0
 80020c6:	035b      	lsls	r3, r3, #13
 80020c8:	429a      	cmp	r2, r3
 80020ca:	d310      	bcc.n	80020ee <HAL_ADCEx_Calibration_Start+0x136>
      {
        /* Delay loop initialization and execution */
        /* Delay depends on ADC clock prescaler: Compute ADC clock asynchronous prescaler to decimal format */
        delay_cpu_cycles = (1UL << ((adc_clk_async_presc >> ADC_CCR_PRESC_Pos) - 3UL));
 80020cc:	697b      	ldr	r3, [r7, #20]
 80020ce:	0c9b      	lsrs	r3, r3, #18
 80020d0:	3b03      	subs	r3, #3
 80020d2:	2201      	movs	r2, #1
 80020d4:	409a      	lsls	r2, r3
 80020d6:	0013      	movs	r3, r2
 80020d8:	60bb      	str	r3, [r7, #8]
        /* Divide variable by 2 to compensate partially CPU processing cycles */
        delay_cpu_cycles >>= 1UL;
 80020da:	68bb      	ldr	r3, [r7, #8]
 80020dc:	085b      	lsrs	r3, r3, #1
 80020de:	60bb      	str	r3, [r7, #8]

        while (delay_cpu_cycles != 0UL)
 80020e0:	e002      	b.n	80020e8 <HAL_ADCEx_Calibration_Start+0x130>
        {
          delay_cpu_cycles--;
 80020e2:	68bb      	ldr	r3, [r7, #8]
 80020e4:	3b01      	subs	r3, #1
 80020e6:	60bb      	str	r3, [r7, #8]
        while (delay_cpu_cycles != 0UL)
 80020e8:	68bb      	ldr	r3, [r7, #8]
 80020ea:	2b00      	cmp	r3, #0
 80020ec:	d1f9      	bne.n	80020e2 <HAL_ADCEx_Calibration_Start+0x12a>
        }
      }
    }

    LL_ADC_SetCalibrationFactor(hadc->Instance, calibration_factor_accumulated);
 80020ee:	687b      	ldr	r3, [r7, #4]
 80020f0:	681b      	ldr	r3, [r3, #0]
 80020f2:	6a3a      	ldr	r2, [r7, #32]
 80020f4:	0011      	movs	r1, r2
 80020f6:	0018      	movs	r0, r3
 80020f8:	f7ff fedf 	bl	8001eba <LL_ADC_SetCalibrationFactor>
    LL_ADC_Disable(hadc->Instance);
 80020fc:	687b      	ldr	r3, [r7, #4]
 80020fe:	681b      	ldr	r3, [r3, #0]
 8002100:	0018      	movs	r0, r3
 8002102:	f7ff ff0d 	bl	8001f20 <LL_ADC_Disable>

    /* Wait for ADC effectively disabled before changing configuration */
    /* Get tick count */
    tickstart = HAL_GetTick();
 8002106:	f7fe fee3 	bl	8000ed0 <HAL_GetTick>
 800210a:	0003      	movs	r3, r0
 800210c:	613b      	str	r3, [r7, #16]

    while (LL_ADC_IsEnabled(hadc->Instance) != 0UL)
 800210e:	e01b      	b.n	8002148 <HAL_ADCEx_Calibration_Start+0x190>
    {
      if ((HAL_GetTick() - tickstart) > ADC_DISABLE_TIMEOUT)
 8002110:	f7fe fede 	bl	8000ed0 <HAL_GetTick>
 8002114:	0002      	movs	r2, r0
 8002116:	693b      	ldr	r3, [r7, #16]
 8002118:	1ad3      	subs	r3, r2, r3
 800211a:	2b02      	cmp	r3, #2
 800211c:	d914      	bls.n	8002148 <HAL_ADCEx_Calibration_Start+0x190>
      {
        /* New check to avoid false timeout detection in case of preemption */
        if (LL_ADC_IsEnabled(hadc->Instance) != 0UL)
 800211e:	687b      	ldr	r3, [r7, #4]
 8002120:	681b      	ldr	r3, [r3, #0]
 8002122:	0018      	movs	r0, r3
 8002124:	f7ff ff0e 	bl	8001f44 <LL_ADC_IsEnabled>
 8002128:	1e03      	subs	r3, r0, #0
 800212a:	d00d      	beq.n	8002148 <HAL_ADCEx_Calibration_Start+0x190>
        {
          /* Update ADC state machine to error */
          SET_BIT(hadc->State, HAL_ADC_STATE_ERROR_INTERNAL);
 800212c:	687b      	ldr	r3, [r7, #4]
 800212e:	6d9b      	ldr	r3, [r3, #88]	@ 0x58
 8002130:	2210      	movs	r2, #16
 8002132:	431a      	orrs	r2, r3
 8002134:	687b      	ldr	r3, [r7, #4]
 8002136:	659a      	str	r2, [r3, #88]	@ 0x58

          /* Set ADC error code to ADC peripheral internal error */
          SET_BIT(hadc->ErrorCode, HAL_ADC_ERROR_INTERNAL);
 8002138:	687b      	ldr	r3, [r7, #4]
 800213a:	6ddb      	ldr	r3, [r3, #92]	@ 0x5c
 800213c:	2201      	movs	r2, #1
 800213e:	431a      	orrs	r2, r3
 8002140:	687b      	ldr	r3, [r7, #4]
 8002142:	65da      	str	r2, [r3, #92]	@ 0x5c

          return HAL_ERROR;
 8002144:	2301      	movs	r3, #1
 8002146:	e024      	b.n	8002192 <HAL_ADCEx_Calibration_Start+0x1da>
    while (LL_ADC_IsEnabled(hadc->Instance) != 0UL)
 8002148:	687b      	ldr	r3, [r7, #4]
 800214a:	681b      	ldr	r3, [r3, #0]
 800214c:	0018      	movs	r0, r3
 800214e:	f7ff fef9 	bl	8001f44 <LL_ADC_IsEnabled>
 8002152:	1e03      	subs	r3, r0, #0
 8002154:	d1dc      	bne.n	8002110 <HAL_ADCEx_Calibration_Start+0x158>
        }
      }
    }

    /* Restore configuration after calibration */
    SET_BIT(hadc->Instance->CFGR1, backup_setting_cfgr1);
 8002156:	687b      	ldr	r3, [r7, #4]
 8002158:	681b      	ldr	r3, [r3, #0]
 800215a:	68d9      	ldr	r1, [r3, #12]
 800215c:	687b      	ldr	r3, [r7, #4]
 800215e:	681b      	ldr	r3, [r3, #0]
 8002160:	69ba      	ldr	r2, [r7, #24]
 8002162:	430a      	orrs	r2, r1
 8002164:	60da      	str	r2, [r3, #12]

    /* Set ADC state */
    ADC_STATE_CLR_SET(hadc->State,
 8002166:	687b      	ldr	r3, [r7, #4]
 8002168:	6d9b      	ldr	r3, [r3, #88]	@ 0x58
 800216a:	2203      	movs	r2, #3
 800216c:	4393      	bics	r3, r2
 800216e:	2201      	movs	r2, #1
 8002170:	431a      	orrs	r2, r3
 8002172:	687b      	ldr	r3, [r7, #4]
 8002174:	659a      	str	r2, [r3, #88]	@ 0x58
 8002176:	e005      	b.n	8002184 <HAL_ADCEx_Calibration_Start+0x1cc>
                      HAL_ADC_STATE_BUSY_INTERNAL,
                      HAL_ADC_STATE_READY);
  }
  else
  {
    SET_BIT(hadc->State, HAL_ADC_STATE_ERROR_INTERNAL);
 8002178:	687b      	ldr	r3, [r7, #4]
 800217a:	6d9b      	ldr	r3, [r3, #88]	@ 0x58
 800217c:	2210      	movs	r2, #16
 800217e:	431a      	orrs	r2, r3
 8002180:	687b      	ldr	r3, [r7, #4]
 8002182:	659a      	str	r2, [r3, #88]	@ 0x58

    /* Note: No need to update variable "tmp_hal_status" here: already set    */
    /*       to state "HAL_ERROR" by function disabling the ADC.              */
  }

  __HAL_UNLOCK(hadc);
 8002184:	687b      	ldr	r3, [r7, #4]
 8002186:	2254      	movs	r2, #84	@ 0x54
 8002188:	2100      	movs	r1, #0
 800218a:	5499      	strb	r1, [r3, r2]

  return tmp_hal_status;
 800218c:	231f      	movs	r3, #31
 800218e:	18fb      	adds	r3, r7, r3
 8002190:	781b      	ldrb	r3, [r3, #0]
}
 8002192:	0018      	movs	r0, r3
 8002194:	46bd      	mov	sp, r7
 8002196:	b00b      	add	sp, #44	@ 0x2c
 8002198:	bd90      	pop	{r4, r7, pc}
 800219a:	46c0      	nop			@ (mov r8, r8)
 800219c:	fffffefd 	.word	0xfffffefd
 80021a0:	00008003 	.word	0x00008003
 80021a4:	ffff7ffc 	.word	0xffff7ffc
 80021a8:	0002f1ff 	.word	0x0002f1ff
 80021ac:	40012708 	.word	0x40012708

080021b0 <__NVIC_EnableIRQ>:
  \details Enables a device specific interrupt in the NVIC interrupt controller.
  \param [in]      IRQn  Device specific interrupt number.
  \note    IRQn must not be negative.
 */
__STATIC_INLINE void __NVIC_EnableIRQ(IRQn_Type IRQn)
{
 80021b0:	b580      	push	{r7, lr}
 80021b2:	b082      	sub	sp, #8
 80021b4:	af00      	add	r7, sp, #0
 80021b6:	0002      	movs	r2, r0
 80021b8:	1dfb      	adds	r3, r7, #7
 80021ba:	701a      	strb	r2, [r3, #0]
  if ((int32_t)(IRQn) >= 0)
 80021bc:	1dfb      	adds	r3, r7, #7
 80021be:	781b      	ldrb	r3, [r3, #0]
 80021c0:	2b7f      	cmp	r3, #127	@ 0x7f
 80021c2:	d809      	bhi.n	80021d8 <__NVIC_EnableIRQ+0x28>
  {
    __COMPILER_BARRIER();
    NVIC->ISER[0U] = (uint32_t)(1UL << (((uint32_t)IRQn) & 0x1FUL));
 80021c4:	1dfb      	adds	r3, r7, #7
 80021c6:	781b      	ldrb	r3, [r3, #0]
 80021c8:	001a      	movs	r2, r3
 80021ca:	231f      	movs	r3, #31
 80021cc:	401a      	ands	r2, r3
 80021ce:	4b04      	ldr	r3, [pc, #16]	@ (80021e0 <__NVIC_EnableIRQ+0x30>)
 80021d0:	2101      	movs	r1, #1
 80021d2:	4091      	lsls	r1, r2
 80021d4:	000a      	movs	r2, r1
 80021d6:	601a      	str	r2, [r3, #0]
    __COMPILER_BARRIER();
  }
}
 80021d8:	46c0      	nop			@ (mov r8, r8)
 80021da:	46bd      	mov	sp, r7
 80021dc:	b002      	add	sp, #8
 80021de:	bd80      	pop	{r7, pc}
 80021e0:	e000e100 	.word	0xe000e100

080021e4 <__NVIC_SetPriority>:
  \param [in]      IRQn  Interrupt number.
  \param [in]  priority  Priority to set.
  \note    The priority cannot be set for every processor exception.
 */
__STATIC_INLINE void __NVIC_SetPriority(IRQn_Type IRQn, uint32_t priority)
{
 80021e4:	b590      	push	{r4, r7, lr}
 80021e6:	b083      	sub	sp, #12
 80021e8:	af00      	add	r7, sp, #0
 80021ea:	0002      	movs	r2, r0
 80021ec:	6039      	str	r1, [r7, #0]
 80021ee:	1dfb      	adds	r3, r7, #7
 80021f0:	701a      	strb	r2, [r3, #0]
  if ((int32_t)(IRQn) >= 0)
 80021f2:	1dfb      	adds	r3, r7, #7
 80021f4:	781b      	ldrb	r3, [r3, #0]
 80021f6:	2b7f      	cmp	r3, #127	@ 0x7f
 80021f8:	d828      	bhi.n	800224c <__NVIC_SetPriority+0x68>
  {
    NVIC->IP[_IP_IDX(IRQn)]  = ((uint32_t)(NVIC->IP[_IP_IDX(IRQn)]  & ~(0xFFUL << _BIT_SHIFT(IRQn))) |
 80021fa:	4a2f      	ldr	r2, [pc, #188]	@ (80022b8 <__NVIC_SetPriority+0xd4>)
 80021fc:	1dfb      	adds	r3, r7, #7
 80021fe:	781b      	ldrb	r3, [r3, #0]
 8002200:	b25b      	sxtb	r3, r3
 8002202:	089b      	lsrs	r3, r3, #2
 8002204:	33c0      	adds	r3, #192	@ 0xc0
 8002206:	009b      	lsls	r3, r3, #2
 8002208:	589b      	ldr	r3, [r3, r2]
 800220a:	1dfa      	adds	r2, r7, #7
 800220c:	7812      	ldrb	r2, [r2, #0]
 800220e:	0011      	movs	r1, r2
 8002210:	2203      	movs	r2, #3
 8002212:	400a      	ands	r2, r1
 8002214:	00d2      	lsls	r2, r2, #3
 8002216:	21ff      	movs	r1, #255	@ 0xff
 8002218:	4091      	lsls	r1, r2
 800221a:	000a      	movs	r2, r1
 800221c:	43d2      	mvns	r2, r2
 800221e:	401a      	ands	r2, r3
 8002220:	0011      	movs	r1, r2
       (((priority << (8U - __NVIC_PRIO_BITS)) & (uint32_t)0xFFUL) << _BIT_SHIFT(IRQn)));
 8002222:	683b      	ldr	r3, [r7, #0]
 8002224:	019b      	lsls	r3, r3, #6
 8002226:	22ff      	movs	r2, #255	@ 0xff
 8002228:	401a      	ands	r2, r3
 800222a:	1dfb      	adds	r3, r7, #7
 800222c:	781b      	ldrb	r3, [r3, #0]
 800222e:	0018      	movs	r0, r3
 8002230:	2303      	movs	r3, #3
 8002232:	4003      	ands	r3, r0
 8002234:	00db      	lsls	r3, r3, #3
 8002236:	409a      	lsls	r2, r3
    NVIC->IP[_IP_IDX(IRQn)]  = ((uint32_t)(NVIC->IP[_IP_IDX(IRQn)]  & ~(0xFFUL << _BIT_SHIFT(IRQn))) |
 8002238:	481f      	ldr	r0, [pc, #124]	@ (80022b8 <__NVIC_SetPriority+0xd4>)
 800223a:	1dfb      	adds	r3, r7, #7
 800223c:	781b      	ldrb	r3, [r3, #0]
 800223e:	b25b      	sxtb	r3, r3
 8002240:	089b      	lsrs	r3, r3, #2
 8002242:	430a      	orrs	r2, r1
 8002244:	33c0      	adds	r3, #192	@ 0xc0
 8002246:	009b      	lsls	r3, r3, #2
 8002248:	501a      	str	r2, [r3, r0]
  else
  {
    SCB->SHP[_SHP_IDX(IRQn)] = ((uint32_t)(SCB->SHP[_SHP_IDX(IRQn)] & ~(0xFFUL << _BIT_SHIFT(IRQn))) |
       (((priority << (8U - __NVIC_PRIO_BITS)) & (uint32_t)0xFFUL) << _BIT_SHIFT(IRQn)));
  }
}
 800224a:	e031      	b.n	80022b0 <__NVIC_SetPriority+0xcc>
    SCB->SHP[_SHP_IDX(IRQn)] = ((uint32_t)(SCB->SHP[_SHP_IDX(IRQn)] & ~(0xFFUL << _BIT_SHIFT(IRQn))) |
 800224c:	4a1b      	ldr	r2, [pc, #108]	@ (80022bc <__NVIC_SetPriority+0xd8>)
 800224e:	1dfb      	adds	r3, r7, #7
 8002250:	781b      	ldrb	r3, [r3, #0]
 8002252:	0019      	movs	r1, r3
 8002254:	230f      	movs	r3, #15
 8002256:	400b      	ands	r3, r1
 8002258:	3b08      	subs	r3, #8
 800225a:	089b      	lsrs	r3, r3, #2
 800225c:	3306      	adds	r3, #6
 800225e:	009b      	lsls	r3, r3, #2
 8002260:	18d3      	adds	r3, r2, r3
 8002262:	3304      	adds	r3, #4
 8002264:	681b      	ldr	r3, [r3, #0]
 8002266:	1dfa      	adds	r2, r7, #7
 8002268:	7812      	ldrb	r2, [r2, #0]
 800226a:	0011      	movs	r1, r2
 800226c:	2203      	movs	r2, #3
 800226e:	400a      	ands	r2, r1
 8002270:	00d2      	lsls	r2, r2, #3
 8002272:	21ff      	movs	r1, #255	@ 0xff
 8002274:	4091      	lsls	r1, r2
 8002276:	000a      	movs	r2, r1
 8002278:	43d2      	mvns	r2, r2
 800227a:	401a      	ands	r2, r3
 800227c:	0011      	movs	r1, r2
       (((priority << (8U - __NVIC_PRIO_BITS)) & (uint32_t)0xFFUL) << _BIT_SHIFT(IRQn)));
 800227e:	683b      	ldr	r3, [r7, #0]
 8002280:	019b      	lsls	r3, r3, #6
 8002282:	22ff      	movs	r2, #255	@ 0xff
 8002284:	401a      	ands	r2, r3
 8002286:	1dfb      	adds	r3, r7, #7
 8002288:	781b      	ldrb	r3, [r3, #0]
 800228a:	0018      	movs	r0, r3
 800228c:	2303      	movs	r3, #3
 800228e:	4003      	ands	r3, r0
 8002290:	00db      	lsls	r3, r3, #3
 8002292:	409a      	lsls	r2, r3
    SCB->SHP[_SHP_IDX(IRQn)] = ((uint32_t)(SCB->SHP[_SHP_IDX(IRQn)] & ~(0xFFUL << _BIT_SHIFT(IRQn))) |
 8002294:	4809      	ldr	r0, [pc, #36]	@ (80022bc <__NVIC_SetPriority+0xd8>)
 8002296:	1dfb      	adds	r3, r7, #7
 8002298:	781b      	ldrb	r3, [r3, #0]
 800229a:	001c      	movs	r4, r3
 800229c:	230f      	movs	r3, #15
 800229e:	4023      	ands	r3, r4
 80022a0:	3b08      	subs	r3, #8
 80022a2:	089b      	lsrs	r3, r3, #2
 80022a4:	430a      	orrs	r2, r1
 80022a6:	3306      	adds	r3, #6
 80022a8:	009b      	lsls	r3, r3, #2
 80022aa:	18c3      	adds	r3, r0, r3
 80022ac:	3304      	adds	r3, #4
 80022ae:	601a      	str	r2, [r3, #0]
}
 80022b0:	46c0      	nop			@ (mov r8, r8)
 80022b2:	46bd      	mov	sp, r7
 80022b4:	b003      	add	sp, #12
 80022b6:	bd90      	pop	{r4, r7, pc}
 80022b8:	e000e100 	.word	0xe000e100
 80022bc:	e000ed00 	.word	0xe000ed00

080022c0 <SysTick_Config>:
  \note    When the variable <b>__Vendor_SysTickConfig</b> is set to 1, then the
           function <b>SysTick_Config</b> is not included. In this case, the file <b><i>device</i>.h</b>
           must contain a vendor-specific implementation of this function.
 */
__STATIC_INLINE uint32_t SysTick_Config(uint32_t ticks)
{
 80022c0:	b580      	push	{r7, lr}
 80022c2:	b082      	sub	sp, #8
 80022c4:	af00      	add	r7, sp, #0
 80022c6:	6078      	str	r0, [r7, #4]
  if ((ticks - 1UL) > SysTick_LOAD_RELOAD_Msk)
 80022c8:	687b      	ldr	r3, [r7, #4]
 80022ca:	1e5a      	subs	r2, r3, #1
 80022cc:	2380      	movs	r3, #128	@ 0x80
 80022ce:	045b      	lsls	r3, r3, #17
 80022d0:	429a      	cmp	r2, r3
 80022d2:	d301      	bcc.n	80022d8 <SysTick_Config+0x18>
  {
    return (1UL);                                                   /* Reload value impossible */
 80022d4:	2301      	movs	r3, #1
 80022d6:	e010      	b.n	80022fa <SysTick_Config+0x3a>
  }

  SysTick->LOAD  = (uint32_t)(ticks - 1UL);                         /* set reload register */
 80022d8:	4b0a      	ldr	r3, [pc, #40]	@ (8002304 <SysTick_Config+0x44>)
 80022da:	687a      	ldr	r2, [r7, #4]
 80022dc:	3a01      	subs	r2, #1
 80022de:	605a      	str	r2, [r3, #4]
  NVIC_SetPriority (SysTick_IRQn, (1UL << __NVIC_PRIO_BITS) - 1UL); /* set Priority for Systick Interrupt */
 80022e0:	2301      	movs	r3, #1
 80022e2:	425b      	negs	r3, r3
 80022e4:	2103      	movs	r1, #3
 80022e6:	0018      	movs	r0, r3
 80022e8:	f7ff ff7c 	bl	80021e4 <__NVIC_SetPriority>
  SysTick->VAL   = 0UL;                                             /* Load the SysTick Counter Value */
 80022ec:	4b05      	ldr	r3, [pc, #20]	@ (8002304 <SysTick_Config+0x44>)
 80022ee:	2200      	movs	r2, #0
 80022f0:	609a      	str	r2, [r3, #8]
  SysTick->CTRL  = SysTick_CTRL_CLKSOURCE_Msk |
 80022f2:	4b04      	ldr	r3, [pc, #16]	@ (8002304 <SysTick_Config+0x44>)
 80022f4:	2207      	movs	r2, #7
 80022f6:	601a      	str	r2, [r3, #0]
                   SysTick_CTRL_TICKINT_Msk   |
                   SysTick_CTRL_ENABLE_Msk;                         /* Enable SysTick IRQ and SysTick Timer */
  return (0UL);                                                     /* Function successful */
 80022f8:	2300      	movs	r3, #0
}
 80022fa:	0018      	movs	r0, r3
 80022fc:	46bd      	mov	sp, r7
 80022fe:	b002      	add	sp, #8
 8002300:	bd80      	pop	{r7, pc}
 8002302:	46c0      	nop			@ (mov r8, r8)
 8002304:	e000e010 	.word	0xe000e010

08002308 <HAL_NVIC_SetPriority>:
  *         with stm32g0xx devices, this parameter is a dummy value and it is ignored, because
  *         no subpriority supported in Cortex M0+ based products.
  * @retval None
  */
void HAL_NVIC_SetPriority(IRQn_Type IRQn, uint32_t PreemptPriority, uint32_t SubPriority)
{
 8002308:	b580      	push	{r7, lr}
 800230a:	b084      	sub	sp, #16
 800230c:	af00      	add	r7, sp, #0
 800230e:	60b9      	str	r1, [r7, #8]
 8002310:	607a      	str	r2, [r7, #4]
 8002312:	210f      	movs	r1, #15
 8002314:	187b      	adds	r3, r7, r1
 8002316:	1c02      	adds	r2, r0, #0
 8002318:	701a      	strb	r2, [r3, #0]
  /* Prevent unused argument(s) compilation warning */
  UNUSED(SubPriority);

  /* Check the parameters */
  assert_param(IS_NVIC_PREEMPTION_PRIORITY(PreemptPriority));
  NVIC_SetPriority(IRQn, PreemptPriority);
 800231a:	68ba      	ldr	r2, [r7, #8]
 800231c:	187b      	adds	r3, r7, r1
 800231e:	781b      	ldrb	r3, [r3, #0]
 8002320:	b25b      	sxtb	r3, r3
 8002322:	0011      	movs	r1, r2
 8002324:	0018      	movs	r0, r3
 8002326:	f7ff ff5d 	bl	80021e4 <__NVIC_SetPriority>
}
 800232a:	46c0      	nop			@ (mov r8, r8)
 800232c:	46bd      	mov	sp, r7
 800232e:	b004      	add	sp, #16
 8002330:	bd80      	pop	{r7, pc}

08002332 <HAL_NVIC_EnableIRQ>:
  *         This parameter can be an enumerator of IRQn_Type enumeration
  *         (For the complete STM32 Devices IRQ Channels list, please refer to the appropriate CMSIS device file (stm32g0xxxx.h))
  * @retval None
  */
void HAL_NVIC_EnableIRQ(IRQn_Type IRQn)
{
 8002332:	b580      	push	{r7, lr}
 8002334:	b082      	sub	sp, #8
 8002336:	af00      	add	r7, sp, #0
 8002338:	0002      	movs	r2, r0
 800233a:	1dfb      	adds	r3, r7, #7
 800233c:	701a      	strb	r2, [r3, #0]
  /* Check the parameters */
  assert_param(IS_NVIC_DEVICE_IRQ(IRQn));

  /* Enable interrupt */
  NVIC_EnableIRQ(IRQn);
 800233e:	1dfb      	adds	r3, r7, #7
 8002340:	781b      	ldrb	r3, [r3, #0]
 8002342:	b25b      	sxtb	r3, r3
 8002344:	0018      	movs	r0, r3
 8002346:	f7ff ff33 	bl	80021b0 <__NVIC_EnableIRQ>
}
 800234a:	46c0      	nop			@ (mov r8, r8)
 800234c:	46bd      	mov	sp, r7
 800234e:	b002      	add	sp, #8
 8002350:	bd80      	pop	{r7, pc}

08002352 <HAL_SYSTICK_Config>:
  * @param  TicksNumb Specifies the ticks Number of ticks between two interrupts.
  * @retval status:  - 0  Function succeeded.
  *                  - 1  Function failed.
  */
uint32_t HAL_SYSTICK_Config(uint32_t TicksNumb)
{
 8002352:	b580      	push	{r7, lr}
 8002354:	b082      	sub	sp, #8
 8002356:	af00      	add	r7, sp, #0
 8002358:	6078      	str	r0, [r7, #4]
  return SysTick_Config(TicksNumb);
 800235a:	687b      	ldr	r3, [r7, #4]
 800235c:	0018      	movs	r0, r3
 800235e:	f7ff ffaf 	bl	80022c0 <SysTick_Config>
 8002362:	0003      	movs	r3, r0
}
 8002364:	0018      	movs	r0, r3
 8002366:	46bd      	mov	sp, r7
 8002368:	b002      	add	sp, #8
 800236a:	bd80      	pop	{r7, pc}

0800236c <HAL_DMA_Init>:
  * @param hdma Pointer to a DMA_HandleTypeDef structure that contains
  *             the configuration information for the specified DMA Channel.
  * @retval HAL status
  */
HAL_StatusTypeDef HAL_DMA_Init(DMA_HandleTypeDef *hdma)
{
 800236c:	b580      	push	{r7, lr}
 800236e:	b082      	sub	sp, #8
 8002370:	af00      	add	r7, sp, #0
 8002372:	6078      	str	r0, [r7, #4]
  /* Check the DMA handle allocation */
  if (hdma == NULL)
 8002374:	687b      	ldr	r3, [r7, #4]
 8002376:	2b00      	cmp	r3, #0
 8002378:	d101      	bne.n	800237e <HAL_DMA_Init+0x12>
  {
    return HAL_ERROR;
 800237a:	2301      	movs	r3, #1
 800237c:	e077      	b.n	800246e <HAL_DMA_Init+0x102>
    /* DMA2 */
    hdma->ChannelIndex = (((uint32_t)hdma->Instance - (uint32_t)DMA2_Channel1) / ((uint32_t)DMA2_Channel2 - (uint32_t)DMA2_Channel1)) << 2U;
    hdma->DmaBaseAddress = DMA2;
  }
#else
  hdma->ChannelIndex = (((uint32_t)hdma->Instance - (uint32_t)DMA1_Channel1) / ((uint32_t)DMA1_Channel2 - (uint32_t)DMA1_Channel1)) << 2U;
 800237e:	687b      	ldr	r3, [r7, #4]
 8002380:	681b      	ldr	r3, [r3, #0]
 8002382:	4a3d      	ldr	r2, [pc, #244]	@ (8002478 <HAL_DMA_Init+0x10c>)
 8002384:	4694      	mov	ip, r2
 8002386:	4463      	add	r3, ip
 8002388:	2114      	movs	r1, #20
 800238a:	0018      	movs	r0, r3
 800238c:	f7fd fec4 	bl	8000118 <__udivsi3>
 8002390:	0003      	movs	r3, r0
 8002392:	009a      	lsls	r2, r3, #2
 8002394:	687b      	ldr	r3, [r7, #4]
 8002396:	641a      	str	r2, [r3, #64]	@ 0x40
#endif /* DMA2 */

  /* Change DMA peripheral state */
  hdma->State = HAL_DMA_STATE_BUSY;
 8002398:	687b      	ldr	r3, [r7, #4]
 800239a:	2225      	movs	r2, #37	@ 0x25
 800239c:	2102      	movs	r1, #2
 800239e:	5499      	strb	r1, [r3, r2]

  /* Clear PL, MSIZE, PSIZE, MINC, PINC, CIRC, DIR and MEM2MEM bits */
  CLEAR_BIT(hdma->Instance->CCR, (DMA_CCR_PL    | DMA_CCR_MSIZE  | DMA_CCR_PSIZE  | \
 80023a0:	687b      	ldr	r3, [r7, #4]
 80023a2:	681b      	ldr	r3, [r3, #0]
 80023a4:	681a      	ldr	r2, [r3, #0]
 80023a6:	687b      	ldr	r3, [r7, #4]
 80023a8:	681b      	ldr	r3, [r3, #0]
 80023aa:	4934      	ldr	r1, [pc, #208]	@ (800247c <HAL_DMA_Init+0x110>)
 80023ac:	400a      	ands	r2, r1
 80023ae:	601a      	str	r2, [r3, #0]
                                  DMA_CCR_MINC  | DMA_CCR_PINC   | DMA_CCR_CIRC   | \
                                  DMA_CCR_DIR   | DMA_CCR_MEM2MEM));

  /* Set the DMA Channel configuration */
  SET_BIT(hdma->Instance->CCR, (hdma->Init.Direction           |                               \
 80023b0:	687b      	ldr	r3, [r7, #4]
 80023b2:	681b      	ldr	r3, [r3, #0]
 80023b4:	6819      	ldr	r1, [r3, #0]
 80023b6:	687b      	ldr	r3, [r7, #4]
 80023b8:	689a      	ldr	r2, [r3, #8]
 80023ba:	687b      	ldr	r3, [r7, #4]
 80023bc:	68db      	ldr	r3, [r3, #12]
 80023be:	431a      	orrs	r2, r3
 80023c0:	687b      	ldr	r3, [r7, #4]
 80023c2:	691b      	ldr	r3, [r3, #16]
 80023c4:	431a      	orrs	r2, r3
 80023c6:	687b      	ldr	r3, [r7, #4]
 80023c8:	695b      	ldr	r3, [r3, #20]
 80023ca:	431a      	orrs	r2, r3
 80023cc:	687b      	ldr	r3, [r7, #4]
 80023ce:	699b      	ldr	r3, [r3, #24]
 80023d0:	431a      	orrs	r2, r3
 80023d2:	687b      	ldr	r3, [r7, #4]
 80023d4:	69db      	ldr	r3, [r3, #28]
 80023d6:	431a      	orrs	r2, r3
 80023d8:	687b      	ldr	r3, [r7, #4]
 80023da:	6a1b      	ldr	r3, [r3, #32]
 80023dc:	431a      	orrs	r2, r3
 80023de:	687b      	ldr	r3, [r7, #4]
 80023e0:	681b      	ldr	r3, [r3, #0]
 80023e2:	430a      	orrs	r2, r1
 80023e4:	601a      	str	r2, [r3, #0]
                                hdma->Init.Mode                | hdma->Init.Priority));

  /* Initialize parameters for DMAMUX channel :
     DMAmuxChannel, DMAmuxChannelStatus and DMAmuxChannelStatusMask
  */
  DMA_CalcDMAMUXChannelBaseAndMask(hdma);
 80023e6:	687b      	ldr	r3, [r7, #4]
 80023e8:	0018      	movs	r0, r3
 80023ea:	f000 fa23 	bl	8002834 <DMA_CalcDMAMUXChannelBaseAndMask>

  if (hdma->Init.Direction == DMA_MEMORY_TO_MEMORY)
 80023ee:	687b      	ldr	r3, [r7, #4]
 80023f0:	689a      	ldr	r2, [r3, #8]
 80023f2:	2380      	movs	r3, #128	@ 0x80
 80023f4:	01db      	lsls	r3, r3, #7
 80023f6:	429a      	cmp	r2, r3
 80023f8:	d102      	bne.n	8002400 <HAL_DMA_Init+0x94>
  {
    /* if memory to memory force the request to 0*/
    hdma->Init.Request = DMA_REQUEST_MEM2MEM;
 80023fa:	687b      	ldr	r3, [r7, #4]
 80023fc:	2200      	movs	r2, #0
 80023fe:	605a      	str	r2, [r3, #4]
  }

  /* Set peripheral request  to DMAMUX channel */
  hdma->DMAmuxChannel->CCR = (hdma->Init.Request & DMAMUX_CxCR_DMAREQ_ID);
 8002400:	687b      	ldr	r3, [r7, #4]
 8002402:	685a      	ldr	r2, [r3, #4]
 8002404:	687b      	ldr	r3, [r7, #4]
 8002406:	6c5b      	ldr	r3, [r3, #68]	@ 0x44
 8002408:	213f      	movs	r1, #63	@ 0x3f
 800240a:	400a      	ands	r2, r1
 800240c:	601a      	str	r2, [r3, #0]

  /* Clear the DMAMUX synchro overrun flag */
  hdma->DMAmuxChannelStatus->CFR = hdma->DMAmuxChannelStatusMask;
 800240e:	687b      	ldr	r3, [r7, #4]
 8002410:	6c9b      	ldr	r3, [r3, #72]	@ 0x48
 8002412:	687a      	ldr	r2, [r7, #4]
 8002414:	6cd2      	ldr	r2, [r2, #76]	@ 0x4c
 8002416:	605a      	str	r2, [r3, #4]

  if (((hdma->Init.Request >  0UL) && (hdma->Init.Request <= DMA_REQUEST_GENERATOR3)))
 8002418:	687b      	ldr	r3, [r7, #4]
 800241a:	685b      	ldr	r3, [r3, #4]
 800241c:	2b00      	cmp	r3, #0
 800241e:	d011      	beq.n	8002444 <HAL_DMA_Init+0xd8>
 8002420:	687b      	ldr	r3, [r7, #4]
 8002422:	685b      	ldr	r3, [r3, #4]
 8002424:	2b04      	cmp	r3, #4
 8002426:	d80d      	bhi.n	8002444 <HAL_DMA_Init+0xd8>
  {
    /* Initialize parameters for DMAMUX request generator :
       DMAmuxRequestGen, DMAmuxRequestGenStatus and DMAmuxRequestGenStatusMask
    */
    DMA_CalcDMAMUXRequestGenBaseAndMask(hdma);
 8002428:	687b      	ldr	r3, [r7, #4]
 800242a:	0018      	movs	r0, r3
 800242c:	f000 fa2e 	bl	800288c <DMA_CalcDMAMUXRequestGenBaseAndMask>

    /* Reset the DMAMUX request generator register*/
    hdma->DMAmuxRequestGen->RGCR = 0U;
 8002430:	687b      	ldr	r3, [r7, #4]
 8002432:	6d1b      	ldr	r3, [r3, #80]	@ 0x50
 8002434:	2200      	movs	r2, #0
 8002436:	601a      	str	r2, [r3, #0]

    /* Clear the DMAMUX request generator overrun flag */
    hdma->DMAmuxRequestGenStatus->RGCFR = hdma->DMAmuxRequestGenStatusMask;
 8002438:	687b      	ldr	r3, [r7, #4]
 800243a:	6d5b      	ldr	r3, [r3, #84]	@ 0x54
 800243c:	687a      	ldr	r2, [r7, #4]
 800243e:	6d92      	ldr	r2, [r2, #88]	@ 0x58
 8002440:	605a      	str	r2, [r3, #4]
 8002442:	e008      	b.n	8002456 <HAL_DMA_Init+0xea>
  }
  else
  {
    hdma->DMAmuxRequestGen = 0U;
 8002444:	687b      	ldr	r3, [r7, #4]
 8002446:	2200      	movs	r2, #0
 8002448:	651a      	str	r2, [r3, #80]	@ 0x50
    hdma->DMAmuxRequestGenStatus = 0U;
 800244a:	687b      	ldr	r3, [r7, #4]
 800244c:	2200      	movs	r2, #0
 800244e:	655a      	str	r2, [r3, #84]	@ 0x54
    hdma->DMAmuxRequestGenStatusMask = 0U;
 8002450:	687b      	ldr	r3, [r7, #4]
 8002452:	2200      	movs	r2, #0
 8002454:	659a      	str	r2, [r3, #88]	@ 0x58
  }

  /* Initialize the error code */
  hdma->ErrorCode = HAL_DMA_ERROR_NONE;
 8002456:	687b      	ldr	r3, [r7, #4]
 8002458:	2200      	movs	r2, #0
 800245a:	63da      	str	r2, [r3, #60]	@ 0x3c

  /* Initialize the DMA state*/
  hdma->State = HAL_DMA_STATE_READY;
 800245c:	687b      	ldr	r3, [r7, #4]
 800245e:	2225      	movs	r2, #37	@ 0x25
 8002460:	2101      	movs	r1, #1
 8002462:	5499      	strb	r1, [r3, r2]

  /* Release Lock */
  __HAL_UNLOCK(hdma);
 8002464:	687b      	ldr	r3, [r7, #4]
 8002466:	2224      	movs	r2, #36	@ 0x24
 8002468:	2100      	movs	r1, #0
 800246a:	5499      	strb	r1, [r3, r2]

  return HAL_OK;
 800246c:	2300      	movs	r3, #0
}
 800246e:	0018      	movs	r0, r3
 8002470:	46bd      	mov	sp, r7
 8002472:	b002      	add	sp, #8
 8002474:	bd80      	pop	{r7, pc}
 8002476:	46c0      	nop			@ (mov r8, r8)
 8002478:	bffdfff8 	.word	0xbffdfff8
 800247c:	ffff800f 	.word	0xffff800f

08002480 <HAL_DMA_Start_IT>:
  * @param DataLength The length of data to be transferred from source to destination
  * @retval HAL status
  */
HAL_StatusTypeDef HAL_DMA_Start_IT(DMA_HandleTypeDef *hdma, uint32_t SrcAddress, uint32_t DstAddress,
                                   uint32_t DataLength)
{
 8002480:	b580      	push	{r7, lr}
 8002482:	b086      	sub	sp, #24
 8002484:	af00      	add	r7, sp, #0
 8002486:	60f8      	str	r0, [r7, #12]
 8002488:	60b9      	str	r1, [r7, #8]
 800248a:	607a      	str	r2, [r7, #4]
 800248c:	603b      	str	r3, [r7, #0]
  HAL_StatusTypeDef status = HAL_OK;
 800248e:	2317      	movs	r3, #23
 8002490:	18fb      	adds	r3, r7, r3
 8002492:	2200      	movs	r2, #0
 8002494:	701a      	strb	r2, [r3, #0]

  /* Check the parameters */
  assert_param(IS_DMA_BUFFER_SIZE(DataLength));

  /* Process locked */
  __HAL_LOCK(hdma);
 8002496:	68fb      	ldr	r3, [r7, #12]
 8002498:	2224      	movs	r2, #36	@ 0x24
 800249a:	5c9b      	ldrb	r3, [r3, r2]
 800249c:	2b01      	cmp	r3, #1
 800249e:	d101      	bne.n	80024a4 <HAL_DMA_Start_IT+0x24>
 80024a0:	2302      	movs	r3, #2
 80024a2:	e06f      	b.n	8002584 <HAL_DMA_Start_IT+0x104>
 80024a4:	68fb      	ldr	r3, [r7, #12]
 80024a6:	2224      	movs	r2, #36	@ 0x24
 80024a8:	2101      	movs	r1, #1
 80024aa:	5499      	strb	r1, [r3, r2]

  if (hdma->State == HAL_DMA_STATE_READY)
 80024ac:	68fb      	ldr	r3, [r7, #12]
 80024ae:	2225      	movs	r2, #37	@ 0x25
 80024b0:	5c9b      	ldrb	r3, [r3, r2]
 80024b2:	b2db      	uxtb	r3, r3
 80024b4:	2b01      	cmp	r3, #1
 80024b6:	d157      	bne.n	8002568 <HAL_DMA_Start_IT+0xe8>
  {
    /* Change DMA peripheral state */
    hdma->State = HAL_DMA_STATE_BUSY;
 80024b8:	68fb      	ldr	r3, [r7, #12]
 80024ba:	2225      	movs	r2, #37	@ 0x25
 80024bc:	2102      	movs	r1, #2
 80024be:	5499      	strb	r1, [r3, r2]
    hdma->ErrorCode = HAL_DMA_ERROR_NONE;
 80024c0:	68fb      	ldr	r3, [r7, #12]
 80024c2:	2200      	movs	r2, #0
 80024c4:	63da      	str	r2, [r3, #60]	@ 0x3c

    /* Disable the peripheral */
    __HAL_DMA_DISABLE(hdma);
 80024c6:	68fb      	ldr	r3, [r7, #12]
 80024c8:	681b      	ldr	r3, [r3, #0]
 80024ca:	681a      	ldr	r2, [r3, #0]
 80024cc:	68fb      	ldr	r3, [r7, #12]
 80024ce:	681b      	ldr	r3, [r3, #0]
 80024d0:	2101      	movs	r1, #1
 80024d2:	438a      	bics	r2, r1
 80024d4:	601a      	str	r2, [r3, #0]

    /* Configure the source, destination address and the data length & clear flags*/
    DMA_SetConfig(hdma, SrcAddress, DstAddress, DataLength);
 80024d6:	683b      	ldr	r3, [r7, #0]
 80024d8:	687a      	ldr	r2, [r7, #4]
 80024da:	68b9      	ldr	r1, [r7, #8]
 80024dc:	68f8      	ldr	r0, [r7, #12]
 80024de:	f000 f969 	bl	80027b4 <DMA_SetConfig>

    /* Enable the transfer complete interrupt */
    /* Enable the transfer Error interrupt */
    if (NULL != hdma->XferHalfCpltCallback)
 80024e2:	68fb      	ldr	r3, [r7, #12]
 80024e4:	6b1b      	ldr	r3, [r3, #48]	@ 0x30
 80024e6:	2b00      	cmp	r3, #0
 80024e8:	d008      	beq.n	80024fc <HAL_DMA_Start_IT+0x7c>
    {
      /* Enable the Half transfer complete interrupt as well */
      __HAL_DMA_ENABLE_IT(hdma, (DMA_IT_TC | DMA_IT_HT | DMA_IT_TE));
 80024ea:	68fb      	ldr	r3, [r7, #12]
 80024ec:	681b      	ldr	r3, [r3, #0]
 80024ee:	681a      	ldr	r2, [r3, #0]
 80024f0:	68fb      	ldr	r3, [r7, #12]
 80024f2:	681b      	ldr	r3, [r3, #0]
 80024f4:	210e      	movs	r1, #14
 80024f6:	430a      	orrs	r2, r1
 80024f8:	601a      	str	r2, [r3, #0]
 80024fa:	e00f      	b.n	800251c <HAL_DMA_Start_IT+0x9c>
    }
    else
    {
      __HAL_DMA_DISABLE_IT(hdma, DMA_IT_HT);
 80024fc:	68fb      	ldr	r3, [r7, #12]
 80024fe:	681b      	ldr	r3, [r3, #0]
 8002500:	681a      	ldr	r2, [r3, #0]
 8002502:	68fb      	ldr	r3, [r7, #12]
 8002504:	681b      	ldr	r3, [r3, #0]
 8002506:	2104      	movs	r1, #4
 8002508:	438a      	bics	r2, r1
 800250a:	601a      	str	r2, [r3, #0]
      __HAL_DMA_ENABLE_IT(hdma, (DMA_IT_TC | DMA_IT_TE));
 800250c:	68fb      	ldr	r3, [r7, #12]
 800250e:	681b      	ldr	r3, [r3, #0]
 8002510:	681a      	ldr	r2, [r3, #0]
 8002512:	68fb      	ldr	r3, [r7, #12]
 8002514:	681b      	ldr	r3, [r3, #0]
 8002516:	210a      	movs	r1, #10
 8002518:	430a      	orrs	r2, r1
 800251a:	601a      	str	r2, [r3, #0]
    }

    /* Check if DMAMUX Synchronization is enabled*/
    if ((hdma->DMAmuxChannel->CCR & DMAMUX_CxCR_SE) != 0U)
 800251c:	68fb      	ldr	r3, [r7, #12]
 800251e:	6c5b      	ldr	r3, [r3, #68]	@ 0x44
 8002520:	681a      	ldr	r2, [r3, #0]
 8002522:	2380      	movs	r3, #128	@ 0x80
 8002524:	025b      	lsls	r3, r3, #9
 8002526:	4013      	ands	r3, r2
 8002528:	d008      	beq.n	800253c <HAL_DMA_Start_IT+0xbc>
    {
      /* Enable DMAMUX sync overrun IT*/
      hdma->DMAmuxChannel->CCR |= DMAMUX_CxCR_SOIE;
 800252a:	68fb      	ldr	r3, [r7, #12]
 800252c:	6c5b      	ldr	r3, [r3, #68]	@ 0x44
 800252e:	681a      	ldr	r2, [r3, #0]
 8002530:	68fb      	ldr	r3, [r7, #12]
 8002532:	6c5b      	ldr	r3, [r3, #68]	@ 0x44
 8002534:	2180      	movs	r1, #128	@ 0x80
 8002536:	0049      	lsls	r1, r1, #1
 8002538:	430a      	orrs	r2, r1
 800253a:	601a      	str	r2, [r3, #0]
    }

    if (hdma->DMAmuxRequestGen != 0U)
 800253c:	68fb      	ldr	r3, [r7, #12]
 800253e:	6d1b      	ldr	r3, [r3, #80]	@ 0x50
 8002540:	2b00      	cmp	r3, #0
 8002542:	d008      	beq.n	8002556 <HAL_DMA_Start_IT+0xd6>
    {
      /* if using DMAMUX request generator, enable the DMAMUX request generator overrun IT*/
      /* enable the request gen overrun IT*/
      hdma->DMAmuxRequestGen->RGCR |= DMAMUX_RGxCR_OIE;
 8002544:	68fb      	ldr	r3, [r7, #12]
 8002546:	6d1b      	ldr	r3, [r3, #80]	@ 0x50
 8002548:	681a      	ldr	r2, [r3, #0]
 800254a:	68fb      	ldr	r3, [r7, #12]
 800254c:	6d1b      	ldr	r3, [r3, #80]	@ 0x50
 800254e:	2180      	movs	r1, #128	@ 0x80
 8002550:	0049      	lsls	r1, r1, #1
 8002552:	430a      	orrs	r2, r1
 8002554:	601a      	str	r2, [r3, #0]
    }

    /* Enable the Peripheral */
    __HAL_DMA_ENABLE(hdma);
 8002556:	68fb      	ldr	r3, [r7, #12]
 8002558:	681b      	ldr	r3, [r3, #0]
 800255a:	681a      	ldr	r2, [r3, #0]
 800255c:	68fb      	ldr	r3, [r7, #12]
 800255e:	681b      	ldr	r3, [r3, #0]
 8002560:	2101      	movs	r1, #1
 8002562:	430a      	orrs	r2, r1
 8002564:	601a      	str	r2, [r3, #0]
 8002566:	e00a      	b.n	800257e <HAL_DMA_Start_IT+0xfe>
  }
  else
  {
    /* Change the error code */
    hdma->ErrorCode = HAL_DMA_ERROR_BUSY;
 8002568:	68fb      	ldr	r3, [r7, #12]
 800256a:	2280      	movs	r2, #128	@ 0x80
 800256c:	63da      	str	r2, [r3, #60]	@ 0x3c

    /* Process Unlocked */
    __HAL_UNLOCK(hdma);
 800256e:	68fb      	ldr	r3, [r7, #12]
 8002570:	2224      	movs	r2, #36	@ 0x24
 8002572:	2100      	movs	r1, #0
 8002574:	5499      	strb	r1, [r3, r2]

    /* Return error status */
    status = HAL_ERROR;
 8002576:	2317      	movs	r3, #23
 8002578:	18fb      	adds	r3, r7, r3
 800257a:	2201      	movs	r2, #1
 800257c:	701a      	strb	r2, [r3, #0]
  }

  return status;
 800257e:	2317      	movs	r3, #23
 8002580:	18fb      	adds	r3, r7, r3
 8002582:	781b      	ldrb	r3, [r3, #0]
}
 8002584:	0018      	movs	r0, r3
 8002586:	46bd      	mov	sp, r7
 8002588:	b006      	add	sp, #24
 800258a:	bd80      	pop	{r7, pc}

0800258c <HAL_DMA_Abort>:
  * @param hdma Pointer to a DMA_HandleTypeDef structure that contains
  *             the configuration information for the specified DMA Channel.
  * @retval HAL status
  */
HAL_StatusTypeDef HAL_DMA_Abort(DMA_HandleTypeDef *hdma)
{
 800258c:	b580      	push	{r7, lr}
 800258e:	b082      	sub	sp, #8
 8002590:	af00      	add	r7, sp, #0
 8002592:	6078      	str	r0, [r7, #4]
  /* Check the DMA peripheral handle */
  if (NULL == hdma)
 8002594:	687b      	ldr	r3, [r7, #4]
 8002596:	2b00      	cmp	r3, #0
 8002598:	d101      	bne.n	800259e <HAL_DMA_Abort+0x12>
  {
    return HAL_ERROR;
 800259a:	2301      	movs	r3, #1
 800259c:	e050      	b.n	8002640 <HAL_DMA_Abort+0xb4>
  }

  /* Check the DMA peripheral state */
  if (hdma->State != HAL_DMA_STATE_BUSY)
 800259e:	687b      	ldr	r3, [r7, #4]
 80025a0:	2225      	movs	r2, #37	@ 0x25
 80025a2:	5c9b      	ldrb	r3, [r3, r2]
 80025a4:	b2db      	uxtb	r3, r3
 80025a6:	2b02      	cmp	r3, #2
 80025a8:	d008      	beq.n	80025bc <HAL_DMA_Abort+0x30>
  {
    hdma->ErrorCode = HAL_DMA_ERROR_NO_XFER;
 80025aa:	687b      	ldr	r3, [r7, #4]
 80025ac:	2204      	movs	r2, #4
 80025ae:	63da      	str	r2, [r3, #60]	@ 0x3c

    /* Process Unlocked */
    __HAL_UNLOCK(hdma);
 80025b0:	687b      	ldr	r3, [r7, #4]
 80025b2:	2224      	movs	r2, #36	@ 0x24
 80025b4:	2100      	movs	r1, #0
 80025b6:	5499      	strb	r1, [r3, r2]

    return HAL_ERROR;
 80025b8:	2301      	movs	r3, #1
 80025ba:	e041      	b.n	8002640 <HAL_DMA_Abort+0xb4>
  }
  else
  {
    /* Disable DMA IT */
    __HAL_DMA_DISABLE_IT(hdma, (DMA_IT_TC | DMA_IT_HT | DMA_IT_TE));
 80025bc:	687b      	ldr	r3, [r7, #4]
 80025be:	681b      	ldr	r3, [r3, #0]
 80025c0:	681a      	ldr	r2, [r3, #0]
 80025c2:	687b      	ldr	r3, [r7, #4]
 80025c4:	681b      	ldr	r3, [r3, #0]
 80025c6:	210e      	movs	r1, #14
 80025c8:	438a      	bics	r2, r1
 80025ca:	601a      	str	r2, [r3, #0]

    /* disable the DMAMUX sync overrun IT*/
    hdma->DMAmuxChannel->CCR &= ~DMAMUX_CxCR_SOIE;
 80025cc:	687b      	ldr	r3, [r7, #4]
 80025ce:	6c5b      	ldr	r3, [r3, #68]	@ 0x44
 80025d0:	681a      	ldr	r2, [r3, #0]
 80025d2:	687b      	ldr	r3, [r7, #4]
 80025d4:	6c5b      	ldr	r3, [r3, #68]	@ 0x44
 80025d6:	491c      	ldr	r1, [pc, #112]	@ (8002648 <HAL_DMA_Abort+0xbc>)
 80025d8:	400a      	ands	r2, r1
 80025da:	601a      	str	r2, [r3, #0]

    /* Disable the channel */
    __HAL_DMA_DISABLE(hdma);
 80025dc:	687b      	ldr	r3, [r7, #4]
 80025de:	681b      	ldr	r3, [r3, #0]
 80025e0:	681a      	ldr	r2, [r3, #0]
 80025e2:	687b      	ldr	r3, [r7, #4]
 80025e4:	681b      	ldr	r3, [r3, #0]
 80025e6:	2101      	movs	r1, #1
 80025e8:	438a      	bics	r2, r1
 80025ea:	601a      	str	r2, [r3, #0]

    /* Clear all flags */
#if defined(DMA2)
    hdma->DmaBaseAddress->IFCR = (DMA_ISR_GIF1 << (hdma->ChannelIndex & 0x1CU));
#else
    __HAL_DMA_CLEAR_FLAG(hdma, ((DMA_FLAG_GI1) << (hdma->ChannelIndex  & 0x1CU)));
 80025ec:	4b17      	ldr	r3, [pc, #92]	@ (800264c <HAL_DMA_Abort+0xc0>)
 80025ee:	6859      	ldr	r1, [r3, #4]
 80025f0:	687b      	ldr	r3, [r7, #4]
 80025f2:	6c1b      	ldr	r3, [r3, #64]	@ 0x40
 80025f4:	221c      	movs	r2, #28
 80025f6:	4013      	ands	r3, r2
 80025f8:	2201      	movs	r2, #1
 80025fa:	409a      	lsls	r2, r3
 80025fc:	4b13      	ldr	r3, [pc, #76]	@ (800264c <HAL_DMA_Abort+0xc0>)
 80025fe:	430a      	orrs	r2, r1
 8002600:	605a      	str	r2, [r3, #4]
#endif /* DMA2 */

    /* Clear the DMAMUX synchro overrun flag */
    hdma->DMAmuxChannelStatus->CFR = hdma->DMAmuxChannelStatusMask;
 8002602:	687b      	ldr	r3, [r7, #4]
 8002604:	6c9b      	ldr	r3, [r3, #72]	@ 0x48
 8002606:	687a      	ldr	r2, [r7, #4]
 8002608:	6cd2      	ldr	r2, [r2, #76]	@ 0x4c
 800260a:	605a      	str	r2, [r3, #4]

    if (hdma->DMAmuxRequestGen != 0U)
 800260c:	687b      	ldr	r3, [r7, #4]
 800260e:	6d1b      	ldr	r3, [r3, #80]	@ 0x50
 8002610:	2b00      	cmp	r3, #0
 8002612:	d00c      	beq.n	800262e <HAL_DMA_Abort+0xa2>
    {
      /* if using DMAMUX request generator, disable the DMAMUX request generator overrun IT*/
      /* disable the request gen overrun IT*/
      hdma->DMAmuxRequestGen->RGCR &= ~DMAMUX_RGxCR_OIE;
 8002614:	687b      	ldr	r3, [r7, #4]
 8002616:	6d1b      	ldr	r3, [r3, #80]	@ 0x50
 8002618:	681a      	ldr	r2, [r3, #0]
 800261a:	687b      	ldr	r3, [r7, #4]
 800261c:	6d1b      	ldr	r3, [r3, #80]	@ 0x50
 800261e:	490a      	ldr	r1, [pc, #40]	@ (8002648 <HAL_DMA_Abort+0xbc>)
 8002620:	400a      	ands	r2, r1
 8002622:	601a      	str	r2, [r3, #0]

      /* Clear the DMAMUX request generator overrun flag */
      hdma->DMAmuxRequestGenStatus->RGCFR = hdma->DMAmuxRequestGenStatusMask;
 8002624:	687b      	ldr	r3, [r7, #4]
 8002626:	6d5b      	ldr	r3, [r3, #84]	@ 0x54
 8002628:	687a      	ldr	r2, [r7, #4]
 800262a:	6d92      	ldr	r2, [r2, #88]	@ 0x58
 800262c:	605a      	str	r2, [r3, #4]
    }

    /* Change the DMA state */
    hdma->State = HAL_DMA_STATE_READY;
 800262e:	687b      	ldr	r3, [r7, #4]
 8002630:	2225      	movs	r2, #37	@ 0x25
 8002632:	2101      	movs	r1, #1
 8002634:	5499      	strb	r1, [r3, r2]

    /* Process Unlocked */
    __HAL_UNLOCK(hdma);
 8002636:	687b      	ldr	r3, [r7, #4]
 8002638:	2224      	movs	r2, #36	@ 0x24
 800263a:	2100      	movs	r1, #0
 800263c:	5499      	strb	r1, [r3, r2]
  }

  return HAL_OK;
 800263e:	2300      	movs	r3, #0
}
 8002640:	0018      	movs	r0, r3
 8002642:	46bd      	mov	sp, r7
 8002644:	b002      	add	sp, #8
 8002646:	bd80      	pop	{r7, pc}
 8002648:	fffffeff 	.word	0xfffffeff
 800264c:	40020000 	.word	0x40020000

08002650 <HAL_DMA_IRQHandler>:
  * @param hdma Pointer to a DMA_HandleTypeDef structure that contains
  *             the configuration information for the specified DMA Channel.
  * @retval None
  */
void HAL_DMA_IRQHandler(DMA_HandleTypeDef *hdma)
{
 8002650:	b580      	push	{r7, lr}
 8002652:	b084      	sub	sp, #16
 8002654:	af00      	add	r7, sp, #0
 8002656:	6078      	str	r0, [r7, #4]
#if defined(DMA2)
  uint32_t flag_it = hdma->DmaBaseAddress->ISR;
#else
  uint32_t flag_it = DMA1->ISR;
 8002658:	4b55      	ldr	r3, [pc, #340]	@ (80027b0 <HAL_DMA_IRQHandler+0x160>)
 800265a:	681b      	ldr	r3, [r3, #0]
 800265c:	60fb      	str	r3, [r7, #12]
#endif /* DMA2 */
  uint32_t source_it = hdma->Instance->CCR;
 800265e:	687b      	ldr	r3, [r7, #4]
 8002660:	681b      	ldr	r3, [r3, #0]
 8002662:	681b      	ldr	r3, [r3, #0]
 8002664:	60bb      	str	r3, [r7, #8]

  /* Half Transfer Complete Interrupt management ******************************/
  if (((flag_it & (DMA_FLAG_HT1 << (hdma->ChannelIndex & 0x1CU))) != 0U) && ((source_it & DMA_IT_HT) != 0U))
 8002666:	687b      	ldr	r3, [r7, #4]
 8002668:	6c1b      	ldr	r3, [r3, #64]	@ 0x40
 800266a:	221c      	movs	r2, #28
 800266c:	4013      	ands	r3, r2
 800266e:	2204      	movs	r2, #4
 8002670:	409a      	lsls	r2, r3
 8002672:	0013      	movs	r3, r2
 8002674:	68fa      	ldr	r2, [r7, #12]
 8002676:	4013      	ands	r3, r2
 8002678:	d027      	beq.n	80026ca <HAL_DMA_IRQHandler+0x7a>
 800267a:	68bb      	ldr	r3, [r7, #8]
 800267c:	2204      	movs	r2, #4
 800267e:	4013      	ands	r3, r2
 8002680:	d023      	beq.n	80026ca <HAL_DMA_IRQHandler+0x7a>
  {
      /* Disable the half transfer interrupt if the DMA mode is not CIRCULAR */
      if ((hdma->Instance->CCR & DMA_CCR_CIRC) == 0U)
 8002682:	687b      	ldr	r3, [r7, #4]
 8002684:	681b      	ldr	r3, [r3, #0]
 8002686:	681b      	ldr	r3, [r3, #0]
 8002688:	2220      	movs	r2, #32
 800268a:	4013      	ands	r3, r2
 800268c:	d107      	bne.n	800269e <HAL_DMA_IRQHandler+0x4e>
      {
        /* Disable the half transfer interrupt */
        __HAL_DMA_DISABLE_IT(hdma, DMA_IT_HT);
 800268e:	687b      	ldr	r3, [r7, #4]
 8002690:	681b      	ldr	r3, [r3, #0]
 8002692:	681a      	ldr	r2, [r3, #0]
 8002694:	687b      	ldr	r3, [r7, #4]
 8002696:	681b      	ldr	r3, [r3, #0]
 8002698:	2104      	movs	r1, #4
 800269a:	438a      	bics	r2, r1
 800269c:	601a      	str	r2, [r3, #0]
      }
      /* Clear the half transfer complete flag */
#if defined(DMA2)
      hdma->DmaBaseAddress->IFCR = DMA_ISR_HTIF1 << (hdma->ChannelIndex & 0x1CU);
#else
      __HAL_DMA_CLEAR_FLAG(hdma, (DMA_FLAG_HT1 << (hdma->ChannelIndex & 0x1CU)));
 800269e:	4b44      	ldr	r3, [pc, #272]	@ (80027b0 <HAL_DMA_IRQHandler+0x160>)
 80026a0:	6859      	ldr	r1, [r3, #4]
 80026a2:	687b      	ldr	r3, [r7, #4]
 80026a4:	6c1b      	ldr	r3, [r3, #64]	@ 0x40
 80026a6:	221c      	movs	r2, #28
 80026a8:	4013      	ands	r3, r2
 80026aa:	2204      	movs	r2, #4
 80026ac:	409a      	lsls	r2, r3
 80026ae:	4b40      	ldr	r3, [pc, #256]	@ (80027b0 <HAL_DMA_IRQHandler+0x160>)
 80026b0:	430a      	orrs	r2, r1
 80026b2:	605a      	str	r2, [r3, #4]
#endif /* DMA2 */

      /* DMA peripheral state is not updated in Half Transfer */
      /* but in Transfer Complete case */

      if (hdma->XferHalfCpltCallback != NULL)
 80026b4:	687b      	ldr	r3, [r7, #4]
 80026b6:	6b1b      	ldr	r3, [r3, #48]	@ 0x30
 80026b8:	2b00      	cmp	r3, #0
 80026ba:	d100      	bne.n	80026be <HAL_DMA_IRQHandler+0x6e>
 80026bc:	e073      	b.n	80027a6 <HAL_DMA_IRQHandler+0x156>
      {
        /* Half transfer callback */
        hdma->XferHalfCpltCallback(hdma);
 80026be:	687b      	ldr	r3, [r7, #4]
 80026c0:	6b1b      	ldr	r3, [r3, #48]	@ 0x30
 80026c2:	687a      	ldr	r2, [r7, #4]
 80026c4:	0010      	movs	r0, r2
 80026c6:	4798      	blx	r3
      if (hdma->XferHalfCpltCallback != NULL)
 80026c8:	e06d      	b.n	80027a6 <HAL_DMA_IRQHandler+0x156>
      }
  }

  /* Transfer Complete Interrupt management ***********************************/
  else if ((0U != (flag_it & (DMA_FLAG_TC1 << (hdma->ChannelIndex & 0x1CU)))) && (0U != (source_it & DMA_IT_TC)))
 80026ca:	687b      	ldr	r3, [r7, #4]
 80026cc:	6c1b      	ldr	r3, [r3, #64]	@ 0x40
 80026ce:	221c      	movs	r2, #28
 80026d0:	4013      	ands	r3, r2
 80026d2:	2202      	movs	r2, #2
 80026d4:	409a      	lsls	r2, r3
 80026d6:	0013      	movs	r3, r2
 80026d8:	68fa      	ldr	r2, [r7, #12]
 80026da:	4013      	ands	r3, r2
 80026dc:	d02e      	beq.n	800273c <HAL_DMA_IRQHandler+0xec>
 80026de:	68bb      	ldr	r3, [r7, #8]
 80026e0:	2202      	movs	r2, #2
 80026e2:	4013      	ands	r3, r2
 80026e4:	d02a      	beq.n	800273c <HAL_DMA_IRQHandler+0xec>
  {
      if ((hdma->Instance->CCR & DMA_CCR_CIRC) == 0U)
 80026e6:	687b      	ldr	r3, [r7, #4]
 80026e8:	681b      	ldr	r3, [r3, #0]
 80026ea:	681b      	ldr	r3, [r3, #0]
 80026ec:	2220      	movs	r2, #32
 80026ee:	4013      	ands	r3, r2
 80026f0:	d10b      	bne.n	800270a <HAL_DMA_IRQHandler+0xba>
      {
        /* Disable the transfer complete and error interrupt */
        __HAL_DMA_DISABLE_IT(hdma, DMA_IT_TE | DMA_IT_TC);
 80026f2:	687b      	ldr	r3, [r7, #4]
 80026f4:	681b      	ldr	r3, [r3, #0]
 80026f6:	681a      	ldr	r2, [r3, #0]
 80026f8:	687b      	ldr	r3, [r7, #4]
 80026fa:	681b      	ldr	r3, [r3, #0]
 80026fc:	210a      	movs	r1, #10
 80026fe:	438a      	bics	r2, r1
 8002700:	601a      	str	r2, [r3, #0]

        /* Change the DMA state */
        hdma->State = HAL_DMA_STATE_READY;
 8002702:	687b      	ldr	r3, [r7, #4]
 8002704:	2225      	movs	r2, #37	@ 0x25
 8002706:	2101      	movs	r1, #1
 8002708:	5499      	strb	r1, [r3, r2]
      }
      /* Clear the transfer complete flag */
      __HAL_DMA_CLEAR_FLAG(hdma, (DMA_FLAG_TC1 << (hdma->ChannelIndex & 0x1CU)));
 800270a:	4b29      	ldr	r3, [pc, #164]	@ (80027b0 <HAL_DMA_IRQHandler+0x160>)
 800270c:	6859      	ldr	r1, [r3, #4]
 800270e:	687b      	ldr	r3, [r7, #4]
 8002710:	6c1b      	ldr	r3, [r3, #64]	@ 0x40
 8002712:	221c      	movs	r2, #28
 8002714:	4013      	ands	r3, r2
 8002716:	2202      	movs	r2, #2
 8002718:	409a      	lsls	r2, r3
 800271a:	4b25      	ldr	r3, [pc, #148]	@ (80027b0 <HAL_DMA_IRQHandler+0x160>)
 800271c:	430a      	orrs	r2, r1
 800271e:	605a      	str	r2, [r3, #4]

      /* Process Unlocked */
      __HAL_UNLOCK(hdma);
 8002720:	687b      	ldr	r3, [r7, #4]
 8002722:	2224      	movs	r2, #36	@ 0x24
 8002724:	2100      	movs	r1, #0
 8002726:	5499      	strb	r1, [r3, r2]

      if (hdma->XferCpltCallback != NULL)
 8002728:	687b      	ldr	r3, [r7, #4]
 800272a:	6adb      	ldr	r3, [r3, #44]	@ 0x2c
 800272c:	2b00      	cmp	r3, #0
 800272e:	d03a      	beq.n	80027a6 <HAL_DMA_IRQHandler+0x156>
      {
        /* Transfer complete callback */
        hdma->XferCpltCallback(hdma);
 8002730:	687b      	ldr	r3, [r7, #4]
 8002732:	6adb      	ldr	r3, [r3, #44]	@ 0x2c
 8002734:	687a      	ldr	r2, [r7, #4]
 8002736:	0010      	movs	r0, r2
 8002738:	4798      	blx	r3
      if (hdma->XferCpltCallback != NULL)
 800273a:	e034      	b.n	80027a6 <HAL_DMA_IRQHandler+0x156>
      }
  }

  /* Transfer Error Interrupt management **************************************/
  else if (((flag_it & (DMA_FLAG_TE1 << (hdma->ChannelIndex & 0x1CU))) != 0U) && ((source_it & DMA_IT_TE) != 0U))
 800273c:	687b      	ldr	r3, [r7, #4]
 800273e:	6c1b      	ldr	r3, [r3, #64]	@ 0x40
 8002740:	221c      	movs	r2, #28
 8002742:	4013      	ands	r3, r2
 8002744:	2208      	movs	r2, #8
 8002746:	409a      	lsls	r2, r3
 8002748:	0013      	movs	r3, r2
 800274a:	68fa      	ldr	r2, [r7, #12]
 800274c:	4013      	ands	r3, r2
 800274e:	d02b      	beq.n	80027a8 <HAL_DMA_IRQHandler+0x158>
 8002750:	68bb      	ldr	r3, [r7, #8]
 8002752:	2208      	movs	r2, #8
 8002754:	4013      	ands	r3, r2
 8002756:	d027      	beq.n	80027a8 <HAL_DMA_IRQHandler+0x158>
  {
    /* When a DMA transfer error occurs */
    /* A hardware clear of its EN bits is performed */
    /* Disable ALL DMA IT */
    __HAL_DMA_DISABLE_IT(hdma, (DMA_IT_TC | DMA_IT_HT | DMA_IT_TE));
 8002758:	687b      	ldr	r3, [r7, #4]
 800275a:	681b      	ldr	r3, [r3, #0]
 800275c:	681a      	ldr	r2, [r3, #0]
 800275e:	687b      	ldr	r3, [r7, #4]
 8002760:	681b      	ldr	r3, [r3, #0]
 8002762:	210e      	movs	r1, #14
 8002764:	438a      	bics	r2, r1
 8002766:	601a      	str	r2, [r3, #0]

    /* Clear all flags */
#if defined(DMA2)
    hdma->DmaBaseAddress->IFCR = (DMA_ISR_GIF1 << (hdma->ChannelIndex & 0x1CU));
#else
    __HAL_DMA_CLEAR_FLAG(hdma, (DMA_FLAG_GI1 << (hdma->ChannelIndex & 0x1CU)));
 8002768:	4b11      	ldr	r3, [pc, #68]	@ (80027b0 <HAL_DMA_IRQHandler+0x160>)
 800276a:	6859      	ldr	r1, [r3, #4]
 800276c:	687b      	ldr	r3, [r7, #4]
 800276e:	6c1b      	ldr	r3, [r3, #64]	@ 0x40
 8002770:	221c      	movs	r2, #28
 8002772:	4013      	ands	r3, r2
 8002774:	2201      	movs	r2, #1
 8002776:	409a      	lsls	r2, r3
 8002778:	4b0d      	ldr	r3, [pc, #52]	@ (80027b0 <HAL_DMA_IRQHandler+0x160>)
 800277a:	430a      	orrs	r2, r1
 800277c:	605a      	str	r2, [r3, #4]
#endif /* DMA2 */

    /* Update error code */
    hdma->ErrorCode = HAL_DMA_ERROR_TE;
 800277e:	687b      	ldr	r3, [r7, #4]
 8002780:	2201      	movs	r2, #1
 8002782:	63da      	str	r2, [r3, #60]	@ 0x3c

    /* Change the DMA state */
    hdma->State = HAL_DMA_STATE_READY;
 8002784:	687b      	ldr	r3, [r7, #4]
 8002786:	2225      	movs	r2, #37	@ 0x25
 8002788:	2101      	movs	r1, #1
 800278a:	5499      	strb	r1, [r3, r2]

    /* Process Unlocked */
    __HAL_UNLOCK(hdma);
 800278c:	687b      	ldr	r3, [r7, #4]
 800278e:	2224      	movs	r2, #36	@ 0x24
 8002790:	2100      	movs	r1, #0
 8002792:	5499      	strb	r1, [r3, r2]

    if (hdma->XferErrorCallback != NULL)
 8002794:	687b      	ldr	r3, [r7, #4]
 8002796:	6b5b      	ldr	r3, [r3, #52]	@ 0x34
 8002798:	2b00      	cmp	r3, #0
 800279a:	d005      	beq.n	80027a8 <HAL_DMA_IRQHandler+0x158>
    {
      /* Transfer error callback */
      hdma->XferErrorCallback(hdma);
 800279c:	687b      	ldr	r3, [r7, #4]
 800279e:	6b5b      	ldr	r3, [r3, #52]	@ 0x34
 80027a0:	687a      	ldr	r2, [r7, #4]
 80027a2:	0010      	movs	r0, r2
 80027a4:	4798      	blx	r3
  }
  else
  {
    /* Nothing To Do */
  }
  return;
 80027a6:	46c0      	nop			@ (mov r8, r8)
 80027a8:	46c0      	nop			@ (mov r8, r8)
}
 80027aa:	46bd      	mov	sp, r7
 80027ac:	b004      	add	sp, #16
 80027ae:	bd80      	pop	{r7, pc}
 80027b0:	40020000 	.word	0x40020000

080027b4 <DMA_SetConfig>:
  * @param DstAddress The destination memory Buffer address
  * @param DataLength The length of data to be transferred from source to destination
  * @retval HAL status
  */
static void DMA_SetConfig(DMA_HandleTypeDef *hdma, uint32_t SrcAddress, uint32_t DstAddress, uint32_t DataLength)
{
 80027b4:	b580      	push	{r7, lr}
 80027b6:	b084      	sub	sp, #16
 80027b8:	af00      	add	r7, sp, #0
 80027ba:	60f8      	str	r0, [r7, #12]
 80027bc:	60b9      	str	r1, [r7, #8]
 80027be:	607a      	str	r2, [r7, #4]
 80027c0:	603b      	str	r3, [r7, #0]
  /* Clear the DMAMUX synchro overrun flag */
  hdma->DMAmuxChannelStatus->CFR = hdma->DMAmuxChannelStatusMask;
 80027c2:	68fb      	ldr	r3, [r7, #12]
 80027c4:	6c9b      	ldr	r3, [r3, #72]	@ 0x48
 80027c6:	68fa      	ldr	r2, [r7, #12]
 80027c8:	6cd2      	ldr	r2, [r2, #76]	@ 0x4c
 80027ca:	605a      	str	r2, [r3, #4]

  if (hdma->DMAmuxRequestGen != 0U)
 80027cc:	68fb      	ldr	r3, [r7, #12]
 80027ce:	6d1b      	ldr	r3, [r3, #80]	@ 0x50
 80027d0:	2b00      	cmp	r3, #0
 80027d2:	d004      	beq.n	80027de <DMA_SetConfig+0x2a>
  {
    /* Clear the DMAMUX request generator overrun flag */
    hdma->DMAmuxRequestGenStatus->RGCFR = hdma->DMAmuxRequestGenStatusMask;
 80027d4:	68fb      	ldr	r3, [r7, #12]
 80027d6:	6d5b      	ldr	r3, [r3, #84]	@ 0x54
 80027d8:	68fa      	ldr	r2, [r7, #12]
 80027da:	6d92      	ldr	r2, [r2, #88]	@ 0x58
 80027dc:	605a      	str	r2, [r3, #4]

  /* Clear all flags */
#if defined(DMA2)
  hdma->DmaBaseAddress->IFCR = (DMA_ISR_GIF1 << (hdma->ChannelIndex & 0x1CU));
#else
  __HAL_DMA_CLEAR_FLAG(hdma, (DMA_FLAG_GI1 << (hdma->ChannelIndex & 0x1CU)));
 80027de:	4b14      	ldr	r3, [pc, #80]	@ (8002830 <DMA_SetConfig+0x7c>)
 80027e0:	6859      	ldr	r1, [r3, #4]
 80027e2:	68fb      	ldr	r3, [r7, #12]
 80027e4:	6c1b      	ldr	r3, [r3, #64]	@ 0x40
 80027e6:	221c      	movs	r2, #28
 80027e8:	4013      	ands	r3, r2
 80027ea:	2201      	movs	r2, #1
 80027ec:	409a      	lsls	r2, r3
 80027ee:	4b10      	ldr	r3, [pc, #64]	@ (8002830 <DMA_SetConfig+0x7c>)
 80027f0:	430a      	orrs	r2, r1
 80027f2:	605a      	str	r2, [r3, #4]
#endif /* DMA2 */

  /* Configure DMA Channel data length */
  hdma->Instance->CNDTR = DataLength;
 80027f4:	68fb      	ldr	r3, [r7, #12]
 80027f6:	681b      	ldr	r3, [r3, #0]
 80027f8:	683a      	ldr	r2, [r7, #0]
 80027fa:	605a      	str	r2, [r3, #4]

  /* Memory to Peripheral */
  if ((hdma->Init.Direction) == DMA_MEMORY_TO_PERIPH)
 80027fc:	68fb      	ldr	r3, [r7, #12]
 80027fe:	689b      	ldr	r3, [r3, #8]
 8002800:	2b10      	cmp	r3, #16
 8002802:	d108      	bne.n	8002816 <DMA_SetConfig+0x62>
  {
    /* Configure DMA Channel destination address */
    hdma->Instance->CPAR = DstAddress;
 8002804:	68fb      	ldr	r3, [r7, #12]
 8002806:	681b      	ldr	r3, [r3, #0]
 8002808:	687a      	ldr	r2, [r7, #4]
 800280a:	609a      	str	r2, [r3, #8]

    /* Configure DMA Channel source address */
    hdma->Instance->CMAR = SrcAddress;
 800280c:	68fb      	ldr	r3, [r7, #12]
 800280e:	681b      	ldr	r3, [r3, #0]
 8002810:	68ba      	ldr	r2, [r7, #8]
 8002812:	60da      	str	r2, [r3, #12]
    hdma->Instance->CPAR = SrcAddress;

    /* Configure DMA Channel destination address */
    hdma->Instance->CMAR = DstAddress;
  }
}
 8002814:	e007      	b.n	8002826 <DMA_SetConfig+0x72>
    hdma->Instance->CPAR = SrcAddress;
 8002816:	68fb      	ldr	r3, [r7, #12]
 8002818:	681b      	ldr	r3, [r3, #0]
 800281a:	68ba      	ldr	r2, [r7, #8]
 800281c:	609a      	str	r2, [r3, #8]
    hdma->Instance->CMAR = DstAddress;
 800281e:	68fb      	ldr	r3, [r7, #12]
 8002820:	681b      	ldr	r3, [r3, #0]
 8002822:	687a      	ldr	r2, [r7, #4]
 8002824:	60da      	str	r2, [r3, #12]
}
 8002826:	46c0      	nop			@ (mov r8, r8)
 8002828:	46bd      	mov	sp, r7
 800282a:	b004      	add	sp, #16
 800282c:	bd80      	pop	{r7, pc}
 800282e:	46c0      	nop			@ (mov r8, r8)
 8002830:	40020000 	.word	0x40020000

08002834 <DMA_CalcDMAMUXChannelBaseAndMask>:
  * @param hdma Pointer to a DMA_HandleTypeDef structure that contains
  *             the configuration information for the specified DMA Channel.
  * @retval None
  */
static void DMA_CalcDMAMUXChannelBaseAndMask(DMA_HandleTypeDef *hdma)
{
 8002834:	b580      	push	{r7, lr}
 8002836:	b084      	sub	sp, #16
 8002838:	af00      	add	r7, sp, #0
 800283a:	6078      	str	r0, [r7, #4]
    /* Prepare channel_number used for DMAmuxChannelStatusMask computation */
    channel_number = (((((uint32_t)hdma->Instance & 0xFFU) - 8U) / 20U) + 7U);
  }
#else
  /* Associate a DMA Channel to a DMAMUX channel */
  hdma->DMAmuxChannel = (DMAMUX_Channel_TypeDef *)(uint32_t)((uint32_t)DMAMUX1_Channel0 + ((hdma->ChannelIndex >> 2U) * ((uint32_t)DMAMUX1_Channel1 - (uint32_t)DMAMUX1_Channel0)));
 800283c:	687b      	ldr	r3, [r7, #4]
 800283e:	6c1b      	ldr	r3, [r3, #64]	@ 0x40
 8002840:	089b      	lsrs	r3, r3, #2
 8002842:	4a10      	ldr	r2, [pc, #64]	@ (8002884 <DMA_CalcDMAMUXChannelBaseAndMask+0x50>)
 8002844:	4694      	mov	ip, r2
 8002846:	4463      	add	r3, ip
 8002848:	009b      	lsls	r3, r3, #2
 800284a:	001a      	movs	r2, r3
 800284c:	687b      	ldr	r3, [r7, #4]
 800284e:	645a      	str	r2, [r3, #68]	@ 0x44

  /* Prepare channel_number used for DMAmuxChannelStatusMask computation */
  channel_number = (((uint32_t)hdma->Instance & 0xFFU) - 8U) / 20U;
 8002850:	687b      	ldr	r3, [r7, #4]
 8002852:	681b      	ldr	r3, [r3, #0]
 8002854:	001a      	movs	r2, r3
 8002856:	23ff      	movs	r3, #255	@ 0xff
 8002858:	4013      	ands	r3, r2
 800285a:	3b08      	subs	r3, #8
 800285c:	2114      	movs	r1, #20
 800285e:	0018      	movs	r0, r3
 8002860:	f7fd fc5a 	bl	8000118 <__udivsi3>
 8002864:	0003      	movs	r3, r0
 8002866:	60fb      	str	r3, [r7, #12]
#endif /* DMA2 */

  /* Initialize the field DMAmuxChannelStatus to DMAMUX1_ChannelStatus base */
  hdma->DMAmuxChannelStatus = DMAMUX1_ChannelStatus;
 8002868:	687b      	ldr	r3, [r7, #4]
 800286a:	4a07      	ldr	r2, [pc, #28]	@ (8002888 <DMA_CalcDMAMUXChannelBaseAndMask+0x54>)
 800286c:	649a      	str	r2, [r3, #72]	@ 0x48

  /* Initialize the field DMAmuxChannelStatusMask with the corresponding index of the DMAMUX channel selected for the current ChannelIndex */
  hdma->DMAmuxChannelStatusMask = 1UL << (channel_number & 0x1FU);
 800286e:	68fb      	ldr	r3, [r7, #12]
 8002870:	221f      	movs	r2, #31
 8002872:	4013      	ands	r3, r2
 8002874:	2201      	movs	r2, #1
 8002876:	409a      	lsls	r2, r3
 8002878:	687b      	ldr	r3, [r7, #4]
 800287a:	64da      	str	r2, [r3, #76]	@ 0x4c
}
 800287c:	46c0      	nop			@ (mov r8, r8)
 800287e:	46bd      	mov	sp, r7
 8002880:	b004      	add	sp, #16
 8002882:	bd80      	pop	{r7, pc}
 8002884:	10008200 	.word	0x10008200
 8002888:	40020880 	.word	0x40020880

0800288c <DMA_CalcDMAMUXRequestGenBaseAndMask>:
  *             the configuration information for the specified DMA Channel.
  * @retval None
  */

static void DMA_CalcDMAMUXRequestGenBaseAndMask(DMA_HandleTypeDef *hdma)
{
 800288c:	b580      	push	{r7, lr}
 800288e:	b084      	sub	sp, #16
 8002890:	af00      	add	r7, sp, #0
 8002892:	6078      	str	r0, [r7, #4]
  uint32_t request =  hdma->Init.Request & DMAMUX_CxCR_DMAREQ_ID;
 8002894:	687b      	ldr	r3, [r7, #4]
 8002896:	685b      	ldr	r3, [r3, #4]
 8002898:	223f      	movs	r2, #63	@ 0x3f
 800289a:	4013      	ands	r3, r2
 800289c:	60fb      	str	r3, [r7, #12]

  /* DMA Channels are connected to DMAMUX1 request generator blocks*/
  hdma->DMAmuxRequestGen = (DMAMUX_RequestGen_TypeDef *)((uint32_t)(((uint32_t)DMAMUX1_RequestGenerator0) + ((request - 1U) * 4U)));
 800289e:	68fb      	ldr	r3, [r7, #12]
 80028a0:	4a0a      	ldr	r2, [pc, #40]	@ (80028cc <DMA_CalcDMAMUXRequestGenBaseAndMask+0x40>)
 80028a2:	4694      	mov	ip, r2
 80028a4:	4463      	add	r3, ip
 80028a6:	009b      	lsls	r3, r3, #2
 80028a8:	001a      	movs	r2, r3
 80028aa:	687b      	ldr	r3, [r7, #4]
 80028ac:	651a      	str	r2, [r3, #80]	@ 0x50

  hdma->DMAmuxRequestGenStatus = DMAMUX1_RequestGenStatus;
 80028ae:	687b      	ldr	r3, [r7, #4]
 80028b0:	4a07      	ldr	r2, [pc, #28]	@ (80028d0 <DMA_CalcDMAMUXRequestGenBaseAndMask+0x44>)
 80028b2:	655a      	str	r2, [r3, #84]	@ 0x54

  /* here "Request" is either DMA_REQUEST_GENERATOR0 to DMA_REQUEST_GENERATOR3, i.e. <= 4*/
  hdma->DMAmuxRequestGenStatusMask = 1UL << ((request - 1U) & 0x3U);
 80028b4:	68fb      	ldr	r3, [r7, #12]
 80028b6:	3b01      	subs	r3, #1
 80028b8:	2203      	movs	r2, #3
 80028ba:	4013      	ands	r3, r2
 80028bc:	2201      	movs	r2, #1
 80028be:	409a      	lsls	r2, r3
 80028c0:	687b      	ldr	r3, [r7, #4]
 80028c2:	659a      	str	r2, [r3, #88]	@ 0x58
}
 80028c4:	46c0      	nop			@ (mov r8, r8)
 80028c6:	46bd      	mov	sp, r7
 80028c8:	b004      	add	sp, #16
 80028ca:	bd80      	pop	{r7, pc}
 80028cc:	1000823f 	.word	0x1000823f
 80028d0:	40020940 	.word	0x40020940

080028d4 <HAL_GPIO_Init>:
  * @param  GPIO_Init pointer to a GPIO_InitTypeDef structure that contains
  *         the configuration information for the specified GPIO peripheral.
  * @retval None
  */
void HAL_GPIO_Init(GPIO_TypeDef  *GPIOx, GPIO_InitTypeDef *GPIO_Init)
{
 80028d4:	b580      	push	{r7, lr}
 80028d6:	b086      	sub	sp, #24
 80028d8:	af00      	add	r7, sp, #0
 80028da:	6078      	str	r0, [r7, #4]
 80028dc:	6039      	str	r1, [r7, #0]
  uint32_t position = 0x00u;
 80028de:	2300      	movs	r3, #0
 80028e0:	617b      	str	r3, [r7, #20]
  assert_param(IS_GPIO_ALL_INSTANCE(GPIOx));
  assert_param(IS_GPIO_PIN(GPIO_Init->Pin));
  assert_param(IS_GPIO_MODE(GPIO_Init->Mode));

  /* Configure the port pins */
  while (((GPIO_Init->Pin) >> position) != 0x00u)
 80028e2:	e147      	b.n	8002b74 <HAL_GPIO_Init+0x2a0>
  {
    /* Get current io position */
    iocurrent = (GPIO_Init->Pin) & (1uL << position);
 80028e4:	683b      	ldr	r3, [r7, #0]
 80028e6:	681b      	ldr	r3, [r3, #0]
 80028e8:	2101      	movs	r1, #1
 80028ea:	697a      	ldr	r2, [r7, #20]
 80028ec:	4091      	lsls	r1, r2
 80028ee:	000a      	movs	r2, r1
 80028f0:	4013      	ands	r3, r2
 80028f2:	60fb      	str	r3, [r7, #12]

    if (iocurrent != 0x00u)
 80028f4:	68fb      	ldr	r3, [r7, #12]
 80028f6:	2b00      	cmp	r3, #0
 80028f8:	d100      	bne.n	80028fc <HAL_GPIO_Init+0x28>
 80028fa:	e138      	b.n	8002b6e <HAL_GPIO_Init+0x29a>
    {
      /*--------------------- GPIO Mode Configuration ------------------------*/
      /* In case of Output or Alternate function mode selection */
      if (((GPIO_Init->Mode & GPIO_MODE) == MODE_OUTPUT) || ((GPIO_Init->Mode & GPIO_MODE) == MODE_AF))
 80028fc:	683b      	ldr	r3, [r7, #0]
 80028fe:	685b      	ldr	r3, [r3, #4]
 8002900:	2203      	movs	r2, #3
 8002902:	4013      	ands	r3, r2
 8002904:	2b01      	cmp	r3, #1
 8002906:	d005      	beq.n	8002914 <HAL_GPIO_Init+0x40>
 8002908:	683b      	ldr	r3, [r7, #0]
 800290a:	685b      	ldr	r3, [r3, #4]
 800290c:	2203      	movs	r2, #3
 800290e:	4013      	ands	r3, r2
 8002910:	2b02      	cmp	r3, #2
 8002912:	d130      	bne.n	8002976 <HAL_GPIO_Init+0xa2>
      {
        /* Check the Speed parameter */
        assert_param(IS_GPIO_SPEED(GPIO_Init->Speed));

        /* Configure the IO Speed */
        temp = GPIOx->OSPEEDR;
 8002914:	687b      	ldr	r3, [r7, #4]
 8002916:	689b      	ldr	r3, [r3, #8]
 8002918:	613b      	str	r3, [r7, #16]
        temp &= ~(GPIO_OSPEEDR_OSPEED0 << (position * 2u));
 800291a:	697b      	ldr	r3, [r7, #20]
 800291c:	005b      	lsls	r3, r3, #1
 800291e:	2203      	movs	r2, #3
 8002920:	409a      	lsls	r2, r3
 8002922:	0013      	movs	r3, r2
 8002924:	43da      	mvns	r2, r3
 8002926:	693b      	ldr	r3, [r7, #16]
 8002928:	4013      	ands	r3, r2
 800292a:	613b      	str	r3, [r7, #16]
        temp |= (GPIO_Init->Speed << (position * 2u));
 800292c:	683b      	ldr	r3, [r7, #0]
 800292e:	68da      	ldr	r2, [r3, #12]
 8002930:	697b      	ldr	r3, [r7, #20]
 8002932:	005b      	lsls	r3, r3, #1
 8002934:	409a      	lsls	r2, r3
 8002936:	0013      	movs	r3, r2
 8002938:	693a      	ldr	r2, [r7, #16]
 800293a:	4313      	orrs	r3, r2
 800293c:	613b      	str	r3, [r7, #16]
        GPIOx->OSPEEDR = temp;
 800293e:	687b      	ldr	r3, [r7, #4]
 8002940:	693a      	ldr	r2, [r7, #16]
 8002942:	609a      	str	r2, [r3, #8]

        /* Configure the IO Output Type */
        temp = GPIOx->OTYPER;
 8002944:	687b      	ldr	r3, [r7, #4]
 8002946:	685b      	ldr	r3, [r3, #4]
 8002948:	613b      	str	r3, [r7, #16]
        temp &= ~(GPIO_OTYPER_OT0 << position) ;
 800294a:	2201      	movs	r2, #1
 800294c:	697b      	ldr	r3, [r7, #20]
 800294e:	409a      	lsls	r2, r3
 8002950:	0013      	movs	r3, r2
 8002952:	43da      	mvns	r2, r3
 8002954:	693b      	ldr	r3, [r7, #16]
 8002956:	4013      	ands	r3, r2
 8002958:	613b      	str	r3, [r7, #16]
        temp |= (((GPIO_Init->Mode & OUTPUT_TYPE) >> OUTPUT_TYPE_Pos) << position);
 800295a:	683b      	ldr	r3, [r7, #0]
 800295c:	685b      	ldr	r3, [r3, #4]
 800295e:	091b      	lsrs	r3, r3, #4
 8002960:	2201      	movs	r2, #1
 8002962:	401a      	ands	r2, r3
 8002964:	697b      	ldr	r3, [r7, #20]
 8002966:	409a      	lsls	r2, r3
 8002968:	0013      	movs	r3, r2
 800296a:	693a      	ldr	r2, [r7, #16]
 800296c:	4313      	orrs	r3, r2
 800296e:	613b      	str	r3, [r7, #16]
        GPIOx->OTYPER = temp;
 8002970:	687b      	ldr	r3, [r7, #4]
 8002972:	693a      	ldr	r2, [r7, #16]
 8002974:	605a      	str	r2, [r3, #4]
      }

      if ((GPIO_Init->Mode & GPIO_MODE) != MODE_ANALOG)
 8002976:	683b      	ldr	r3, [r7, #0]
 8002978:	685b      	ldr	r3, [r3, #4]
 800297a:	2203      	movs	r2, #3
 800297c:	4013      	ands	r3, r2
 800297e:	2b03      	cmp	r3, #3
 8002980:	d017      	beq.n	80029b2 <HAL_GPIO_Init+0xde>
      {
        /* Check the Pull parameter */
        assert_param(IS_GPIO_PULL(GPIO_Init->Pull));

        /* Activate the Pull-up or Pull down resistor for the current IO */
        temp = GPIOx->PUPDR;
 8002982:	687b      	ldr	r3, [r7, #4]
 8002984:	68db      	ldr	r3, [r3, #12]
 8002986:	613b      	str	r3, [r7, #16]
        temp &= ~(GPIO_PUPDR_PUPD0 << (position * 2u));
 8002988:	697b      	ldr	r3, [r7, #20]
 800298a:	005b      	lsls	r3, r3, #1
 800298c:	2203      	movs	r2, #3
 800298e:	409a      	lsls	r2, r3
 8002990:	0013      	movs	r3, r2
 8002992:	43da      	mvns	r2, r3
 8002994:	693b      	ldr	r3, [r7, #16]
 8002996:	4013      	ands	r3, r2
 8002998:	613b      	str	r3, [r7, #16]
        temp |= ((GPIO_Init->Pull) << (position * 2u));
 800299a:	683b      	ldr	r3, [r7, #0]
 800299c:	689a      	ldr	r2, [r3, #8]
 800299e:	697b      	ldr	r3, [r7, #20]
 80029a0:	005b      	lsls	r3, r3, #1
 80029a2:	409a      	lsls	r2, r3
 80029a4:	0013      	movs	r3, r2
 80029a6:	693a      	ldr	r2, [r7, #16]
 80029a8:	4313      	orrs	r3, r2
 80029aa:	613b      	str	r3, [r7, #16]
        GPIOx->PUPDR = temp;
 80029ac:	687b      	ldr	r3, [r7, #4]
 80029ae:	693a      	ldr	r2, [r7, #16]
 80029b0:	60da      	str	r2, [r3, #12]
      }

      /* In case of Alternate function mode selection */
      if ((GPIO_Init->Mode & GPIO_MODE) == MODE_AF)
 80029b2:	683b      	ldr	r3, [r7, #0]
 80029b4:	685b      	ldr	r3, [r3, #4]
 80029b6:	2203      	movs	r2, #3
 80029b8:	4013      	ands	r3, r2
 80029ba:	2b02      	cmp	r3, #2
 80029bc:	d123      	bne.n	8002a06 <HAL_GPIO_Init+0x132>
        /* Check the Alternate function parameters */
        assert_param(IS_GPIO_AF_INSTANCE(GPIOx));
        assert_param(IS_GPIO_AF(GPIO_Init->Alternate));

        /* Configure Alternate function mapped with the current IO */
        temp = GPIOx->AFR[position >> 3u];
 80029be:	697b      	ldr	r3, [r7, #20]
 80029c0:	08da      	lsrs	r2, r3, #3
 80029c2:	687b      	ldr	r3, [r7, #4]
 80029c4:	3208      	adds	r2, #8
 80029c6:	0092      	lsls	r2, r2, #2
 80029c8:	58d3      	ldr	r3, [r2, r3]
 80029ca:	613b      	str	r3, [r7, #16]
        temp &= ~(0xFu << ((position & 0x07u) * 4u));
 80029cc:	697b      	ldr	r3, [r7, #20]
 80029ce:	2207      	movs	r2, #7
 80029d0:	4013      	ands	r3, r2
 80029d2:	009b      	lsls	r3, r3, #2
 80029d4:	220f      	movs	r2, #15
 80029d6:	409a      	lsls	r2, r3
 80029d8:	0013      	movs	r3, r2
 80029da:	43da      	mvns	r2, r3
 80029dc:	693b      	ldr	r3, [r7, #16]
 80029de:	4013      	ands	r3, r2
 80029e0:	613b      	str	r3, [r7, #16]
        temp |= ((GPIO_Init->Alternate) << ((position & 0x07u) * 4u));
 80029e2:	683b      	ldr	r3, [r7, #0]
 80029e4:	691a      	ldr	r2, [r3, #16]
 80029e6:	697b      	ldr	r3, [r7, #20]
 80029e8:	2107      	movs	r1, #7
 80029ea:	400b      	ands	r3, r1
 80029ec:	009b      	lsls	r3, r3, #2
 80029ee:	409a      	lsls	r2, r3
 80029f0:	0013      	movs	r3, r2
 80029f2:	693a      	ldr	r2, [r7, #16]
 80029f4:	4313      	orrs	r3, r2
 80029f6:	613b      	str	r3, [r7, #16]
        GPIOx->AFR[position >> 3u] = temp;
 80029f8:	697b      	ldr	r3, [r7, #20]
 80029fa:	08da      	lsrs	r2, r3, #3
 80029fc:	687b      	ldr	r3, [r7, #4]
 80029fe:	3208      	adds	r2, #8
 8002a00:	0092      	lsls	r2, r2, #2
 8002a02:	6939      	ldr	r1, [r7, #16]
 8002a04:	50d1      	str	r1, [r2, r3]
      }

      /* Configure IO Direction mode (Input, Output, Alternate or Analog) */
      temp = GPIOx->MODER;
 8002a06:	687b      	ldr	r3, [r7, #4]
 8002a08:	681b      	ldr	r3, [r3, #0]
 8002a0a:	613b      	str	r3, [r7, #16]
      temp &= ~(GPIO_MODER_MODE0 << (position * 2u));
 8002a0c:	697b      	ldr	r3, [r7, #20]
 8002a0e:	005b      	lsls	r3, r3, #1
 8002a10:	2203      	movs	r2, #3
 8002a12:	409a      	lsls	r2, r3
 8002a14:	0013      	movs	r3, r2
 8002a16:	43da      	mvns	r2, r3
 8002a18:	693b      	ldr	r3, [r7, #16]
 8002a1a:	4013      	ands	r3, r2
 8002a1c:	613b      	str	r3, [r7, #16]
      temp |= ((GPIO_Init->Mode & GPIO_MODE) << (position * 2u));
 8002a1e:	683b      	ldr	r3, [r7, #0]
 8002a20:	685b      	ldr	r3, [r3, #4]
 8002a22:	2203      	movs	r2, #3
 8002a24:	401a      	ands	r2, r3
 8002a26:	697b      	ldr	r3, [r7, #20]
 8002a28:	005b      	lsls	r3, r3, #1
 8002a2a:	409a      	lsls	r2, r3
 8002a2c:	0013      	movs	r3, r2
 8002a2e:	693a      	ldr	r2, [r7, #16]
 8002a30:	4313      	orrs	r3, r2
 8002a32:	613b      	str	r3, [r7, #16]
      GPIOx->MODER = temp;
 8002a34:	687b      	ldr	r3, [r7, #4]
 8002a36:	693a      	ldr	r2, [r7, #16]
 8002a38:	601a      	str	r2, [r3, #0]

      /*--------------------- EXTI Mode Configuration ------------------------*/
      /* Configure the External Interrupt or event for the current IO */
      if ((GPIO_Init->Mode & EXTI_MODE) != 0x00u)
 8002a3a:	683b      	ldr	r3, [r7, #0]
 8002a3c:	685a      	ldr	r2, [r3, #4]
 8002a3e:	23c0      	movs	r3, #192	@ 0xc0
 8002a40:	029b      	lsls	r3, r3, #10
 8002a42:	4013      	ands	r3, r2
 8002a44:	d100      	bne.n	8002a48 <HAL_GPIO_Init+0x174>
 8002a46:	e092      	b.n	8002b6e <HAL_GPIO_Init+0x29a>
      {
        temp = EXTI->EXTICR[position >> 2u];
 8002a48:	4a50      	ldr	r2, [pc, #320]	@ (8002b8c <HAL_GPIO_Init+0x2b8>)
 8002a4a:	697b      	ldr	r3, [r7, #20]
 8002a4c:	089b      	lsrs	r3, r3, #2
 8002a4e:	3318      	adds	r3, #24
 8002a50:	009b      	lsls	r3, r3, #2
 8002a52:	589b      	ldr	r3, [r3, r2]
 8002a54:	613b      	str	r3, [r7, #16]
        temp &= ~(0x0FuL << (8u * (position & 0x03u)));
 8002a56:	697b      	ldr	r3, [r7, #20]
 8002a58:	2203      	movs	r2, #3
 8002a5a:	4013      	ands	r3, r2
 8002a5c:	00db      	lsls	r3, r3, #3
 8002a5e:	220f      	movs	r2, #15
 8002a60:	409a      	lsls	r2, r3
 8002a62:	0013      	movs	r3, r2
 8002a64:	43da      	mvns	r2, r3
 8002a66:	693b      	ldr	r3, [r7, #16]
 8002a68:	4013      	ands	r3, r2
 8002a6a:	613b      	str	r3, [r7, #16]
        temp |= (GPIO_GET_INDEX(GPIOx) << (8u * (position & 0x03u)));
 8002a6c:	687a      	ldr	r2, [r7, #4]
 8002a6e:	23a0      	movs	r3, #160	@ 0xa0
 8002a70:	05db      	lsls	r3, r3, #23
 8002a72:	429a      	cmp	r2, r3
 8002a74:	d013      	beq.n	8002a9e <HAL_GPIO_Init+0x1ca>
 8002a76:	687b      	ldr	r3, [r7, #4]
 8002a78:	4a45      	ldr	r2, [pc, #276]	@ (8002b90 <HAL_GPIO_Init+0x2bc>)
 8002a7a:	4293      	cmp	r3, r2
 8002a7c:	d00d      	beq.n	8002a9a <HAL_GPIO_Init+0x1c6>
 8002a7e:	687b      	ldr	r3, [r7, #4]
 8002a80:	4a44      	ldr	r2, [pc, #272]	@ (8002b94 <HAL_GPIO_Init+0x2c0>)
 8002a82:	4293      	cmp	r3, r2
 8002a84:	d007      	beq.n	8002a96 <HAL_GPIO_Init+0x1c2>
 8002a86:	687b      	ldr	r3, [r7, #4]
 8002a88:	4a43      	ldr	r2, [pc, #268]	@ (8002b98 <HAL_GPIO_Init+0x2c4>)
 8002a8a:	4293      	cmp	r3, r2
 8002a8c:	d101      	bne.n	8002a92 <HAL_GPIO_Init+0x1be>
 8002a8e:	2303      	movs	r3, #3
 8002a90:	e006      	b.n	8002aa0 <HAL_GPIO_Init+0x1cc>
 8002a92:	2305      	movs	r3, #5
 8002a94:	e004      	b.n	8002aa0 <HAL_GPIO_Init+0x1cc>
 8002a96:	2302      	movs	r3, #2
 8002a98:	e002      	b.n	8002aa0 <HAL_GPIO_Init+0x1cc>
 8002a9a:	2301      	movs	r3, #1
 8002a9c:	e000      	b.n	8002aa0 <HAL_GPIO_Init+0x1cc>
 8002a9e:	2300      	movs	r3, #0
 8002aa0:	697a      	ldr	r2, [r7, #20]
 8002aa2:	2103      	movs	r1, #3
 8002aa4:	400a      	ands	r2, r1
 8002aa6:	00d2      	lsls	r2, r2, #3
 8002aa8:	4093      	lsls	r3, r2
 8002aaa:	693a      	ldr	r2, [r7, #16]
 8002aac:	4313      	orrs	r3, r2
 8002aae:	613b      	str	r3, [r7, #16]
        EXTI->EXTICR[position >> 2u] = temp;
 8002ab0:	4936      	ldr	r1, [pc, #216]	@ (8002b8c <HAL_GPIO_Init+0x2b8>)
 8002ab2:	697b      	ldr	r3, [r7, #20]
 8002ab4:	089b      	lsrs	r3, r3, #2
 8002ab6:	3318      	adds	r3, #24
 8002ab8:	009b      	lsls	r3, r3, #2
 8002aba:	693a      	ldr	r2, [r7, #16]
 8002abc:	505a      	str	r2, [r3, r1]

        /* Clear Rising Falling edge configuration */
        temp = EXTI->RTSR1;
 8002abe:	4b33      	ldr	r3, [pc, #204]	@ (8002b8c <HAL_GPIO_Init+0x2b8>)
 8002ac0:	681b      	ldr	r3, [r3, #0]
 8002ac2:	613b      	str	r3, [r7, #16]
        temp &= ~(iocurrent);
 8002ac4:	68fb      	ldr	r3, [r7, #12]
 8002ac6:	43da      	mvns	r2, r3
 8002ac8:	693b      	ldr	r3, [r7, #16]
 8002aca:	4013      	ands	r3, r2
 8002acc:	613b      	str	r3, [r7, #16]
        if ((GPIO_Init->Mode & TRIGGER_RISING) != 0x00u)
 8002ace:	683b      	ldr	r3, [r7, #0]
 8002ad0:	685a      	ldr	r2, [r3, #4]
 8002ad2:	2380      	movs	r3, #128	@ 0x80
 8002ad4:	035b      	lsls	r3, r3, #13
 8002ad6:	4013      	ands	r3, r2
 8002ad8:	d003      	beq.n	8002ae2 <HAL_GPIO_Init+0x20e>
        {
          temp |= iocurrent;
 8002ada:	693a      	ldr	r2, [r7, #16]
 8002adc:	68fb      	ldr	r3, [r7, #12]
 8002ade:	4313      	orrs	r3, r2
 8002ae0:	613b      	str	r3, [r7, #16]
        }
        EXTI->RTSR1 = temp;
 8002ae2:	4b2a      	ldr	r3, [pc, #168]	@ (8002b8c <HAL_GPIO_Init+0x2b8>)
 8002ae4:	693a      	ldr	r2, [r7, #16]
 8002ae6:	601a      	str	r2, [r3, #0]

        temp = EXTI->FTSR1;
 8002ae8:	4b28      	ldr	r3, [pc, #160]	@ (8002b8c <HAL_GPIO_Init+0x2b8>)
 8002aea:	685b      	ldr	r3, [r3, #4]
 8002aec:	613b      	str	r3, [r7, #16]
        temp &= ~(iocurrent);
 8002aee:	68fb      	ldr	r3, [r7, #12]
 8002af0:	43da      	mvns	r2, r3
 8002af2:	693b      	ldr	r3, [r7, #16]
 8002af4:	4013      	ands	r3, r2
 8002af6:	613b      	str	r3, [r7, #16]
        if ((GPIO_Init->Mode & TRIGGER_FALLING) != 0x00u)
 8002af8:	683b      	ldr	r3, [r7, #0]
 8002afa:	685a      	ldr	r2, [r3, #4]
 8002afc:	2380      	movs	r3, #128	@ 0x80
 8002afe:	039b      	lsls	r3, r3, #14
 8002b00:	4013      	ands	r3, r2
 8002b02:	d003      	beq.n	8002b0c <HAL_GPIO_Init+0x238>
        {
          temp |= iocurrent;
 8002b04:	693a      	ldr	r2, [r7, #16]
 8002b06:	68fb      	ldr	r3, [r7, #12]
 8002b08:	4313      	orrs	r3, r2
 8002b0a:	613b      	str	r3, [r7, #16]
        }
        EXTI->FTSR1 = temp;
 8002b0c:	4b1f      	ldr	r3, [pc, #124]	@ (8002b8c <HAL_GPIO_Init+0x2b8>)
 8002b0e:	693a      	ldr	r2, [r7, #16]
 8002b10:	605a      	str	r2, [r3, #4]

        /* Clear EXTI line configuration */
        temp = EXTI->EMR1;
 8002b12:	4a1e      	ldr	r2, [pc, #120]	@ (8002b8c <HAL_GPIO_Init+0x2b8>)
 8002b14:	2384      	movs	r3, #132	@ 0x84
 8002b16:	58d3      	ldr	r3, [r2, r3]
 8002b18:	613b      	str	r3, [r7, #16]
        temp &= ~(iocurrent);
 8002b1a:	68fb      	ldr	r3, [r7, #12]
 8002b1c:	43da      	mvns	r2, r3
 8002b1e:	693b      	ldr	r3, [r7, #16]
 8002b20:	4013      	ands	r3, r2
 8002b22:	613b      	str	r3, [r7, #16]
        if ((GPIO_Init->Mode & EXTI_EVT) != 0x00u)
 8002b24:	683b      	ldr	r3, [r7, #0]
 8002b26:	685a      	ldr	r2, [r3, #4]
 8002b28:	2380      	movs	r3, #128	@ 0x80
 8002b2a:	029b      	lsls	r3, r3, #10
 8002b2c:	4013      	ands	r3, r2
 8002b2e:	d003      	beq.n	8002b38 <HAL_GPIO_Init+0x264>
        {
          temp |= iocurrent;
 8002b30:	693a      	ldr	r2, [r7, #16]
 8002b32:	68fb      	ldr	r3, [r7, #12]
 8002b34:	4313      	orrs	r3, r2
 8002b36:	613b      	str	r3, [r7, #16]
        }
        EXTI->EMR1 = temp;
 8002b38:	4914      	ldr	r1, [pc, #80]	@ (8002b8c <HAL_GPIO_Init+0x2b8>)
 8002b3a:	2284      	movs	r2, #132	@ 0x84
 8002b3c:	693b      	ldr	r3, [r7, #16]
 8002b3e:	508b      	str	r3, [r1, r2]

        temp = EXTI->IMR1;
 8002b40:	4a12      	ldr	r2, [pc, #72]	@ (8002b8c <HAL_GPIO_Init+0x2b8>)
 8002b42:	2380      	movs	r3, #128	@ 0x80
 8002b44:	58d3      	ldr	r3, [r2, r3]
 8002b46:	613b      	str	r3, [r7, #16]
        temp &= ~(iocurrent);
 8002b48:	68fb      	ldr	r3, [r7, #12]
 8002b4a:	43da      	mvns	r2, r3
 8002b4c:	693b      	ldr	r3, [r7, #16]
 8002b4e:	4013      	ands	r3, r2
 8002b50:	613b      	str	r3, [r7, #16]
        if ((GPIO_Init->Mode & EXTI_IT) != 0x00u)
 8002b52:	683b      	ldr	r3, [r7, #0]
 8002b54:	685a      	ldr	r2, [r3, #4]
 8002b56:	2380      	movs	r3, #128	@ 0x80
 8002b58:	025b      	lsls	r3, r3, #9
 8002b5a:	4013      	ands	r3, r2
 8002b5c:	d003      	beq.n	8002b66 <HAL_GPIO_Init+0x292>
        {
          temp |= iocurrent;
 8002b5e:	693a      	ldr	r2, [r7, #16]
 8002b60:	68fb      	ldr	r3, [r7, #12]
 8002b62:	4313      	orrs	r3, r2
 8002b64:	613b      	str	r3, [r7, #16]
        }
        EXTI->IMR1 = temp;
 8002b66:	4909      	ldr	r1, [pc, #36]	@ (8002b8c <HAL_GPIO_Init+0x2b8>)
 8002b68:	2280      	movs	r2, #128	@ 0x80
 8002b6a:	693b      	ldr	r3, [r7, #16]
 8002b6c:	508b      	str	r3, [r1, r2]
      }
    }

    position++;
 8002b6e:	697b      	ldr	r3, [r7, #20]
 8002b70:	3301      	adds	r3, #1
 8002b72:	617b      	str	r3, [r7, #20]
  while (((GPIO_Init->Pin) >> position) != 0x00u)
 8002b74:	683b      	ldr	r3, [r7, #0]
 8002b76:	681a      	ldr	r2, [r3, #0]
 8002b78:	697b      	ldr	r3, [r7, #20]
 8002b7a:	40da      	lsrs	r2, r3
 8002b7c:	1e13      	subs	r3, r2, #0
 8002b7e:	d000      	beq.n	8002b82 <HAL_GPIO_Init+0x2ae>
 8002b80:	e6b0      	b.n	80028e4 <HAL_GPIO_Init+0x10>
  }
}
 8002b82:	46c0      	nop			@ (mov r8, r8)
 8002b84:	46c0      	nop			@ (mov r8, r8)
 8002b86:	46bd      	mov	sp, r7
 8002b88:	b006      	add	sp, #24
 8002b8a:	bd80      	pop	{r7, pc}
 8002b8c:	40021800 	.word	0x40021800
 8002b90:	50000400 	.word	0x50000400
 8002b94:	50000800 	.word	0x50000800
 8002b98:	50000c00 	.word	0x50000c00

08002b9c <HAL_GPIO_WritePin>:
  *            @arg GPIO_PIN_RESET: to clear the port pin
  *            @arg GPIO_PIN_SET: to set the port pin
  * @retval None
  */
void HAL_GPIO_WritePin(GPIO_TypeDef *GPIOx, uint16_t GPIO_Pin, GPIO_PinState PinState)
{
 8002b9c:	b580      	push	{r7, lr}
 8002b9e:	b082      	sub	sp, #8
 8002ba0:	af00      	add	r7, sp, #0
 8002ba2:	6078      	str	r0, [r7, #4]
 8002ba4:	0008      	movs	r0, r1
 8002ba6:	0011      	movs	r1, r2
 8002ba8:	1cbb      	adds	r3, r7, #2
 8002baa:	1c02      	adds	r2, r0, #0
 8002bac:	801a      	strh	r2, [r3, #0]
 8002bae:	1c7b      	adds	r3, r7, #1
 8002bb0:	1c0a      	adds	r2, r1, #0
 8002bb2:	701a      	strb	r2, [r3, #0]
  /* Check the parameters */
  assert_param(IS_GPIO_PIN(GPIO_Pin));
  assert_param(IS_GPIO_PIN_ACTION(PinState));

  if (PinState != GPIO_PIN_RESET)
 8002bb4:	1c7b      	adds	r3, r7, #1
 8002bb6:	781b      	ldrb	r3, [r3, #0]
 8002bb8:	2b00      	cmp	r3, #0
 8002bba:	d004      	beq.n	8002bc6 <HAL_GPIO_WritePin+0x2a>
  {
    GPIOx->BSRR = (uint32_t)GPIO_Pin;
 8002bbc:	1cbb      	adds	r3, r7, #2
 8002bbe:	881a      	ldrh	r2, [r3, #0]
 8002bc0:	687b      	ldr	r3, [r7, #4]
 8002bc2:	619a      	str	r2, [r3, #24]
  }
  else
  {
    GPIOx->BRR = (uint32_t)GPIO_Pin;
  }
}
 8002bc4:	e003      	b.n	8002bce <HAL_GPIO_WritePin+0x32>
    GPIOx->BRR = (uint32_t)GPIO_Pin;
 8002bc6:	1cbb      	adds	r3, r7, #2
 8002bc8:	881a      	ldrh	r2, [r3, #0]
 8002bca:	687b      	ldr	r3, [r7, #4]
 8002bcc:	629a      	str	r2, [r3, #40]	@ 0x28
}
 8002bce:	46c0      	nop			@ (mov r8, r8)
 8002bd0:	46bd      	mov	sp, r7
 8002bd2:	b002      	add	sp, #8
 8002bd4:	bd80      	pop	{r7, pc}
	...

08002bd8 <HAL_PWREx_ControlVoltageScaling>:
  *        cleared before returning the status. If the flag is not cleared within
  *        6 microseconds, HAL_TIMEOUT status is reported.
  * @retval HAL Status
  */
HAL_StatusTypeDef HAL_PWREx_ControlVoltageScaling(uint32_t VoltageScaling)
{
 8002bd8:	b580      	push	{r7, lr}
 8002bda:	b084      	sub	sp, #16
 8002bdc:	af00      	add	r7, sp, #0
 8002bde:	6078      	str	r0, [r7, #4]
  uint32_t wait_loop_index;

  assert_param(IS_PWR_VOLTAGE_SCALING_RANGE(VoltageScaling));

  /* Modify voltage scaling range */
  MODIFY_REG(PWR->CR1, PWR_CR1_VOS, VoltageScaling);
 8002be0:	4b19      	ldr	r3, [pc, #100]	@ (8002c48 <HAL_PWREx_ControlVoltageScaling+0x70>)
 8002be2:	681b      	ldr	r3, [r3, #0]
 8002be4:	4a19      	ldr	r2, [pc, #100]	@ (8002c4c <HAL_PWREx_ControlVoltageScaling+0x74>)
 8002be6:	4013      	ands	r3, r2
 8002be8:	0019      	movs	r1, r3
 8002bea:	4b17      	ldr	r3, [pc, #92]	@ (8002c48 <HAL_PWREx_ControlVoltageScaling+0x70>)
 8002bec:	687a      	ldr	r2, [r7, #4]
 8002bee:	430a      	orrs	r2, r1
 8002bf0:	601a      	str	r2, [r3, #0]

  /* In case of Range 1 selected, we need to ensure that main regulator reaches new value */
  if (VoltageScaling == PWR_REGULATOR_VOLTAGE_SCALE1)
 8002bf2:	687a      	ldr	r2, [r7, #4]
 8002bf4:	2380      	movs	r3, #128	@ 0x80
 8002bf6:	009b      	lsls	r3, r3, #2
 8002bf8:	429a      	cmp	r2, r3
 8002bfa:	d11f      	bne.n	8002c3c <HAL_PWREx_ControlVoltageScaling+0x64>
  {
    /* Set timeout value */
    wait_loop_index = ((PWR_VOSF_SETTING_DELAY_6_US * SystemCoreClock) / 1000000U) + 1U;
 8002bfc:	4b14      	ldr	r3, [pc, #80]	@ (8002c50 <HAL_PWREx_ControlVoltageScaling+0x78>)
 8002bfe:	681a      	ldr	r2, [r3, #0]
 8002c00:	0013      	movs	r3, r2
 8002c02:	005b      	lsls	r3, r3, #1
 8002c04:	189b      	adds	r3, r3, r2
 8002c06:	005b      	lsls	r3, r3, #1
 8002c08:	4912      	ldr	r1, [pc, #72]	@ (8002c54 <HAL_PWREx_ControlVoltageScaling+0x7c>)
 8002c0a:	0018      	movs	r0, r3
 8002c0c:	f7fd fa84 	bl	8000118 <__udivsi3>
 8002c10:	0003      	movs	r3, r0
 8002c12:	3301      	adds	r3, #1
 8002c14:	60fb      	str	r3, [r7, #12]

    /* Wait until VOSF is reset */
    while (HAL_IS_BIT_SET(PWR->SR2, PWR_SR2_VOSF))
 8002c16:	e008      	b.n	8002c2a <HAL_PWREx_ControlVoltageScaling+0x52>
    {
      if (wait_loop_index != 0U)
 8002c18:	68fb      	ldr	r3, [r7, #12]
 8002c1a:	2b00      	cmp	r3, #0
 8002c1c:	d003      	beq.n	8002c26 <HAL_PWREx_ControlVoltageScaling+0x4e>
      {
        wait_loop_index--;
 8002c1e:	68fb      	ldr	r3, [r7, #12]
 8002c20:	3b01      	subs	r3, #1
 8002c22:	60fb      	str	r3, [r7, #12]
 8002c24:	e001      	b.n	8002c2a <HAL_PWREx_ControlVoltageScaling+0x52>
      }
      else
      {
        return HAL_TIMEOUT;
 8002c26:	2303      	movs	r3, #3
 8002c28:	e009      	b.n	8002c3e <HAL_PWREx_ControlVoltageScaling+0x66>
    while (HAL_IS_BIT_SET(PWR->SR2, PWR_SR2_VOSF))
 8002c2a:	4b07      	ldr	r3, [pc, #28]	@ (8002c48 <HAL_PWREx_ControlVoltageScaling+0x70>)
 8002c2c:	695a      	ldr	r2, [r3, #20]
 8002c2e:	2380      	movs	r3, #128	@ 0x80
 8002c30:	00db      	lsls	r3, r3, #3
 8002c32:	401a      	ands	r2, r3
 8002c34:	2380      	movs	r3, #128	@ 0x80
 8002c36:	00db      	lsls	r3, r3, #3
 8002c38:	429a      	cmp	r2, r3
 8002c3a:	d0ed      	beq.n	8002c18 <HAL_PWREx_ControlVoltageScaling+0x40>
      }
    }
  }

  return HAL_OK;
 8002c3c:	2300      	movs	r3, #0
}
 8002c3e:	0018      	movs	r0, r3
 8002c40:	46bd      	mov	sp, r7
 8002c42:	b004      	add	sp, #16
 8002c44:	bd80      	pop	{r7, pc}
 8002c46:	46c0      	nop			@ (mov r8, r8)
 8002c48:	40007000 	.word	0x40007000
 8002c4c:	fffff9ff 	.word	0xfffff9ff
 8002c50:	20000000 	.word	0x20000000
 8002c54:	000f4240 	.word	0x000f4240

08002c58 <LL_RCC_GetAPB1Prescaler>:
  *         @arg @ref LL_RCC_APB1_DIV_4
  *         @arg @ref LL_RCC_APB1_DIV_8
  *         @arg @ref LL_RCC_APB1_DIV_16
  */
__STATIC_INLINE uint32_t LL_RCC_GetAPB1Prescaler(void)
{
 8002c58:	b580      	push	{r7, lr}
 8002c5a:	af00      	add	r7, sp, #0
  return (uint32_t)(READ_BIT(RCC->CFGR, RCC_CFGR_PPRE));
 8002c5c:	4b03      	ldr	r3, [pc, #12]	@ (8002c6c <LL_RCC_GetAPB1Prescaler+0x14>)
 8002c5e:	689a      	ldr	r2, [r3, #8]
 8002c60:	23e0      	movs	r3, #224	@ 0xe0
 8002c62:	01db      	lsls	r3, r3, #7
 8002c64:	4013      	ands	r3, r2
}
 8002c66:	0018      	movs	r0, r3
 8002c68:	46bd      	mov	sp, r7
 8002c6a:	bd80      	pop	{r7, pc}
 8002c6c:	40021000 	.word	0x40021000

08002c70 <HAL_RCC_OscConfig>:
  *         supported by this function. User should request a transition to LSE Off
  *         first and then to LSE On or LSE Bypass.
  * @retval HAL status
  */
HAL_StatusTypeDef HAL_RCC_OscConfig(RCC_OscInitTypeDef  *RCC_OscInitStruct)
{
 8002c70:	b580      	push	{r7, lr}
 8002c72:	b088      	sub	sp, #32
 8002c74:	af00      	add	r7, sp, #0
 8002c76:	6078      	str	r0, [r7, #4]
  uint32_t tickstart;
  uint32_t temp_sysclksrc;
  uint32_t temp_pllckcfg;

  /* Check Null pointer */
  if (RCC_OscInitStruct == NULL)
 8002c78:	687b      	ldr	r3, [r7, #4]
 8002c7a:	2b00      	cmp	r3, #0
 8002c7c:	d101      	bne.n	8002c82 <HAL_RCC_OscConfig+0x12>
  {
    return HAL_ERROR;
 8002c7e:	2301      	movs	r3, #1
 8002c80:	e2fe      	b.n	8003280 <HAL_RCC_OscConfig+0x610>

  /* Check the parameters */
  assert_param(IS_RCC_OSCILLATORTYPE(RCC_OscInitStruct->OscillatorType));

  /*------------------------------- HSE Configuration ------------------------*/
  if (((RCC_OscInitStruct->OscillatorType) & RCC_OSCILLATORTYPE_HSE) == RCC_OSCILLATORTYPE_HSE)
 8002c82:	687b      	ldr	r3, [r7, #4]
 8002c84:	681b      	ldr	r3, [r3, #0]
 8002c86:	2201      	movs	r2, #1
 8002c88:	4013      	ands	r3, r2
 8002c8a:	d100      	bne.n	8002c8e <HAL_RCC_OscConfig+0x1e>
 8002c8c:	e07c      	b.n	8002d88 <HAL_RCC_OscConfig+0x118>
  {
    /* Check the parameters */
    assert_param(IS_RCC_HSE(RCC_OscInitStruct->HSEState));

    temp_sysclksrc = __HAL_RCC_GET_SYSCLK_SOURCE();
 8002c8e:	4bc3      	ldr	r3, [pc, #780]	@ (8002f9c <HAL_RCC_OscConfig+0x32c>)
 8002c90:	689b      	ldr	r3, [r3, #8]
 8002c92:	2238      	movs	r2, #56	@ 0x38
 8002c94:	4013      	ands	r3, r2
 8002c96:	61bb      	str	r3, [r7, #24]
    temp_pllckcfg = __HAL_RCC_GET_PLL_OSCSOURCE();
 8002c98:	4bc0      	ldr	r3, [pc, #768]	@ (8002f9c <HAL_RCC_OscConfig+0x32c>)
 8002c9a:	68db      	ldr	r3, [r3, #12]
 8002c9c:	2203      	movs	r2, #3
 8002c9e:	4013      	ands	r3, r2
 8002ca0:	617b      	str	r3, [r7, #20]

    /* When the HSE is used as system clock or clock source for PLL in these cases it is not allowed to be disabled */
    if (((temp_sysclksrc == RCC_SYSCLKSOURCE_STATUS_PLLCLK) && (temp_pllckcfg == RCC_PLLSOURCE_HSE))
 8002ca2:	69bb      	ldr	r3, [r7, #24]
 8002ca4:	2b10      	cmp	r3, #16
 8002ca6:	d102      	bne.n	8002cae <HAL_RCC_OscConfig+0x3e>
 8002ca8:	697b      	ldr	r3, [r7, #20]
 8002caa:	2b03      	cmp	r3, #3
 8002cac:	d002      	beq.n	8002cb4 <HAL_RCC_OscConfig+0x44>
        || (temp_sysclksrc == RCC_SYSCLKSOURCE_STATUS_HSE))
 8002cae:	69bb      	ldr	r3, [r7, #24]
 8002cb0:	2b08      	cmp	r3, #8
 8002cb2:	d10b      	bne.n	8002ccc <HAL_RCC_OscConfig+0x5c>
    {
      if ((READ_BIT(RCC->CR, RCC_CR_HSERDY) != 0U) && (RCC_OscInitStruct->HSEState == RCC_HSE_OFF))
 8002cb4:	4bb9      	ldr	r3, [pc, #740]	@ (8002f9c <HAL_RCC_OscConfig+0x32c>)
 8002cb6:	681a      	ldr	r2, [r3, #0]
 8002cb8:	2380      	movs	r3, #128	@ 0x80
 8002cba:	029b      	lsls	r3, r3, #10
 8002cbc:	4013      	ands	r3, r2
 8002cbe:	d062      	beq.n	8002d86 <HAL_RCC_OscConfig+0x116>
 8002cc0:	687b      	ldr	r3, [r7, #4]
 8002cc2:	685b      	ldr	r3, [r3, #4]
 8002cc4:	2b00      	cmp	r3, #0
 8002cc6:	d15e      	bne.n	8002d86 <HAL_RCC_OscConfig+0x116>
      {
        return HAL_ERROR;
 8002cc8:	2301      	movs	r3, #1
 8002cca:	e2d9      	b.n	8003280 <HAL_RCC_OscConfig+0x610>
      }
    }
    else
    {
      /* Set the new HSE configuration ---------------------------------------*/
      __HAL_RCC_HSE_CONFIG(RCC_OscInitStruct->HSEState);
 8002ccc:	687b      	ldr	r3, [r7, #4]
 8002cce:	685a      	ldr	r2, [r3, #4]
 8002cd0:	2380      	movs	r3, #128	@ 0x80
 8002cd2:	025b      	lsls	r3, r3, #9
 8002cd4:	429a      	cmp	r2, r3
 8002cd6:	d107      	bne.n	8002ce8 <HAL_RCC_OscConfig+0x78>
 8002cd8:	4bb0      	ldr	r3, [pc, #704]	@ (8002f9c <HAL_RCC_OscConfig+0x32c>)
 8002cda:	681a      	ldr	r2, [r3, #0]
 8002cdc:	4baf      	ldr	r3, [pc, #700]	@ (8002f9c <HAL_RCC_OscConfig+0x32c>)
 8002cde:	2180      	movs	r1, #128	@ 0x80
 8002ce0:	0249      	lsls	r1, r1, #9
 8002ce2:	430a      	orrs	r2, r1
 8002ce4:	601a      	str	r2, [r3, #0]
 8002ce6:	e020      	b.n	8002d2a <HAL_RCC_OscConfig+0xba>
 8002ce8:	687b      	ldr	r3, [r7, #4]
 8002cea:	685a      	ldr	r2, [r3, #4]
 8002cec:	23a0      	movs	r3, #160	@ 0xa0
 8002cee:	02db      	lsls	r3, r3, #11
 8002cf0:	429a      	cmp	r2, r3
 8002cf2:	d10e      	bne.n	8002d12 <HAL_RCC_OscConfig+0xa2>
 8002cf4:	4ba9      	ldr	r3, [pc, #676]	@ (8002f9c <HAL_RCC_OscConfig+0x32c>)
 8002cf6:	681a      	ldr	r2, [r3, #0]
 8002cf8:	4ba8      	ldr	r3, [pc, #672]	@ (8002f9c <HAL_RCC_OscConfig+0x32c>)
 8002cfa:	2180      	movs	r1, #128	@ 0x80
 8002cfc:	02c9      	lsls	r1, r1, #11
 8002cfe:	430a      	orrs	r2, r1
 8002d00:	601a      	str	r2, [r3, #0]
 8002d02:	4ba6      	ldr	r3, [pc, #664]	@ (8002f9c <HAL_RCC_OscConfig+0x32c>)
 8002d04:	681a      	ldr	r2, [r3, #0]
 8002d06:	4ba5      	ldr	r3, [pc, #660]	@ (8002f9c <HAL_RCC_OscConfig+0x32c>)
 8002d08:	2180      	movs	r1, #128	@ 0x80
 8002d0a:	0249      	lsls	r1, r1, #9
 8002d0c:	430a      	orrs	r2, r1
 8002d0e:	601a      	str	r2, [r3, #0]
 8002d10:	e00b      	b.n	8002d2a <HAL_RCC_OscConfig+0xba>
 8002d12:	4ba2      	ldr	r3, [pc, #648]	@ (8002f9c <HAL_RCC_OscConfig+0x32c>)
 8002d14:	681a      	ldr	r2, [r3, #0]
 8002d16:	4ba1      	ldr	r3, [pc, #644]	@ (8002f9c <HAL_RCC_OscConfig+0x32c>)
 8002d18:	49a1      	ldr	r1, [pc, #644]	@ (8002fa0 <HAL_RCC_OscConfig+0x330>)
 8002d1a:	400a      	ands	r2, r1
 8002d1c:	601a      	str	r2, [r3, #0]
 8002d1e:	4b9f      	ldr	r3, [pc, #636]	@ (8002f9c <HAL_RCC_OscConfig+0x32c>)
 8002d20:	681a      	ldr	r2, [r3, #0]
 8002d22:	4b9e      	ldr	r3, [pc, #632]	@ (8002f9c <HAL_RCC_OscConfig+0x32c>)
 8002d24:	499f      	ldr	r1, [pc, #636]	@ (8002fa4 <HAL_RCC_OscConfig+0x334>)
 8002d26:	400a      	ands	r2, r1
 8002d28:	601a      	str	r2, [r3, #0]

      /* Check the HSE State */
      if (RCC_OscInitStruct->HSEState != RCC_HSE_OFF)
 8002d2a:	687b      	ldr	r3, [r7, #4]
 8002d2c:	685b      	ldr	r3, [r3, #4]
 8002d2e:	2b00      	cmp	r3, #0
 8002d30:	d014      	beq.n	8002d5c <HAL_RCC_OscConfig+0xec>
      {
        /* Get Start Tick*/
        tickstart = HAL_GetTick();
 8002d32:	f7fe f8cd 	bl	8000ed0 <HAL_GetTick>
 8002d36:	0003      	movs	r3, r0
 8002d38:	613b      	str	r3, [r7, #16]

        /* Wait till HSE is ready */
        while (READ_BIT(RCC->CR, RCC_CR_HSERDY) == 0U)
 8002d3a:	e008      	b.n	8002d4e <HAL_RCC_OscConfig+0xde>
        {
          if ((HAL_GetTick() - tickstart) > HSE_TIMEOUT_VALUE)
 8002d3c:	f7fe f8c8 	bl	8000ed0 <HAL_GetTick>
 8002d40:	0002      	movs	r2, r0
 8002d42:	693b      	ldr	r3, [r7, #16]
 8002d44:	1ad3      	subs	r3, r2, r3
 8002d46:	2b64      	cmp	r3, #100	@ 0x64
 8002d48:	d901      	bls.n	8002d4e <HAL_RCC_OscConfig+0xde>
          {
            return HAL_TIMEOUT;
 8002d4a:	2303      	movs	r3, #3
 8002d4c:	e298      	b.n	8003280 <HAL_RCC_OscConfig+0x610>
        while (READ_BIT(RCC->CR, RCC_CR_HSERDY) == 0U)
 8002d4e:	4b93      	ldr	r3, [pc, #588]	@ (8002f9c <HAL_RCC_OscConfig+0x32c>)
 8002d50:	681a      	ldr	r2, [r3, #0]
 8002d52:	2380      	movs	r3, #128	@ 0x80
 8002d54:	029b      	lsls	r3, r3, #10
 8002d56:	4013      	ands	r3, r2
 8002d58:	d0f0      	beq.n	8002d3c <HAL_RCC_OscConfig+0xcc>
 8002d5a:	e015      	b.n	8002d88 <HAL_RCC_OscConfig+0x118>
        }
      }
      else
      {
        /* Get Start Tick*/
        tickstart = HAL_GetTick();
 8002d5c:	f7fe f8b8 	bl	8000ed0 <HAL_GetTick>
 8002d60:	0003      	movs	r3, r0
 8002d62:	613b      	str	r3, [r7, #16]

        /* Wait till HSE is disabled */
        while (READ_BIT(RCC->CR, RCC_CR_HSERDY) != 0U)
 8002d64:	e008      	b.n	8002d78 <HAL_RCC_OscConfig+0x108>
        {
          if ((HAL_GetTick() - tickstart) > HSE_TIMEOUT_VALUE)
 8002d66:	f7fe f8b3 	bl	8000ed0 <HAL_GetTick>
 8002d6a:	0002      	movs	r2, r0
 8002d6c:	693b      	ldr	r3, [r7, #16]
 8002d6e:	1ad3      	subs	r3, r2, r3
 8002d70:	2b64      	cmp	r3, #100	@ 0x64
 8002d72:	d901      	bls.n	8002d78 <HAL_RCC_OscConfig+0x108>
          {
            return HAL_TIMEOUT;
 8002d74:	2303      	movs	r3, #3
 8002d76:	e283      	b.n	8003280 <HAL_RCC_OscConfig+0x610>
        while (READ_BIT(RCC->CR, RCC_CR_HSERDY) != 0U)
 8002d78:	4b88      	ldr	r3, [pc, #544]	@ (8002f9c <HAL_RCC_OscConfig+0x32c>)
 8002d7a:	681a      	ldr	r2, [r3, #0]
 8002d7c:	2380      	movs	r3, #128	@ 0x80
 8002d7e:	029b      	lsls	r3, r3, #10
 8002d80:	4013      	ands	r3, r2
 8002d82:	d1f0      	bne.n	8002d66 <HAL_RCC_OscConfig+0xf6>
 8002d84:	e000      	b.n	8002d88 <HAL_RCC_OscConfig+0x118>
      if ((READ_BIT(RCC->CR, RCC_CR_HSERDY) != 0U) && (RCC_OscInitStruct->HSEState == RCC_HSE_OFF))
 8002d86:	46c0      	nop			@ (mov r8, r8)
        }
      }
    }
  }
  /*----------------------------- HSI Configuration --------------------------*/
  if (((RCC_OscInitStruct->OscillatorType) & RCC_OSCILLATORTYPE_HSI) == RCC_OSCILLATORTYPE_HSI)
 8002d88:	687b      	ldr	r3, [r7, #4]
 8002d8a:	681b      	ldr	r3, [r3, #0]
 8002d8c:	2202      	movs	r2, #2
 8002d8e:	4013      	ands	r3, r2
 8002d90:	d100      	bne.n	8002d94 <HAL_RCC_OscConfig+0x124>
 8002d92:	e099      	b.n	8002ec8 <HAL_RCC_OscConfig+0x258>
    assert_param(IS_RCC_HSI(RCC_OscInitStruct->HSIState));
    assert_param(IS_RCC_HSI_CALIBRATION_VALUE(RCC_OscInitStruct->HSICalibrationValue));
    assert_param(IS_RCC_HSIDIV(RCC_OscInitStruct->HSIDiv));

    /* Check if HSI16 is used as system clock or as PLL source when PLL is selected as system clock */
    temp_sysclksrc = __HAL_RCC_GET_SYSCLK_SOURCE();
 8002d94:	4b81      	ldr	r3, [pc, #516]	@ (8002f9c <HAL_RCC_OscConfig+0x32c>)
 8002d96:	689b      	ldr	r3, [r3, #8]
 8002d98:	2238      	movs	r2, #56	@ 0x38
 8002d9a:	4013      	ands	r3, r2
 8002d9c:	61bb      	str	r3, [r7, #24]
    temp_pllckcfg = __HAL_RCC_GET_PLL_OSCSOURCE();
 8002d9e:	4b7f      	ldr	r3, [pc, #508]	@ (8002f9c <HAL_RCC_OscConfig+0x32c>)
 8002da0:	68db      	ldr	r3, [r3, #12]
 8002da2:	2203      	movs	r2, #3
 8002da4:	4013      	ands	r3, r2
 8002da6:	617b      	str	r3, [r7, #20]
    if (((temp_sysclksrc == RCC_SYSCLKSOURCE_STATUS_PLLCLK) && (temp_pllckcfg == RCC_PLLSOURCE_HSI))
 8002da8:	69bb      	ldr	r3, [r7, #24]
 8002daa:	2b10      	cmp	r3, #16
 8002dac:	d102      	bne.n	8002db4 <HAL_RCC_OscConfig+0x144>
 8002dae:	697b      	ldr	r3, [r7, #20]
 8002db0:	2b02      	cmp	r3, #2
 8002db2:	d002      	beq.n	8002dba <HAL_RCC_OscConfig+0x14a>
        || (temp_sysclksrc == RCC_SYSCLKSOURCE_STATUS_HSI))
 8002db4:	69bb      	ldr	r3, [r7, #24]
 8002db6:	2b00      	cmp	r3, #0
 8002db8:	d135      	bne.n	8002e26 <HAL_RCC_OscConfig+0x1b6>
    {
      /* When HSI is used as system clock or as PLL input clock it can not be disabled */
      if ((READ_BIT(RCC->CR, RCC_CR_HSIRDY) != 0U) && (RCC_OscInitStruct->HSIState == RCC_HSI_OFF))
 8002dba:	4b78      	ldr	r3, [pc, #480]	@ (8002f9c <HAL_RCC_OscConfig+0x32c>)
 8002dbc:	681a      	ldr	r2, [r3, #0]
 8002dbe:	2380      	movs	r3, #128	@ 0x80
 8002dc0:	00db      	lsls	r3, r3, #3
 8002dc2:	4013      	ands	r3, r2
 8002dc4:	d005      	beq.n	8002dd2 <HAL_RCC_OscConfig+0x162>
 8002dc6:	687b      	ldr	r3, [r7, #4]
 8002dc8:	68db      	ldr	r3, [r3, #12]
 8002dca:	2b00      	cmp	r3, #0
 8002dcc:	d101      	bne.n	8002dd2 <HAL_RCC_OscConfig+0x162>
      {
        return HAL_ERROR;
 8002dce:	2301      	movs	r3, #1
 8002dd0:	e256      	b.n	8003280 <HAL_RCC_OscConfig+0x610>
      }
      /* Otherwise, just the calibration is allowed */
      else
      {
        /* Adjusts the Internal High Speed oscillator (HSI) calibration value.*/
        __HAL_RCC_HSI_CALIBRATIONVALUE_ADJUST(RCC_OscInitStruct->HSICalibrationValue);
 8002dd2:	4b72      	ldr	r3, [pc, #456]	@ (8002f9c <HAL_RCC_OscConfig+0x32c>)
 8002dd4:	685b      	ldr	r3, [r3, #4]
 8002dd6:	4a74      	ldr	r2, [pc, #464]	@ (8002fa8 <HAL_RCC_OscConfig+0x338>)
 8002dd8:	4013      	ands	r3, r2
 8002dda:	0019      	movs	r1, r3
 8002ddc:	687b      	ldr	r3, [r7, #4]
 8002dde:	695b      	ldr	r3, [r3, #20]
 8002de0:	021a      	lsls	r2, r3, #8
 8002de2:	4b6e      	ldr	r3, [pc, #440]	@ (8002f9c <HAL_RCC_OscConfig+0x32c>)
 8002de4:	430a      	orrs	r2, r1
 8002de6:	605a      	str	r2, [r3, #4]

        if (temp_sysclksrc == RCC_SYSCLKSOURCE_STATUS_HSI)
 8002de8:	69bb      	ldr	r3, [r7, #24]
 8002dea:	2b00      	cmp	r3, #0
 8002dec:	d112      	bne.n	8002e14 <HAL_RCC_OscConfig+0x1a4>
        {
          /* Adjust the HSI16 division factor */
          __HAL_RCC_HSI_CONFIG(RCC_OscInitStruct->HSIDiv);
 8002dee:	4b6b      	ldr	r3, [pc, #428]	@ (8002f9c <HAL_RCC_OscConfig+0x32c>)
 8002df0:	681b      	ldr	r3, [r3, #0]
 8002df2:	4a6e      	ldr	r2, [pc, #440]	@ (8002fac <HAL_RCC_OscConfig+0x33c>)
 8002df4:	4013      	ands	r3, r2
 8002df6:	0019      	movs	r1, r3
 8002df8:	687b      	ldr	r3, [r7, #4]
 8002dfa:	691a      	ldr	r2, [r3, #16]
 8002dfc:	4b67      	ldr	r3, [pc, #412]	@ (8002f9c <HAL_RCC_OscConfig+0x32c>)
 8002dfe:	430a      	orrs	r2, r1
 8002e00:	601a      	str	r2, [r3, #0]

          /* Update the SystemCoreClock global variable with HSISYS value  */
          SystemCoreClock = (HSI_VALUE / (1UL << ((READ_BIT(RCC->CR, RCC_CR_HSIDIV)) >> RCC_CR_HSIDIV_Pos)));
 8002e02:	4b66      	ldr	r3, [pc, #408]	@ (8002f9c <HAL_RCC_OscConfig+0x32c>)
 8002e04:	681b      	ldr	r3, [r3, #0]
 8002e06:	0adb      	lsrs	r3, r3, #11
 8002e08:	2207      	movs	r2, #7
 8002e0a:	4013      	ands	r3, r2
 8002e0c:	4a68      	ldr	r2, [pc, #416]	@ (8002fb0 <HAL_RCC_OscConfig+0x340>)
 8002e0e:	40da      	lsrs	r2, r3
 8002e10:	4b68      	ldr	r3, [pc, #416]	@ (8002fb4 <HAL_RCC_OscConfig+0x344>)
 8002e12:	601a      	str	r2, [r3, #0]
        }

        /* Adapt Systick interrupt period */
        if (HAL_InitTick(uwTickPrio) != HAL_OK)
 8002e14:	4b68      	ldr	r3, [pc, #416]	@ (8002fb8 <HAL_RCC_OscConfig+0x348>)
 8002e16:	681b      	ldr	r3, [r3, #0]
 8002e18:	0018      	movs	r0, r3
 8002e1a:	f7fd fffd 	bl	8000e18 <HAL_InitTick>
 8002e1e:	1e03      	subs	r3, r0, #0
 8002e20:	d051      	beq.n	8002ec6 <HAL_RCC_OscConfig+0x256>
        {
          return HAL_ERROR;
 8002e22:	2301      	movs	r3, #1
 8002e24:	e22c      	b.n	8003280 <HAL_RCC_OscConfig+0x610>
      }
    }
    else
    {
      /* Check the HSI State */
      if (RCC_OscInitStruct->HSIState != RCC_HSI_OFF)
 8002e26:	687b      	ldr	r3, [r7, #4]
 8002e28:	68db      	ldr	r3, [r3, #12]
 8002e2a:	2b00      	cmp	r3, #0
 8002e2c:	d030      	beq.n	8002e90 <HAL_RCC_OscConfig+0x220>
      {
        /* Configure the HSI16 division factor */
        __HAL_RCC_HSI_CONFIG(RCC_OscInitStruct->HSIDiv);
 8002e2e:	4b5b      	ldr	r3, [pc, #364]	@ (8002f9c <HAL_RCC_OscConfig+0x32c>)
 8002e30:	681b      	ldr	r3, [r3, #0]
 8002e32:	4a5e      	ldr	r2, [pc, #376]	@ (8002fac <HAL_RCC_OscConfig+0x33c>)
 8002e34:	4013      	ands	r3, r2
 8002e36:	0019      	movs	r1, r3
 8002e38:	687b      	ldr	r3, [r7, #4]
 8002e3a:	691a      	ldr	r2, [r3, #16]
 8002e3c:	4b57      	ldr	r3, [pc, #348]	@ (8002f9c <HAL_RCC_OscConfig+0x32c>)
 8002e3e:	430a      	orrs	r2, r1
 8002e40:	601a      	str	r2, [r3, #0]

        /* Enable the Internal High Speed oscillator (HSI16). */
        __HAL_RCC_HSI_ENABLE();
 8002e42:	4b56      	ldr	r3, [pc, #344]	@ (8002f9c <HAL_RCC_OscConfig+0x32c>)
 8002e44:	681a      	ldr	r2, [r3, #0]
 8002e46:	4b55      	ldr	r3, [pc, #340]	@ (8002f9c <HAL_RCC_OscConfig+0x32c>)
 8002e48:	2180      	movs	r1, #128	@ 0x80
 8002e4a:	0049      	lsls	r1, r1, #1
 8002e4c:	430a      	orrs	r2, r1
 8002e4e:	601a      	str	r2, [r3, #0]

        /* Get Start Tick*/
        tickstart = HAL_GetTick();
 8002e50:	f7fe f83e 	bl	8000ed0 <HAL_GetTick>
 8002e54:	0003      	movs	r3, r0
 8002e56:	613b      	str	r3, [r7, #16]

        /* Wait till HSI is ready */
        while (READ_BIT(RCC->CR, RCC_CR_HSIRDY) == 0U)
 8002e58:	e008      	b.n	8002e6c <HAL_RCC_OscConfig+0x1fc>
        {
          if ((HAL_GetTick() - tickstart) > HSI_TIMEOUT_VALUE)
 8002e5a:	f7fe f839 	bl	8000ed0 <HAL_GetTick>
 8002e5e:	0002      	movs	r2, r0
 8002e60:	693b      	ldr	r3, [r7, #16]
 8002e62:	1ad3      	subs	r3, r2, r3
 8002e64:	2b02      	cmp	r3, #2
 8002e66:	d901      	bls.n	8002e6c <HAL_RCC_OscConfig+0x1fc>
          {
            return HAL_TIMEOUT;
 8002e68:	2303      	movs	r3, #3
 8002e6a:	e209      	b.n	8003280 <HAL_RCC_OscConfig+0x610>
        while (READ_BIT(RCC->CR, RCC_CR_HSIRDY) == 0U)
 8002e6c:	4b4b      	ldr	r3, [pc, #300]	@ (8002f9c <HAL_RCC_OscConfig+0x32c>)
 8002e6e:	681a      	ldr	r2, [r3, #0]
 8002e70:	2380      	movs	r3, #128	@ 0x80
 8002e72:	00db      	lsls	r3, r3, #3
 8002e74:	4013      	ands	r3, r2
 8002e76:	d0f0      	beq.n	8002e5a <HAL_RCC_OscConfig+0x1ea>
          }
        }

        /* Adjusts the Internal High Speed oscillator (HSI) calibration value.*/
        __HAL_RCC_HSI_CALIBRATIONVALUE_ADJUST(RCC_OscInitStruct->HSICalibrationValue);
 8002e78:	4b48      	ldr	r3, [pc, #288]	@ (8002f9c <HAL_RCC_OscConfig+0x32c>)
 8002e7a:	685b      	ldr	r3, [r3, #4]
 8002e7c:	4a4a      	ldr	r2, [pc, #296]	@ (8002fa8 <HAL_RCC_OscConfig+0x338>)
 8002e7e:	4013      	ands	r3, r2
 8002e80:	0019      	movs	r1, r3
 8002e82:	687b      	ldr	r3, [r7, #4]
 8002e84:	695b      	ldr	r3, [r3, #20]
 8002e86:	021a      	lsls	r2, r3, #8
 8002e88:	4b44      	ldr	r3, [pc, #272]	@ (8002f9c <HAL_RCC_OscConfig+0x32c>)
 8002e8a:	430a      	orrs	r2, r1
 8002e8c:	605a      	str	r2, [r3, #4]
 8002e8e:	e01b      	b.n	8002ec8 <HAL_RCC_OscConfig+0x258>
      }
      else
      {
        /* Disable the Internal High Speed oscillator (HSI16). */
        __HAL_RCC_HSI_DISABLE();
 8002e90:	4b42      	ldr	r3, [pc, #264]	@ (8002f9c <HAL_RCC_OscConfig+0x32c>)
 8002e92:	681a      	ldr	r2, [r3, #0]
 8002e94:	4b41      	ldr	r3, [pc, #260]	@ (8002f9c <HAL_RCC_OscConfig+0x32c>)
 8002e96:	4949      	ldr	r1, [pc, #292]	@ (8002fbc <HAL_RCC_OscConfig+0x34c>)
 8002e98:	400a      	ands	r2, r1
 8002e9a:	601a      	str	r2, [r3, #0]

        /* Get Start Tick*/
        tickstart = HAL_GetTick();
 8002e9c:	f7fe f818 	bl	8000ed0 <HAL_GetTick>
 8002ea0:	0003      	movs	r3, r0
 8002ea2:	613b      	str	r3, [r7, #16]

        /* Wait till HSI is disabled */
        while (READ_BIT(RCC->CR, RCC_CR_HSIRDY) != 0U)
 8002ea4:	e008      	b.n	8002eb8 <HAL_RCC_OscConfig+0x248>
        {
          if ((HAL_GetTick() - tickstart) > HSI_TIMEOUT_VALUE)
 8002ea6:	f7fe f813 	bl	8000ed0 <HAL_GetTick>
 8002eaa:	0002      	movs	r2, r0
 8002eac:	693b      	ldr	r3, [r7, #16]
 8002eae:	1ad3      	subs	r3, r2, r3
 8002eb0:	2b02      	cmp	r3, #2
 8002eb2:	d901      	bls.n	8002eb8 <HAL_RCC_OscConfig+0x248>
          {
            return HAL_TIMEOUT;
 8002eb4:	2303      	movs	r3, #3
 8002eb6:	e1e3      	b.n	8003280 <HAL_RCC_OscConfig+0x610>
        while (READ_BIT(RCC->CR, RCC_CR_HSIRDY) != 0U)
 8002eb8:	4b38      	ldr	r3, [pc, #224]	@ (8002f9c <HAL_RCC_OscConfig+0x32c>)
 8002eba:	681a      	ldr	r2, [r3, #0]
 8002ebc:	2380      	movs	r3, #128	@ 0x80
 8002ebe:	00db      	lsls	r3, r3, #3
 8002ec0:	4013      	ands	r3, r2
 8002ec2:	d1f0      	bne.n	8002ea6 <HAL_RCC_OscConfig+0x236>
 8002ec4:	e000      	b.n	8002ec8 <HAL_RCC_OscConfig+0x258>
      if ((READ_BIT(RCC->CR, RCC_CR_HSIRDY) != 0U) && (RCC_OscInitStruct->HSIState == RCC_HSI_OFF))
 8002ec6:	46c0      	nop			@ (mov r8, r8)
        }
      }
    }
  }
  /*------------------------------ LSI Configuration -------------------------*/
  if (((RCC_OscInitStruct->OscillatorType) & RCC_OSCILLATORTYPE_LSI) == RCC_OSCILLATORTYPE_LSI)
 8002ec8:	687b      	ldr	r3, [r7, #4]
 8002eca:	681b      	ldr	r3, [r3, #0]
 8002ecc:	2208      	movs	r2, #8
 8002ece:	4013      	ands	r3, r2
 8002ed0:	d047      	beq.n	8002f62 <HAL_RCC_OscConfig+0x2f2>
  {
    /* Check the parameters */
    assert_param(IS_RCC_LSI(RCC_OscInitStruct->LSIState));

    /* Check if LSI is used as system clock */
    if (__HAL_RCC_GET_SYSCLK_SOURCE() == RCC_SYSCLKSOURCE_STATUS_LSI)
 8002ed2:	4b32      	ldr	r3, [pc, #200]	@ (8002f9c <HAL_RCC_OscConfig+0x32c>)
 8002ed4:	689b      	ldr	r3, [r3, #8]
 8002ed6:	2238      	movs	r2, #56	@ 0x38
 8002ed8:	4013      	ands	r3, r2
 8002eda:	2b18      	cmp	r3, #24
 8002edc:	d10a      	bne.n	8002ef4 <HAL_RCC_OscConfig+0x284>
    {
      /* When LSI is used as system clock it will not be disabled */
      if ((((RCC->CSR) & RCC_CSR_LSIRDY) != 0U) && (RCC_OscInitStruct->LSIState == RCC_LSI_OFF))
 8002ede:	4b2f      	ldr	r3, [pc, #188]	@ (8002f9c <HAL_RCC_OscConfig+0x32c>)
 8002ee0:	6e1b      	ldr	r3, [r3, #96]	@ 0x60
 8002ee2:	2202      	movs	r2, #2
 8002ee4:	4013      	ands	r3, r2
 8002ee6:	d03c      	beq.n	8002f62 <HAL_RCC_OscConfig+0x2f2>
 8002ee8:	687b      	ldr	r3, [r7, #4]
 8002eea:	699b      	ldr	r3, [r3, #24]
 8002eec:	2b00      	cmp	r3, #0
 8002eee:	d138      	bne.n	8002f62 <HAL_RCC_OscConfig+0x2f2>
      {
        return HAL_ERROR;
 8002ef0:	2301      	movs	r3, #1
 8002ef2:	e1c5      	b.n	8003280 <HAL_RCC_OscConfig+0x610>
      }
    }
    else
    {
      /* Check the LSI State */
      if (RCC_OscInitStruct->LSIState != RCC_LSI_OFF)
 8002ef4:	687b      	ldr	r3, [r7, #4]
 8002ef6:	699b      	ldr	r3, [r3, #24]
 8002ef8:	2b00      	cmp	r3, #0
 8002efa:	d019      	beq.n	8002f30 <HAL_RCC_OscConfig+0x2c0>
      {
        /* Enable the Internal Low Speed oscillator (LSI). */
        __HAL_RCC_LSI_ENABLE();
 8002efc:	4b27      	ldr	r3, [pc, #156]	@ (8002f9c <HAL_RCC_OscConfig+0x32c>)
 8002efe:	6e1a      	ldr	r2, [r3, #96]	@ 0x60
 8002f00:	4b26      	ldr	r3, [pc, #152]	@ (8002f9c <HAL_RCC_OscConfig+0x32c>)
 8002f02:	2101      	movs	r1, #1
 8002f04:	430a      	orrs	r2, r1
 8002f06:	661a      	str	r2, [r3, #96]	@ 0x60

        /* Get Start Tick*/
        tickstart = HAL_GetTick();
 8002f08:	f7fd ffe2 	bl	8000ed0 <HAL_GetTick>
 8002f0c:	0003      	movs	r3, r0
 8002f0e:	613b      	str	r3, [r7, #16]

        /* Wait till LSI is ready */
        while (READ_BIT(RCC->CSR, RCC_CSR_LSIRDY) == 0U)
 8002f10:	e008      	b.n	8002f24 <HAL_RCC_OscConfig+0x2b4>
        {
          if ((HAL_GetTick() - tickstart) > LSI_TIMEOUT_VALUE)
 8002f12:	f7fd ffdd 	bl	8000ed0 <HAL_GetTick>
 8002f16:	0002      	movs	r2, r0
 8002f18:	693b      	ldr	r3, [r7, #16]
 8002f1a:	1ad3      	subs	r3, r2, r3
 8002f1c:	2b02      	cmp	r3, #2
 8002f1e:	d901      	bls.n	8002f24 <HAL_RCC_OscConfig+0x2b4>
          {
            return HAL_TIMEOUT;
 8002f20:	2303      	movs	r3, #3
 8002f22:	e1ad      	b.n	8003280 <HAL_RCC_OscConfig+0x610>
        while (READ_BIT(RCC->CSR, RCC_CSR_LSIRDY) == 0U)
 8002f24:	4b1d      	ldr	r3, [pc, #116]	@ (8002f9c <HAL_RCC_OscConfig+0x32c>)
 8002f26:	6e1b      	ldr	r3, [r3, #96]	@ 0x60
 8002f28:	2202      	movs	r2, #2
 8002f2a:	4013      	ands	r3, r2
 8002f2c:	d0f1      	beq.n	8002f12 <HAL_RCC_OscConfig+0x2a2>
 8002f2e:	e018      	b.n	8002f62 <HAL_RCC_OscConfig+0x2f2>
        }
      }
      else
      {
        /* Disable the Internal Low Speed oscillator (LSI). */
        __HAL_RCC_LSI_DISABLE();
 8002f30:	4b1a      	ldr	r3, [pc, #104]	@ (8002f9c <HAL_RCC_OscConfig+0x32c>)
 8002f32:	6e1a      	ldr	r2, [r3, #96]	@ 0x60
 8002f34:	4b19      	ldr	r3, [pc, #100]	@ (8002f9c <HAL_RCC_OscConfig+0x32c>)
 8002f36:	2101      	movs	r1, #1
 8002f38:	438a      	bics	r2, r1
 8002f3a:	661a      	str	r2, [r3, #96]	@ 0x60

        /* Get Start Tick*/
        tickstart = HAL_GetTick();
 8002f3c:	f7fd ffc8 	bl	8000ed0 <HAL_GetTick>
 8002f40:	0003      	movs	r3, r0
 8002f42:	613b      	str	r3, [r7, #16]

        /* Wait till LSI is disabled */
        while (READ_BIT(RCC->CSR, RCC_CSR_LSIRDY) != 0U)
 8002f44:	e008      	b.n	8002f58 <HAL_RCC_OscConfig+0x2e8>
        {
          if ((HAL_GetTick() - tickstart) > LSI_TIMEOUT_VALUE)
 8002f46:	f7fd ffc3 	bl	8000ed0 <HAL_GetTick>
 8002f4a:	0002      	movs	r2, r0
 8002f4c:	693b      	ldr	r3, [r7, #16]
 8002f4e:	1ad3      	subs	r3, r2, r3
 8002f50:	2b02      	cmp	r3, #2
 8002f52:	d901      	bls.n	8002f58 <HAL_RCC_OscConfig+0x2e8>
          {
            return HAL_TIMEOUT;
 8002f54:	2303      	movs	r3, #3
 8002f56:	e193      	b.n	8003280 <HAL_RCC_OscConfig+0x610>
        while (READ_BIT(RCC->CSR, RCC_CSR_LSIRDY) != 0U)
 8002f58:	4b10      	ldr	r3, [pc, #64]	@ (8002f9c <HAL_RCC_OscConfig+0x32c>)
 8002f5a:	6e1b      	ldr	r3, [r3, #96]	@ 0x60
 8002f5c:	2202      	movs	r2, #2
 8002f5e:	4013      	ands	r3, r2
 8002f60:	d1f1      	bne.n	8002f46 <HAL_RCC_OscConfig+0x2d6>
        }
      }
    }
  }
  /*------------------------------ LSE Configuration -------------------------*/
  if (((RCC_OscInitStruct->OscillatorType) & RCC_OSCILLATORTYPE_LSE) == RCC_OSCILLATORTYPE_LSE)
 8002f62:	687b      	ldr	r3, [r7, #4]
 8002f64:	681b      	ldr	r3, [r3, #0]
 8002f66:	2204      	movs	r2, #4
 8002f68:	4013      	ands	r3, r2
 8002f6a:	d100      	bne.n	8002f6e <HAL_RCC_OscConfig+0x2fe>
 8002f6c:	e0c6      	b.n	80030fc <HAL_RCC_OscConfig+0x48c>
  {
    FlagStatus       pwrclkchanged = RESET;
 8002f6e:	231f      	movs	r3, #31
 8002f70:	18fb      	adds	r3, r7, r3
 8002f72:	2200      	movs	r2, #0
 8002f74:	701a      	strb	r2, [r3, #0]

    /* Check the parameters */
    assert_param(IS_RCC_LSE(RCC_OscInitStruct->LSEState));

    /* When the LSE is used as system clock, it is not allowed disable it */
    if (__HAL_RCC_GET_SYSCLK_SOURCE() == RCC_SYSCLKSOURCE_STATUS_LSE)
 8002f76:	4b09      	ldr	r3, [pc, #36]	@ (8002f9c <HAL_RCC_OscConfig+0x32c>)
 8002f78:	689b      	ldr	r3, [r3, #8]
 8002f7a:	2238      	movs	r2, #56	@ 0x38
 8002f7c:	4013      	ands	r3, r2
 8002f7e:	2b20      	cmp	r3, #32
 8002f80:	d11e      	bne.n	8002fc0 <HAL_RCC_OscConfig+0x350>
    {
      if ((((RCC->BDCR) & RCC_BDCR_LSERDY) != 0U) && (RCC_OscInitStruct->LSEState == RCC_LSE_OFF))
 8002f82:	4b06      	ldr	r3, [pc, #24]	@ (8002f9c <HAL_RCC_OscConfig+0x32c>)
 8002f84:	6ddb      	ldr	r3, [r3, #92]	@ 0x5c
 8002f86:	2202      	movs	r2, #2
 8002f88:	4013      	ands	r3, r2
 8002f8a:	d100      	bne.n	8002f8e <HAL_RCC_OscConfig+0x31e>
 8002f8c:	e0b6      	b.n	80030fc <HAL_RCC_OscConfig+0x48c>
 8002f8e:	687b      	ldr	r3, [r7, #4]
 8002f90:	689b      	ldr	r3, [r3, #8]
 8002f92:	2b00      	cmp	r3, #0
 8002f94:	d000      	beq.n	8002f98 <HAL_RCC_OscConfig+0x328>
 8002f96:	e0b1      	b.n	80030fc <HAL_RCC_OscConfig+0x48c>
      {
        return HAL_ERROR;
 8002f98:	2301      	movs	r3, #1
 8002f9a:	e171      	b.n	8003280 <HAL_RCC_OscConfig+0x610>
 8002f9c:	40021000 	.word	0x40021000
 8002fa0:	fffeffff 	.word	0xfffeffff
 8002fa4:	fffbffff 	.word	0xfffbffff
 8002fa8:	ffff80ff 	.word	0xffff80ff
 8002fac:	ffffc7ff 	.word	0xffffc7ff
 8002fb0:	00f42400 	.word	0x00f42400
 8002fb4:	20000000 	.word	0x20000000
 8002fb8:	20000004 	.word	0x20000004
 8002fbc:	fffffeff 	.word	0xfffffeff
    }
    else
    {
      /* Update LSE configuration in Backup Domain control register    */
      /* Requires to enable write access to Backup Domain of necessary */
      if (__HAL_RCC_PWR_IS_CLK_DISABLED() != 0U)
 8002fc0:	4bb1      	ldr	r3, [pc, #708]	@ (8003288 <HAL_RCC_OscConfig+0x618>)
 8002fc2:	6bda      	ldr	r2, [r3, #60]	@ 0x3c
 8002fc4:	2380      	movs	r3, #128	@ 0x80
 8002fc6:	055b      	lsls	r3, r3, #21
 8002fc8:	4013      	ands	r3, r2
 8002fca:	d101      	bne.n	8002fd0 <HAL_RCC_OscConfig+0x360>
 8002fcc:	2301      	movs	r3, #1
 8002fce:	e000      	b.n	8002fd2 <HAL_RCC_OscConfig+0x362>
 8002fd0:	2300      	movs	r3, #0
 8002fd2:	2b00      	cmp	r3, #0
 8002fd4:	d011      	beq.n	8002ffa <HAL_RCC_OscConfig+0x38a>
      {
        __HAL_RCC_PWR_CLK_ENABLE();
 8002fd6:	4bac      	ldr	r3, [pc, #688]	@ (8003288 <HAL_RCC_OscConfig+0x618>)
 8002fd8:	6bda      	ldr	r2, [r3, #60]	@ 0x3c
 8002fda:	4bab      	ldr	r3, [pc, #684]	@ (8003288 <HAL_RCC_OscConfig+0x618>)
 8002fdc:	2180      	movs	r1, #128	@ 0x80
 8002fde:	0549      	lsls	r1, r1, #21
 8002fe0:	430a      	orrs	r2, r1
 8002fe2:	63da      	str	r2, [r3, #60]	@ 0x3c
 8002fe4:	4ba8      	ldr	r3, [pc, #672]	@ (8003288 <HAL_RCC_OscConfig+0x618>)
 8002fe6:	6bda      	ldr	r2, [r3, #60]	@ 0x3c
 8002fe8:	2380      	movs	r3, #128	@ 0x80
 8002fea:	055b      	lsls	r3, r3, #21
 8002fec:	4013      	ands	r3, r2
 8002fee:	60fb      	str	r3, [r7, #12]
 8002ff0:	68fb      	ldr	r3, [r7, #12]
        pwrclkchanged = SET;
 8002ff2:	231f      	movs	r3, #31
 8002ff4:	18fb      	adds	r3, r7, r3
 8002ff6:	2201      	movs	r2, #1
 8002ff8:	701a      	strb	r2, [r3, #0]
      }

      if (HAL_IS_BIT_CLR(PWR->CR1, PWR_CR1_DBP))
 8002ffa:	4ba4      	ldr	r3, [pc, #656]	@ (800328c <HAL_RCC_OscConfig+0x61c>)
 8002ffc:	681a      	ldr	r2, [r3, #0]
 8002ffe:	2380      	movs	r3, #128	@ 0x80
 8003000:	005b      	lsls	r3, r3, #1
 8003002:	4013      	ands	r3, r2
 8003004:	d11a      	bne.n	800303c <HAL_RCC_OscConfig+0x3cc>
      {
        /* Enable write access to Backup domain */
        SET_BIT(PWR->CR1, PWR_CR1_DBP);
 8003006:	4ba1      	ldr	r3, [pc, #644]	@ (800328c <HAL_RCC_OscConfig+0x61c>)
 8003008:	681a      	ldr	r2, [r3, #0]
 800300a:	4ba0      	ldr	r3, [pc, #640]	@ (800328c <HAL_RCC_OscConfig+0x61c>)
 800300c:	2180      	movs	r1, #128	@ 0x80
 800300e:	0049      	lsls	r1, r1, #1
 8003010:	430a      	orrs	r2, r1
 8003012:	601a      	str	r2, [r3, #0]

        /* Wait for Backup domain Write protection disable */
        tickstart = HAL_GetTick();
 8003014:	f7fd ff5c 	bl	8000ed0 <HAL_GetTick>
 8003018:	0003      	movs	r3, r0
 800301a:	613b      	str	r3, [r7, #16]

        while (HAL_IS_BIT_CLR(PWR->CR1, PWR_CR1_DBP))
 800301c:	e008      	b.n	8003030 <HAL_RCC_OscConfig+0x3c0>
        {
          if ((HAL_GetTick() - tickstart) > RCC_DBP_TIMEOUT_VALUE)
 800301e:	f7fd ff57 	bl	8000ed0 <HAL_GetTick>
 8003022:	0002      	movs	r2, r0
 8003024:	693b      	ldr	r3, [r7, #16]
 8003026:	1ad3      	subs	r3, r2, r3
 8003028:	2b02      	cmp	r3, #2
 800302a:	d901      	bls.n	8003030 <HAL_RCC_OscConfig+0x3c0>
          {
            return HAL_TIMEOUT;
 800302c:	2303      	movs	r3, #3
 800302e:	e127      	b.n	8003280 <HAL_RCC_OscConfig+0x610>
        while (HAL_IS_BIT_CLR(PWR->CR1, PWR_CR1_DBP))
 8003030:	4b96      	ldr	r3, [pc, #600]	@ (800328c <HAL_RCC_OscConfig+0x61c>)
 8003032:	681a      	ldr	r2, [r3, #0]
 8003034:	2380      	movs	r3, #128	@ 0x80
 8003036:	005b      	lsls	r3, r3, #1
 8003038:	4013      	ands	r3, r2
 800303a:	d0f0      	beq.n	800301e <HAL_RCC_OscConfig+0x3ae>
          }
        }
      }

      /* Set the new LSE configuration -----------------------------------------*/
      __HAL_RCC_LSE_CONFIG(RCC_OscInitStruct->LSEState);
 800303c:	687b      	ldr	r3, [r7, #4]
 800303e:	689b      	ldr	r3, [r3, #8]
 8003040:	2b01      	cmp	r3, #1
 8003042:	d106      	bne.n	8003052 <HAL_RCC_OscConfig+0x3e2>
 8003044:	4b90      	ldr	r3, [pc, #576]	@ (8003288 <HAL_RCC_OscConfig+0x618>)
 8003046:	6dda      	ldr	r2, [r3, #92]	@ 0x5c
 8003048:	4b8f      	ldr	r3, [pc, #572]	@ (8003288 <HAL_RCC_OscConfig+0x618>)
 800304a:	2101      	movs	r1, #1
 800304c:	430a      	orrs	r2, r1
 800304e:	65da      	str	r2, [r3, #92]	@ 0x5c
 8003050:	e01c      	b.n	800308c <HAL_RCC_OscConfig+0x41c>
 8003052:	687b      	ldr	r3, [r7, #4]
 8003054:	689b      	ldr	r3, [r3, #8]
 8003056:	2b05      	cmp	r3, #5
 8003058:	d10c      	bne.n	8003074 <HAL_RCC_OscConfig+0x404>
 800305a:	4b8b      	ldr	r3, [pc, #556]	@ (8003288 <HAL_RCC_OscConfig+0x618>)
 800305c:	6dda      	ldr	r2, [r3, #92]	@ 0x5c
 800305e:	4b8a      	ldr	r3, [pc, #552]	@ (8003288 <HAL_RCC_OscConfig+0x618>)
 8003060:	2104      	movs	r1, #4
 8003062:	430a      	orrs	r2, r1
 8003064:	65da      	str	r2, [r3, #92]	@ 0x5c
 8003066:	4b88      	ldr	r3, [pc, #544]	@ (8003288 <HAL_RCC_OscConfig+0x618>)
 8003068:	6dda      	ldr	r2, [r3, #92]	@ 0x5c
 800306a:	4b87      	ldr	r3, [pc, #540]	@ (8003288 <HAL_RCC_OscConfig+0x618>)
 800306c:	2101      	movs	r1, #1
 800306e:	430a      	orrs	r2, r1
 8003070:	65da      	str	r2, [r3, #92]	@ 0x5c
 8003072:	e00b      	b.n	800308c <HAL_RCC_OscConfig+0x41c>
 8003074:	4b84      	ldr	r3, [pc, #528]	@ (8003288 <HAL_RCC_OscConfig+0x618>)
 8003076:	6dda      	ldr	r2, [r3, #92]	@ 0x5c
 8003078:	4b83      	ldr	r3, [pc, #524]	@ (8003288 <HAL_RCC_OscConfig+0x618>)
 800307a:	2101      	movs	r1, #1
 800307c:	438a      	bics	r2, r1
 800307e:	65da      	str	r2, [r3, #92]	@ 0x5c
 8003080:	4b81      	ldr	r3, [pc, #516]	@ (8003288 <HAL_RCC_OscConfig+0x618>)
 8003082:	6dda      	ldr	r2, [r3, #92]	@ 0x5c
 8003084:	4b80      	ldr	r3, [pc, #512]	@ (8003288 <HAL_RCC_OscConfig+0x618>)
 8003086:	2104      	movs	r1, #4
 8003088:	438a      	bics	r2, r1
 800308a:	65da      	str	r2, [r3, #92]	@ 0x5c

      /* Check the LSE State */
      if (RCC_OscInitStruct->LSEState != RCC_LSE_OFF)
 800308c:	687b      	ldr	r3, [r7, #4]
 800308e:	689b      	ldr	r3, [r3, #8]
 8003090:	2b00      	cmp	r3, #0
 8003092:	d014      	beq.n	80030be <HAL_RCC_OscConfig+0x44e>
      {
        /* Get Start Tick*/
        tickstart = HAL_GetTick();
 8003094:	f7fd ff1c 	bl	8000ed0 <HAL_GetTick>
 8003098:	0003      	movs	r3, r0
 800309a:	613b      	str	r3, [r7, #16]

        /* Wait till LSE is ready */
        while (READ_BIT(RCC->BDCR, RCC_BDCR_LSERDY) == 0U)
 800309c:	e009      	b.n	80030b2 <HAL_RCC_OscConfig+0x442>
        {
          if ((HAL_GetTick() - tickstart) > RCC_LSE_TIMEOUT_VALUE)
 800309e:	f7fd ff17 	bl	8000ed0 <HAL_GetTick>
 80030a2:	0002      	movs	r2, r0
 80030a4:	693b      	ldr	r3, [r7, #16]
 80030a6:	1ad3      	subs	r3, r2, r3
 80030a8:	4a79      	ldr	r2, [pc, #484]	@ (8003290 <HAL_RCC_OscConfig+0x620>)
 80030aa:	4293      	cmp	r3, r2
 80030ac:	d901      	bls.n	80030b2 <HAL_RCC_OscConfig+0x442>
          {
            return HAL_TIMEOUT;
 80030ae:	2303      	movs	r3, #3
 80030b0:	e0e6      	b.n	8003280 <HAL_RCC_OscConfig+0x610>
        while (READ_BIT(RCC->BDCR, RCC_BDCR_LSERDY) == 0U)
 80030b2:	4b75      	ldr	r3, [pc, #468]	@ (8003288 <HAL_RCC_OscConfig+0x618>)
 80030b4:	6ddb      	ldr	r3, [r3, #92]	@ 0x5c
 80030b6:	2202      	movs	r2, #2
 80030b8:	4013      	ands	r3, r2
 80030ba:	d0f0      	beq.n	800309e <HAL_RCC_OscConfig+0x42e>
 80030bc:	e013      	b.n	80030e6 <HAL_RCC_OscConfig+0x476>
        }
      }
      else
      {
        /* Get Start Tick*/
        tickstart = HAL_GetTick();
 80030be:	f7fd ff07 	bl	8000ed0 <HAL_GetTick>
 80030c2:	0003      	movs	r3, r0
 80030c4:	613b      	str	r3, [r7, #16]

        /* Wait till LSE is disabled */
        while (READ_BIT(RCC->BDCR, RCC_BDCR_LSERDY) != 0U)
 80030c6:	e009      	b.n	80030dc <HAL_RCC_OscConfig+0x46c>
        {
          if ((HAL_GetTick() - tickstart) > RCC_LSE_TIMEOUT_VALUE)
 80030c8:	f7fd ff02 	bl	8000ed0 <HAL_GetTick>
 80030cc:	0002      	movs	r2, r0
 80030ce:	693b      	ldr	r3, [r7, #16]
 80030d0:	1ad3      	subs	r3, r2, r3
 80030d2:	4a6f      	ldr	r2, [pc, #444]	@ (8003290 <HAL_RCC_OscConfig+0x620>)
 80030d4:	4293      	cmp	r3, r2
 80030d6:	d901      	bls.n	80030dc <HAL_RCC_OscConfig+0x46c>
          {
            return HAL_TIMEOUT;
 80030d8:	2303      	movs	r3, #3
 80030da:	e0d1      	b.n	8003280 <HAL_RCC_OscConfig+0x610>
        while (READ_BIT(RCC->BDCR, RCC_BDCR_LSERDY) != 0U)
 80030dc:	4b6a      	ldr	r3, [pc, #424]	@ (8003288 <HAL_RCC_OscConfig+0x618>)
 80030de:	6ddb      	ldr	r3, [r3, #92]	@ 0x5c
 80030e0:	2202      	movs	r2, #2
 80030e2:	4013      	ands	r3, r2
 80030e4:	d1f0      	bne.n	80030c8 <HAL_RCC_OscConfig+0x458>
          }
        }
      }

      /* Restore clock configuration if changed */
      if (pwrclkchanged == SET)
 80030e6:	231f      	movs	r3, #31
 80030e8:	18fb      	adds	r3, r7, r3
 80030ea:	781b      	ldrb	r3, [r3, #0]
 80030ec:	2b01      	cmp	r3, #1
 80030ee:	d105      	bne.n	80030fc <HAL_RCC_OscConfig+0x48c>
      {
        __HAL_RCC_PWR_CLK_DISABLE();
 80030f0:	4b65      	ldr	r3, [pc, #404]	@ (8003288 <HAL_RCC_OscConfig+0x618>)
 80030f2:	6bda      	ldr	r2, [r3, #60]	@ 0x3c
 80030f4:	4b64      	ldr	r3, [pc, #400]	@ (8003288 <HAL_RCC_OscConfig+0x618>)
 80030f6:	4967      	ldr	r1, [pc, #412]	@ (8003294 <HAL_RCC_OscConfig+0x624>)
 80030f8:	400a      	ands	r2, r1
 80030fa:	63da      	str	r2, [r3, #60]	@ 0x3c
#endif /* RCC_HSI48_SUPPORT */
  /*-------------------------------- PLL Configuration -----------------------*/
  /* Check the parameters */
  assert_param(IS_RCC_PLL(RCC_OscInitStruct->PLL.PLLState));

  if (RCC_OscInitStruct->PLL.PLLState != RCC_PLL_NONE)
 80030fc:	687b      	ldr	r3, [r7, #4]
 80030fe:	69db      	ldr	r3, [r3, #28]
 8003100:	2b00      	cmp	r3, #0
 8003102:	d100      	bne.n	8003106 <HAL_RCC_OscConfig+0x496>
 8003104:	e0bb      	b.n	800327e <HAL_RCC_OscConfig+0x60e>
  {
    /* Check if the PLL is used as system clock or not */
    if (__HAL_RCC_GET_SYSCLK_SOURCE() != RCC_SYSCLKSOURCE_STATUS_PLLCLK)
 8003106:	4b60      	ldr	r3, [pc, #384]	@ (8003288 <HAL_RCC_OscConfig+0x618>)
 8003108:	689b      	ldr	r3, [r3, #8]
 800310a:	2238      	movs	r2, #56	@ 0x38
 800310c:	4013      	ands	r3, r2
 800310e:	2b10      	cmp	r3, #16
 8003110:	d100      	bne.n	8003114 <HAL_RCC_OscConfig+0x4a4>
 8003112:	e07b      	b.n	800320c <HAL_RCC_OscConfig+0x59c>
    {
      if (RCC_OscInitStruct->PLL.PLLState == RCC_PLL_ON)
 8003114:	687b      	ldr	r3, [r7, #4]
 8003116:	69db      	ldr	r3, [r3, #28]
 8003118:	2b02      	cmp	r3, #2
 800311a:	d156      	bne.n	80031ca <HAL_RCC_OscConfig+0x55a>
        assert_param(IS_RCC_PLLQ_VALUE(RCC_OscInitStruct->PLL.PLLQ));
#endif /* RCC_PLLQ_SUPPORT */
        assert_param(IS_RCC_PLLR_VALUE(RCC_OscInitStruct->PLL.PLLR));

        /* Disable the main PLL. */
        __HAL_RCC_PLL_DISABLE();
 800311c:	4b5a      	ldr	r3, [pc, #360]	@ (8003288 <HAL_RCC_OscConfig+0x618>)
 800311e:	681a      	ldr	r2, [r3, #0]
 8003120:	4b59      	ldr	r3, [pc, #356]	@ (8003288 <HAL_RCC_OscConfig+0x618>)
 8003122:	495d      	ldr	r1, [pc, #372]	@ (8003298 <HAL_RCC_OscConfig+0x628>)
 8003124:	400a      	ands	r2, r1
 8003126:	601a      	str	r2, [r3, #0]

        /* Get Start Tick*/
        tickstart = HAL_GetTick();
 8003128:	f7fd fed2 	bl	8000ed0 <HAL_GetTick>
 800312c:	0003      	movs	r3, r0
 800312e:	613b      	str	r3, [r7, #16]

        /* Wait till PLL is ready */
        while (READ_BIT(RCC->CR, RCC_CR_PLLRDY) != 0U)
 8003130:	e008      	b.n	8003144 <HAL_RCC_OscConfig+0x4d4>
        {
          if ((HAL_GetTick() - tickstart) > PLL_TIMEOUT_VALUE)
 8003132:	f7fd fecd 	bl	8000ed0 <HAL_GetTick>
 8003136:	0002      	movs	r2, r0
 8003138:	693b      	ldr	r3, [r7, #16]
 800313a:	1ad3      	subs	r3, r2, r3
 800313c:	2b02      	cmp	r3, #2
 800313e:	d901      	bls.n	8003144 <HAL_RCC_OscConfig+0x4d4>
          {
            return HAL_TIMEOUT;
 8003140:	2303      	movs	r3, #3
 8003142:	e09d      	b.n	8003280 <HAL_RCC_OscConfig+0x610>
        while (READ_BIT(RCC->CR, RCC_CR_PLLRDY) != 0U)
 8003144:	4b50      	ldr	r3, [pc, #320]	@ (8003288 <HAL_RCC_OscConfig+0x618>)
 8003146:	681a      	ldr	r2, [r3, #0]
 8003148:	2380      	movs	r3, #128	@ 0x80
 800314a:	049b      	lsls	r3, r3, #18
 800314c:	4013      	ands	r3, r2
 800314e:	d1f0      	bne.n	8003132 <HAL_RCC_OscConfig+0x4c2>
          }
        }

        /* Configure the main PLL clock source, multiplication and division factors. */
#if defined(RCC_PLLQ_SUPPORT)
        __HAL_RCC_PLL_CONFIG(RCC_OscInitStruct->PLL.PLLSource,
 8003150:	4b4d      	ldr	r3, [pc, #308]	@ (8003288 <HAL_RCC_OscConfig+0x618>)
 8003152:	68db      	ldr	r3, [r3, #12]
 8003154:	4a51      	ldr	r2, [pc, #324]	@ (800329c <HAL_RCC_OscConfig+0x62c>)
 8003156:	4013      	ands	r3, r2
 8003158:	0019      	movs	r1, r3
 800315a:	687b      	ldr	r3, [r7, #4]
 800315c:	6a1a      	ldr	r2, [r3, #32]
 800315e:	687b      	ldr	r3, [r7, #4]
 8003160:	6a5b      	ldr	r3, [r3, #36]	@ 0x24
 8003162:	431a      	orrs	r2, r3
 8003164:	687b      	ldr	r3, [r7, #4]
 8003166:	6a9b      	ldr	r3, [r3, #40]	@ 0x28
 8003168:	021b      	lsls	r3, r3, #8
 800316a:	431a      	orrs	r2, r3
 800316c:	687b      	ldr	r3, [r7, #4]
 800316e:	6adb      	ldr	r3, [r3, #44]	@ 0x2c
 8003170:	431a      	orrs	r2, r3
 8003172:	687b      	ldr	r3, [r7, #4]
 8003174:	6b1b      	ldr	r3, [r3, #48]	@ 0x30
 8003176:	431a      	orrs	r2, r3
 8003178:	687b      	ldr	r3, [r7, #4]
 800317a:	6b5b      	ldr	r3, [r3, #52]	@ 0x34
 800317c:	431a      	orrs	r2, r3
 800317e:	4b42      	ldr	r3, [pc, #264]	@ (8003288 <HAL_RCC_OscConfig+0x618>)
 8003180:	430a      	orrs	r2, r1
 8003182:	60da      	str	r2, [r3, #12]
                             RCC_OscInitStruct->PLL.PLLP,
                             RCC_OscInitStruct->PLL.PLLR);
#endif /* RCC_PLLQ_SUPPORT */

        /* Enable the main PLL. */
        __HAL_RCC_PLL_ENABLE();
 8003184:	4b40      	ldr	r3, [pc, #256]	@ (8003288 <HAL_RCC_OscConfig+0x618>)
 8003186:	681a      	ldr	r2, [r3, #0]
 8003188:	4b3f      	ldr	r3, [pc, #252]	@ (8003288 <HAL_RCC_OscConfig+0x618>)
 800318a:	2180      	movs	r1, #128	@ 0x80
 800318c:	0449      	lsls	r1, r1, #17
 800318e:	430a      	orrs	r2, r1
 8003190:	601a      	str	r2, [r3, #0]

        /* Enable PLLR Clock output. */
        __HAL_RCC_PLLCLKOUT_ENABLE(RCC_PLLRCLK);
 8003192:	4b3d      	ldr	r3, [pc, #244]	@ (8003288 <HAL_RCC_OscConfig+0x618>)
 8003194:	68da      	ldr	r2, [r3, #12]
 8003196:	4b3c      	ldr	r3, [pc, #240]	@ (8003288 <HAL_RCC_OscConfig+0x618>)
 8003198:	2180      	movs	r1, #128	@ 0x80
 800319a:	0549      	lsls	r1, r1, #21
 800319c:	430a      	orrs	r2, r1
 800319e:	60da      	str	r2, [r3, #12]

        /* Get Start Tick*/
        tickstart = HAL_GetTick();
 80031a0:	f7fd fe96 	bl	8000ed0 <HAL_GetTick>
 80031a4:	0003      	movs	r3, r0
 80031a6:	613b      	str	r3, [r7, #16]

        /* Wait till PLL is ready */
        while (READ_BIT(RCC->CR, RCC_CR_PLLRDY) == 0U)
 80031a8:	e008      	b.n	80031bc <HAL_RCC_OscConfig+0x54c>
        {
          if ((HAL_GetTick() - tickstart) > PLL_TIMEOUT_VALUE)
 80031aa:	f7fd fe91 	bl	8000ed0 <HAL_GetTick>
 80031ae:	0002      	movs	r2, r0
 80031b0:	693b      	ldr	r3, [r7, #16]
 80031b2:	1ad3      	subs	r3, r2, r3
 80031b4:	2b02      	cmp	r3, #2
 80031b6:	d901      	bls.n	80031bc <HAL_RCC_OscConfig+0x54c>
          {
            return HAL_TIMEOUT;
 80031b8:	2303      	movs	r3, #3
 80031ba:	e061      	b.n	8003280 <HAL_RCC_OscConfig+0x610>
        while (READ_BIT(RCC->CR, RCC_CR_PLLRDY) == 0U)
 80031bc:	4b32      	ldr	r3, [pc, #200]	@ (8003288 <HAL_RCC_OscConfig+0x618>)
 80031be:	681a      	ldr	r2, [r3, #0]
 80031c0:	2380      	movs	r3, #128	@ 0x80
 80031c2:	049b      	lsls	r3, r3, #18
 80031c4:	4013      	ands	r3, r2
 80031c6:	d0f0      	beq.n	80031aa <HAL_RCC_OscConfig+0x53a>
 80031c8:	e059      	b.n	800327e <HAL_RCC_OscConfig+0x60e>
        }
      }
      else
      {
        /* Disable the main PLL. */
        __HAL_RCC_PLL_DISABLE();
 80031ca:	4b2f      	ldr	r3, [pc, #188]	@ (8003288 <HAL_RCC_OscConfig+0x618>)
 80031cc:	681a      	ldr	r2, [r3, #0]
 80031ce:	4b2e      	ldr	r3, [pc, #184]	@ (8003288 <HAL_RCC_OscConfig+0x618>)
 80031d0:	4931      	ldr	r1, [pc, #196]	@ (8003298 <HAL_RCC_OscConfig+0x628>)
 80031d2:	400a      	ands	r2, r1
 80031d4:	601a      	str	r2, [r3, #0]

        /* Get Start Tick*/
        tickstart = HAL_GetTick();
 80031d6:	f7fd fe7b 	bl	8000ed0 <HAL_GetTick>
 80031da:	0003      	movs	r3, r0
 80031dc:	613b      	str	r3, [r7, #16]

        /* Wait till PLL is disabled */
        while (READ_BIT(RCC->CR, RCC_CR_PLLRDY) != 0U)
 80031de:	e008      	b.n	80031f2 <HAL_RCC_OscConfig+0x582>
        {
          if ((HAL_GetTick() - tickstart) > PLL_TIMEOUT_VALUE)
 80031e0:	f7fd fe76 	bl	8000ed0 <HAL_GetTick>
 80031e4:	0002      	movs	r2, r0
 80031e6:	693b      	ldr	r3, [r7, #16]
 80031e8:	1ad3      	subs	r3, r2, r3
 80031ea:	2b02      	cmp	r3, #2
 80031ec:	d901      	bls.n	80031f2 <HAL_RCC_OscConfig+0x582>
          {
            return HAL_TIMEOUT;
 80031ee:	2303      	movs	r3, #3
 80031f0:	e046      	b.n	8003280 <HAL_RCC_OscConfig+0x610>
        while (READ_BIT(RCC->CR, RCC_CR_PLLRDY) != 0U)
 80031f2:	4b25      	ldr	r3, [pc, #148]	@ (8003288 <HAL_RCC_OscConfig+0x618>)
 80031f4:	681a      	ldr	r2, [r3, #0]
 80031f6:	2380      	movs	r3, #128	@ 0x80
 80031f8:	049b      	lsls	r3, r3, #18
 80031fa:	4013      	ands	r3, r2
 80031fc:	d1f0      	bne.n	80031e0 <HAL_RCC_OscConfig+0x570>
          }
        }
        /* Unselect main PLL clock source and disable main PLL outputs to save power */
#if defined(RCC_PLLQ_SUPPORT)
        RCC->PLLCFGR &= ~(RCC_PLLCFGR_PLLSRC | RCC_PLLCFGR_PLLPEN | RCC_PLLCFGR_PLLQEN | RCC_PLLCFGR_PLLREN);
 80031fe:	4b22      	ldr	r3, [pc, #136]	@ (8003288 <HAL_RCC_OscConfig+0x618>)
 8003200:	68da      	ldr	r2, [r3, #12]
 8003202:	4b21      	ldr	r3, [pc, #132]	@ (8003288 <HAL_RCC_OscConfig+0x618>)
 8003204:	4926      	ldr	r1, [pc, #152]	@ (80032a0 <HAL_RCC_OscConfig+0x630>)
 8003206:	400a      	ands	r2, r1
 8003208:	60da      	str	r2, [r3, #12]
 800320a:	e038      	b.n	800327e <HAL_RCC_OscConfig+0x60e>
      }
    }
    else
    {
      /* Check if there is a request to disable the PLL used as System clock source */
      if ((RCC_OscInitStruct->PLL.PLLState) == RCC_PLL_OFF)
 800320c:	687b      	ldr	r3, [r7, #4]
 800320e:	69db      	ldr	r3, [r3, #28]
 8003210:	2b01      	cmp	r3, #1
 8003212:	d101      	bne.n	8003218 <HAL_RCC_OscConfig+0x5a8>
      {
        return HAL_ERROR;
 8003214:	2301      	movs	r3, #1
 8003216:	e033      	b.n	8003280 <HAL_RCC_OscConfig+0x610>
      }
      else
      {
        /* Do not return HAL_ERROR if request repeats the current configuration */
        temp_pllckcfg = RCC->PLLCFGR;
 8003218:	4b1b      	ldr	r3, [pc, #108]	@ (8003288 <HAL_RCC_OscConfig+0x618>)
 800321a:	68db      	ldr	r3, [r3, #12]
 800321c:	617b      	str	r3, [r7, #20]
        if ((READ_BIT(temp_pllckcfg, RCC_PLLCFGR_PLLSRC) != RCC_OscInitStruct->PLL.PLLSource) ||
 800321e:	697b      	ldr	r3, [r7, #20]
 8003220:	2203      	movs	r2, #3
 8003222:	401a      	ands	r2, r3
 8003224:	687b      	ldr	r3, [r7, #4]
 8003226:	6a1b      	ldr	r3, [r3, #32]
 8003228:	429a      	cmp	r2, r3
 800322a:	d126      	bne.n	800327a <HAL_RCC_OscConfig+0x60a>
            (READ_BIT(temp_pllckcfg, RCC_PLLCFGR_PLLM) != RCC_OscInitStruct->PLL.PLLM) ||
 800322c:	697b      	ldr	r3, [r7, #20]
 800322e:	2270      	movs	r2, #112	@ 0x70
 8003230:	401a      	ands	r2, r3
 8003232:	687b      	ldr	r3, [r7, #4]
 8003234:	6a5b      	ldr	r3, [r3, #36]	@ 0x24
        if ((READ_BIT(temp_pllckcfg, RCC_PLLCFGR_PLLSRC) != RCC_OscInitStruct->PLL.PLLSource) ||
 8003236:	429a      	cmp	r2, r3
 8003238:	d11f      	bne.n	800327a <HAL_RCC_OscConfig+0x60a>
            (READ_BIT(temp_pllckcfg, RCC_PLLCFGR_PLLN) != (RCC_OscInitStruct->PLL.PLLN << RCC_PLLCFGR_PLLN_Pos)) ||
 800323a:	697a      	ldr	r2, [r7, #20]
 800323c:	23fe      	movs	r3, #254	@ 0xfe
 800323e:	01db      	lsls	r3, r3, #7
 8003240:	401a      	ands	r2, r3
 8003242:	687b      	ldr	r3, [r7, #4]
 8003244:	6a9b      	ldr	r3, [r3, #40]	@ 0x28
 8003246:	021b      	lsls	r3, r3, #8
            (READ_BIT(temp_pllckcfg, RCC_PLLCFGR_PLLM) != RCC_OscInitStruct->PLL.PLLM) ||
 8003248:	429a      	cmp	r2, r3
 800324a:	d116      	bne.n	800327a <HAL_RCC_OscConfig+0x60a>
            (READ_BIT(temp_pllckcfg, RCC_PLLCFGR_PLLP) != RCC_OscInitStruct->PLL.PLLP) ||
 800324c:	697a      	ldr	r2, [r7, #20]
 800324e:	23f8      	movs	r3, #248	@ 0xf8
 8003250:	039b      	lsls	r3, r3, #14
 8003252:	401a      	ands	r2, r3
 8003254:	687b      	ldr	r3, [r7, #4]
 8003256:	6adb      	ldr	r3, [r3, #44]	@ 0x2c
            (READ_BIT(temp_pllckcfg, RCC_PLLCFGR_PLLN) != (RCC_OscInitStruct->PLL.PLLN << RCC_PLLCFGR_PLLN_Pos)) ||
 8003258:	429a      	cmp	r2, r3
 800325a:	d10e      	bne.n	800327a <HAL_RCC_OscConfig+0x60a>
#if defined (RCC_PLLQ_SUPPORT)
            (READ_BIT(temp_pllckcfg, RCC_PLLCFGR_PLLQ) != RCC_OscInitStruct->PLL.PLLQ) ||
 800325c:	697a      	ldr	r2, [r7, #20]
 800325e:	23e0      	movs	r3, #224	@ 0xe0
 8003260:	051b      	lsls	r3, r3, #20
 8003262:	401a      	ands	r2, r3
 8003264:	687b      	ldr	r3, [r7, #4]
 8003266:	6b1b      	ldr	r3, [r3, #48]	@ 0x30
            (READ_BIT(temp_pllckcfg, RCC_PLLCFGR_PLLP) != RCC_OscInitStruct->PLL.PLLP) ||
 8003268:	429a      	cmp	r2, r3
 800326a:	d106      	bne.n	800327a <HAL_RCC_OscConfig+0x60a>
#endif /* RCC_PLLQ_SUPPORT */
            (READ_BIT(temp_pllckcfg, RCC_PLLCFGR_PLLR) != RCC_OscInitStruct->PLL.PLLR))
 800326c:	697b      	ldr	r3, [r7, #20]
 800326e:	0f5b      	lsrs	r3, r3, #29
 8003270:	075a      	lsls	r2, r3, #29
 8003272:	687b      	ldr	r3, [r7, #4]
 8003274:	6b5b      	ldr	r3, [r3, #52]	@ 0x34
            (READ_BIT(temp_pllckcfg, RCC_PLLCFGR_PLLQ) != RCC_OscInitStruct->PLL.PLLQ) ||
 8003276:	429a      	cmp	r2, r3
 8003278:	d001      	beq.n	800327e <HAL_RCC_OscConfig+0x60e>
        {
          return HAL_ERROR;
 800327a:	2301      	movs	r3, #1
 800327c:	e000      	b.n	8003280 <HAL_RCC_OscConfig+0x610>
        }
      }
    }
  }
  return HAL_OK;
 800327e:	2300      	movs	r3, #0
}
 8003280:	0018      	movs	r0, r3
 8003282:	46bd      	mov	sp, r7
 8003284:	b008      	add	sp, #32
 8003286:	bd80      	pop	{r7, pc}
 8003288:	40021000 	.word	0x40021000
 800328c:	40007000 	.word	0x40007000
 8003290:	00001388 	.word	0x00001388
 8003294:	efffffff 	.word	0xefffffff
 8003298:	feffffff 	.word	0xfeffffff
 800329c:	11c1808c 	.word	0x11c1808c
 80032a0:	eefefffc 	.word	0xeefefffc

080032a4 <HAL_RCC_ClockConfig>:
  *         HPRE[3:0] bits to ensure that HCLK not exceed the maximum allowed frequency
  *         (for more details refer to section above "Initialization/de-initialization functions")
  * @retval None
  */
HAL_StatusTypeDef HAL_RCC_ClockConfig(RCC_ClkInitTypeDef  *RCC_ClkInitStruct, uint32_t FLatency)
{
 80032a4:	b580      	push	{r7, lr}
 80032a6:	b084      	sub	sp, #16
 80032a8:	af00      	add	r7, sp, #0
 80032aa:	6078      	str	r0, [r7, #4]
 80032ac:	6039      	str	r1, [r7, #0]
  uint32_t tickstart;

  /* Check Null pointer */
  if (RCC_ClkInitStruct == NULL)
 80032ae:	687b      	ldr	r3, [r7, #4]
 80032b0:	2b00      	cmp	r3, #0
 80032b2:	d101      	bne.n	80032b8 <HAL_RCC_ClockConfig+0x14>
  {
    return HAL_ERROR;
 80032b4:	2301      	movs	r3, #1
 80032b6:	e0e9      	b.n	800348c <HAL_RCC_ClockConfig+0x1e8>
  /* To correctly read data from FLASH memory, the number of wait states (LATENCY)
    must be correctly programmed according to the frequency of the FLASH clock
    (HCLK) and the supply voltage of the device. */

  /* Increasing the number of wait states because of higher CPU frequency */
  if (FLatency > __HAL_FLASH_GET_LATENCY())
 80032b8:	4b76      	ldr	r3, [pc, #472]	@ (8003494 <HAL_RCC_ClockConfig+0x1f0>)
 80032ba:	681b      	ldr	r3, [r3, #0]
 80032bc:	2207      	movs	r2, #7
 80032be:	4013      	ands	r3, r2
 80032c0:	683a      	ldr	r2, [r7, #0]
 80032c2:	429a      	cmp	r2, r3
 80032c4:	d91e      	bls.n	8003304 <HAL_RCC_ClockConfig+0x60>
  {
    /* Program the new number of wait states to the LATENCY bits in the FLASH_ACR register */
    __HAL_FLASH_SET_LATENCY(FLatency);
 80032c6:	4b73      	ldr	r3, [pc, #460]	@ (8003494 <HAL_RCC_ClockConfig+0x1f0>)
 80032c8:	681b      	ldr	r3, [r3, #0]
 80032ca:	2207      	movs	r2, #7
 80032cc:	4393      	bics	r3, r2
 80032ce:	0019      	movs	r1, r3
 80032d0:	4b70      	ldr	r3, [pc, #448]	@ (8003494 <HAL_RCC_ClockConfig+0x1f0>)
 80032d2:	683a      	ldr	r2, [r7, #0]
 80032d4:	430a      	orrs	r2, r1
 80032d6:	601a      	str	r2, [r3, #0]

    /* Check that the new number of wait states is taken into account to access the Flash
    memory by polling the FLASH_ACR register */
    tickstart = HAL_GetTick();
 80032d8:	f7fd fdfa 	bl	8000ed0 <HAL_GetTick>
 80032dc:	0003      	movs	r3, r0
 80032de:	60fb      	str	r3, [r7, #12]

    while ((FLASH->ACR & FLASH_ACR_LATENCY) != FLatency)
 80032e0:	e009      	b.n	80032f6 <HAL_RCC_ClockConfig+0x52>
    {
      if ((HAL_GetTick() - tickstart) > CLOCKSWITCH_TIMEOUT_VALUE)
 80032e2:	f7fd fdf5 	bl	8000ed0 <HAL_GetTick>
 80032e6:	0002      	movs	r2, r0
 80032e8:	68fb      	ldr	r3, [r7, #12]
 80032ea:	1ad3      	subs	r3, r2, r3
 80032ec:	4a6a      	ldr	r2, [pc, #424]	@ (8003498 <HAL_RCC_ClockConfig+0x1f4>)
 80032ee:	4293      	cmp	r3, r2
 80032f0:	d901      	bls.n	80032f6 <HAL_RCC_ClockConfig+0x52>
      {
        return HAL_TIMEOUT;
 80032f2:	2303      	movs	r3, #3
 80032f4:	e0ca      	b.n	800348c <HAL_RCC_ClockConfig+0x1e8>
    while ((FLASH->ACR & FLASH_ACR_LATENCY) != FLatency)
 80032f6:	4b67      	ldr	r3, [pc, #412]	@ (8003494 <HAL_RCC_ClockConfig+0x1f0>)
 80032f8:	681b      	ldr	r3, [r3, #0]
 80032fa:	2207      	movs	r2, #7
 80032fc:	4013      	ands	r3, r2
 80032fe:	683a      	ldr	r2, [r7, #0]
 8003300:	429a      	cmp	r2, r3
 8003302:	d1ee      	bne.n	80032e2 <HAL_RCC_ClockConfig+0x3e>
      }
    }
  }

  /*-------------------------- HCLK Configuration --------------------------*/
  if (((RCC_ClkInitStruct->ClockType) & RCC_CLOCKTYPE_HCLK) == RCC_CLOCKTYPE_HCLK)
 8003304:	687b      	ldr	r3, [r7, #4]
 8003306:	681b      	ldr	r3, [r3, #0]
 8003308:	2202      	movs	r2, #2
 800330a:	4013      	ands	r3, r2
 800330c:	d015      	beq.n	800333a <HAL_RCC_ClockConfig+0x96>
  {
    /* Set the highest APB divider in order to ensure that we do not go through
       a non-spec phase whatever we decrease or increase HCLK. */
    if (((RCC_ClkInitStruct->ClockType) & RCC_CLOCKTYPE_PCLK1) == RCC_CLOCKTYPE_PCLK1)
 800330e:	687b      	ldr	r3, [r7, #4]
 8003310:	681b      	ldr	r3, [r3, #0]
 8003312:	2204      	movs	r2, #4
 8003314:	4013      	ands	r3, r2
 8003316:	d006      	beq.n	8003326 <HAL_RCC_ClockConfig+0x82>
    {
      MODIFY_REG(RCC->CFGR, RCC_CFGR_PPRE, RCC_HCLK_DIV16);
 8003318:	4b60      	ldr	r3, [pc, #384]	@ (800349c <HAL_RCC_ClockConfig+0x1f8>)
 800331a:	689a      	ldr	r2, [r3, #8]
 800331c:	4b5f      	ldr	r3, [pc, #380]	@ (800349c <HAL_RCC_ClockConfig+0x1f8>)
 800331e:	21e0      	movs	r1, #224	@ 0xe0
 8003320:	01c9      	lsls	r1, r1, #7
 8003322:	430a      	orrs	r2, r1
 8003324:	609a      	str	r2, [r3, #8]
    }

    /* Set the new HCLK clock divider */
    assert_param(IS_RCC_HCLK(RCC_ClkInitStruct->AHBCLKDivider));
    MODIFY_REG(RCC->CFGR, RCC_CFGR_HPRE, RCC_ClkInitStruct->AHBCLKDivider);
 8003326:	4b5d      	ldr	r3, [pc, #372]	@ (800349c <HAL_RCC_ClockConfig+0x1f8>)
 8003328:	689b      	ldr	r3, [r3, #8]
 800332a:	4a5d      	ldr	r2, [pc, #372]	@ (80034a0 <HAL_RCC_ClockConfig+0x1fc>)
 800332c:	4013      	ands	r3, r2
 800332e:	0019      	movs	r1, r3
 8003330:	687b      	ldr	r3, [r7, #4]
 8003332:	689a      	ldr	r2, [r3, #8]
 8003334:	4b59      	ldr	r3, [pc, #356]	@ (800349c <HAL_RCC_ClockConfig+0x1f8>)
 8003336:	430a      	orrs	r2, r1
 8003338:	609a      	str	r2, [r3, #8]
  }

  /*------------------------- SYSCLK Configuration ---------------------------*/
  if (((RCC_ClkInitStruct->ClockType) & RCC_CLOCKTYPE_SYSCLK) == RCC_CLOCKTYPE_SYSCLK)
 800333a:	687b      	ldr	r3, [r7, #4]
 800333c:	681b      	ldr	r3, [r3, #0]
 800333e:	2201      	movs	r2, #1
 8003340:	4013      	ands	r3, r2
 8003342:	d057      	beq.n	80033f4 <HAL_RCC_ClockConfig+0x150>
  {
    assert_param(IS_RCC_SYSCLKSOURCE(RCC_ClkInitStruct->SYSCLKSource));

    /* HSE is selected as System Clock Source */
    if (RCC_ClkInitStruct->SYSCLKSource == RCC_SYSCLKSOURCE_HSE)
 8003344:	687b      	ldr	r3, [r7, #4]
 8003346:	685b      	ldr	r3, [r3, #4]
 8003348:	2b01      	cmp	r3, #1
 800334a:	d107      	bne.n	800335c <HAL_RCC_ClockConfig+0xb8>
    {
      /* Check the HSE ready flag */
      if (READ_BIT(RCC->CR, RCC_CR_HSERDY) == 0U)
 800334c:	4b53      	ldr	r3, [pc, #332]	@ (800349c <HAL_RCC_ClockConfig+0x1f8>)
 800334e:	681a      	ldr	r2, [r3, #0]
 8003350:	2380      	movs	r3, #128	@ 0x80
 8003352:	029b      	lsls	r3, r3, #10
 8003354:	4013      	ands	r3, r2
 8003356:	d12b      	bne.n	80033b0 <HAL_RCC_ClockConfig+0x10c>
      {
        return HAL_ERROR;
 8003358:	2301      	movs	r3, #1
 800335a:	e097      	b.n	800348c <HAL_RCC_ClockConfig+0x1e8>
      }
    }
    /* PLL is selected as System Clock Source */
    else if (RCC_ClkInitStruct->SYSCLKSource == RCC_SYSCLKSOURCE_PLLCLK)
 800335c:	687b      	ldr	r3, [r7, #4]
 800335e:	685b      	ldr	r3, [r3, #4]
 8003360:	2b02      	cmp	r3, #2
 8003362:	d107      	bne.n	8003374 <HAL_RCC_ClockConfig+0xd0>
    {
      /* Check the PLL ready flag */
      if (READ_BIT(RCC->CR, RCC_CR_PLLRDY) == 0U)
 8003364:	4b4d      	ldr	r3, [pc, #308]	@ (800349c <HAL_RCC_ClockConfig+0x1f8>)
 8003366:	681a      	ldr	r2, [r3, #0]
 8003368:	2380      	movs	r3, #128	@ 0x80
 800336a:	049b      	lsls	r3, r3, #18
 800336c:	4013      	ands	r3, r2
 800336e:	d11f      	bne.n	80033b0 <HAL_RCC_ClockConfig+0x10c>
      {
        return HAL_ERROR;
 8003370:	2301      	movs	r3, #1
 8003372:	e08b      	b.n	800348c <HAL_RCC_ClockConfig+0x1e8>
      }
    }
    /* HSI is selected as System Clock Source */
    else if (RCC_ClkInitStruct->SYSCLKSource == RCC_SYSCLKSOURCE_HSI)
 8003374:	687b      	ldr	r3, [r7, #4]
 8003376:	685b      	ldr	r3, [r3, #4]
 8003378:	2b00      	cmp	r3, #0
 800337a:	d107      	bne.n	800338c <HAL_RCC_ClockConfig+0xe8>
    {
      /* Check the HSI ready flag */
      if (READ_BIT(RCC->CR, RCC_CR_HSIRDY) == 0U)
 800337c:	4b47      	ldr	r3, [pc, #284]	@ (800349c <HAL_RCC_ClockConfig+0x1f8>)
 800337e:	681a      	ldr	r2, [r3, #0]
 8003380:	2380      	movs	r3, #128	@ 0x80
 8003382:	00db      	lsls	r3, r3, #3
 8003384:	4013      	ands	r3, r2
 8003386:	d113      	bne.n	80033b0 <HAL_RCC_ClockConfig+0x10c>
      {
        return HAL_ERROR;
 8003388:	2301      	movs	r3, #1
 800338a:	e07f      	b.n	800348c <HAL_RCC_ClockConfig+0x1e8>
      }
    }
    /* LSI is selected as System Clock Source */
    else if (RCC_ClkInitStruct->SYSCLKSource == RCC_SYSCLKSOURCE_LSI)
 800338c:	687b      	ldr	r3, [r7, #4]
 800338e:	685b      	ldr	r3, [r3, #4]
 8003390:	2b03      	cmp	r3, #3
 8003392:	d106      	bne.n	80033a2 <HAL_RCC_ClockConfig+0xfe>
    {
      /* Check the LSI ready flag */
      if (READ_BIT(RCC->CSR, RCC_CSR_LSIRDY) == 0U)
 8003394:	4b41      	ldr	r3, [pc, #260]	@ (800349c <HAL_RCC_ClockConfig+0x1f8>)
 8003396:	6e1b      	ldr	r3, [r3, #96]	@ 0x60
 8003398:	2202      	movs	r2, #2
 800339a:	4013      	ands	r3, r2
 800339c:	d108      	bne.n	80033b0 <HAL_RCC_ClockConfig+0x10c>
      {
        return HAL_ERROR;
 800339e:	2301      	movs	r3, #1
 80033a0:	e074      	b.n	800348c <HAL_RCC_ClockConfig+0x1e8>
    }
    /* LSE is selected as System Clock Source */
    else
    {
      /* Check the LSE ready flag */
      if (READ_BIT(RCC->BDCR, RCC_BDCR_LSERDY) == 0U)
 80033a2:	4b3e      	ldr	r3, [pc, #248]	@ (800349c <HAL_RCC_ClockConfig+0x1f8>)
 80033a4:	6ddb      	ldr	r3, [r3, #92]	@ 0x5c
 80033a6:	2202      	movs	r2, #2
 80033a8:	4013      	ands	r3, r2
 80033aa:	d101      	bne.n	80033b0 <HAL_RCC_ClockConfig+0x10c>
      {
        return HAL_ERROR;
 80033ac:	2301      	movs	r3, #1
 80033ae:	e06d      	b.n	800348c <HAL_RCC_ClockConfig+0x1e8>
      }
    }
    MODIFY_REG(RCC->CFGR, RCC_CFGR_SW, RCC_ClkInitStruct->SYSCLKSource);
 80033b0:	4b3a      	ldr	r3, [pc, #232]	@ (800349c <HAL_RCC_ClockConfig+0x1f8>)
 80033b2:	689b      	ldr	r3, [r3, #8]
 80033b4:	2207      	movs	r2, #7
 80033b6:	4393      	bics	r3, r2
 80033b8:	0019      	movs	r1, r3
 80033ba:	687b      	ldr	r3, [r7, #4]
 80033bc:	685a      	ldr	r2, [r3, #4]
 80033be:	4b37      	ldr	r3, [pc, #220]	@ (800349c <HAL_RCC_ClockConfig+0x1f8>)
 80033c0:	430a      	orrs	r2, r1
 80033c2:	609a      	str	r2, [r3, #8]

    /* Get Start Tick*/
    tickstart = HAL_GetTick();
 80033c4:	f7fd fd84 	bl	8000ed0 <HAL_GetTick>
 80033c8:	0003      	movs	r3, r0
 80033ca:	60fb      	str	r3, [r7, #12]

    while (__HAL_RCC_GET_SYSCLK_SOURCE() != (RCC_ClkInitStruct->SYSCLKSource << RCC_CFGR_SWS_Pos))
 80033cc:	e009      	b.n	80033e2 <HAL_RCC_ClockConfig+0x13e>
    {
      if ((HAL_GetTick() - tickstart) > CLOCKSWITCH_TIMEOUT_VALUE)
 80033ce:	f7fd fd7f 	bl	8000ed0 <HAL_GetTick>
 80033d2:	0002      	movs	r2, r0
 80033d4:	68fb      	ldr	r3, [r7, #12]
 80033d6:	1ad3      	subs	r3, r2, r3
 80033d8:	4a2f      	ldr	r2, [pc, #188]	@ (8003498 <HAL_RCC_ClockConfig+0x1f4>)
 80033da:	4293      	cmp	r3, r2
 80033dc:	d901      	bls.n	80033e2 <HAL_RCC_ClockConfig+0x13e>
      {
        return HAL_TIMEOUT;
 80033de:	2303      	movs	r3, #3
 80033e0:	e054      	b.n	800348c <HAL_RCC_ClockConfig+0x1e8>
    while (__HAL_RCC_GET_SYSCLK_SOURCE() != (RCC_ClkInitStruct->SYSCLKSource << RCC_CFGR_SWS_Pos))
 80033e2:	4b2e      	ldr	r3, [pc, #184]	@ (800349c <HAL_RCC_ClockConfig+0x1f8>)
 80033e4:	689b      	ldr	r3, [r3, #8]
 80033e6:	2238      	movs	r2, #56	@ 0x38
 80033e8:	401a      	ands	r2, r3
 80033ea:	687b      	ldr	r3, [r7, #4]
 80033ec:	685b      	ldr	r3, [r3, #4]
 80033ee:	00db      	lsls	r3, r3, #3
 80033f0:	429a      	cmp	r2, r3
 80033f2:	d1ec      	bne.n	80033ce <HAL_RCC_ClockConfig+0x12a>
      }
    }
  }

  /* Decreasing the number of wait states because of lower CPU frequency */
  if (FLatency < __HAL_FLASH_GET_LATENCY())
 80033f4:	4b27      	ldr	r3, [pc, #156]	@ (8003494 <HAL_RCC_ClockConfig+0x1f0>)
 80033f6:	681b      	ldr	r3, [r3, #0]
 80033f8:	2207      	movs	r2, #7
 80033fa:	4013      	ands	r3, r2
 80033fc:	683a      	ldr	r2, [r7, #0]
 80033fe:	429a      	cmp	r2, r3
 8003400:	d21e      	bcs.n	8003440 <HAL_RCC_ClockConfig+0x19c>
  {
    /* Program the new number of wait states to the LATENCY bits in the FLASH_ACR register */
    __HAL_FLASH_SET_LATENCY(FLatency);
 8003402:	4b24      	ldr	r3, [pc, #144]	@ (8003494 <HAL_RCC_ClockConfig+0x1f0>)
 8003404:	681b      	ldr	r3, [r3, #0]
 8003406:	2207      	movs	r2, #7
 8003408:	4393      	bics	r3, r2
 800340a:	0019      	movs	r1, r3
 800340c:	4b21      	ldr	r3, [pc, #132]	@ (8003494 <HAL_RCC_ClockConfig+0x1f0>)
 800340e:	683a      	ldr	r2, [r7, #0]
 8003410:	430a      	orrs	r2, r1
 8003412:	601a      	str	r2, [r3, #0]

    /* Check that the new number of wait states is taken into account to access the Flash
    memory by polling the FLASH_ACR register */
    tickstart = HAL_GetTick();
 8003414:	f7fd fd5c 	bl	8000ed0 <HAL_GetTick>
 8003418:	0003      	movs	r3, r0
 800341a:	60fb      	str	r3, [r7, #12]

    while ((FLASH->ACR & FLASH_ACR_LATENCY) != FLatency)
 800341c:	e009      	b.n	8003432 <HAL_RCC_ClockConfig+0x18e>
    {
      if ((HAL_GetTick() - tickstart) > CLOCKSWITCH_TIMEOUT_VALUE)
 800341e:	f7fd fd57 	bl	8000ed0 <HAL_GetTick>
 8003422:	0002      	movs	r2, r0
 8003424:	68fb      	ldr	r3, [r7, #12]
 8003426:	1ad3      	subs	r3, r2, r3
 8003428:	4a1b      	ldr	r2, [pc, #108]	@ (8003498 <HAL_RCC_ClockConfig+0x1f4>)
 800342a:	4293      	cmp	r3, r2
 800342c:	d901      	bls.n	8003432 <HAL_RCC_ClockConfig+0x18e>
      {
        return HAL_TIMEOUT;
 800342e:	2303      	movs	r3, #3
 8003430:	e02c      	b.n	800348c <HAL_RCC_ClockConfig+0x1e8>
    while ((FLASH->ACR & FLASH_ACR_LATENCY) != FLatency)
 8003432:	4b18      	ldr	r3, [pc, #96]	@ (8003494 <HAL_RCC_ClockConfig+0x1f0>)
 8003434:	681b      	ldr	r3, [r3, #0]
 8003436:	2207      	movs	r2, #7
 8003438:	4013      	ands	r3, r2
 800343a:	683a      	ldr	r2, [r7, #0]
 800343c:	429a      	cmp	r2, r3
 800343e:	d1ee      	bne.n	800341e <HAL_RCC_ClockConfig+0x17a>
      }
    }
  }

  /*-------------------------- PCLK1 Configuration ---------------------------*/
  if (((RCC_ClkInitStruct->ClockType) & RCC_CLOCKTYPE_PCLK1) == RCC_CLOCKTYPE_PCLK1)
 8003440:	687b      	ldr	r3, [r7, #4]
 8003442:	681b      	ldr	r3, [r3, #0]
 8003444:	2204      	movs	r2, #4
 8003446:	4013      	ands	r3, r2
 8003448:	d009      	beq.n	800345e <HAL_RCC_ClockConfig+0x1ba>
  {
    assert_param(IS_RCC_PCLK(RCC_ClkInitStruct->APB1CLKDivider));
    MODIFY_REG(RCC->CFGR, RCC_CFGR_PPRE, RCC_ClkInitStruct->APB1CLKDivider);
 800344a:	4b14      	ldr	r3, [pc, #80]	@ (800349c <HAL_RCC_ClockConfig+0x1f8>)
 800344c:	689b      	ldr	r3, [r3, #8]
 800344e:	4a15      	ldr	r2, [pc, #84]	@ (80034a4 <HAL_RCC_ClockConfig+0x200>)
 8003450:	4013      	ands	r3, r2
 8003452:	0019      	movs	r1, r3
 8003454:	687b      	ldr	r3, [r7, #4]
 8003456:	68da      	ldr	r2, [r3, #12]
 8003458:	4b10      	ldr	r3, [pc, #64]	@ (800349c <HAL_RCC_ClockConfig+0x1f8>)
 800345a:	430a      	orrs	r2, r1
 800345c:	609a      	str	r2, [r3, #8]
  }

  /* Update the SystemCoreClock global variable */
  SystemCoreClock = (HAL_RCC_GetSysClockFreq() >> ((AHBPrescTable[(RCC->CFGR & RCC_CFGR_HPRE) >> RCC_CFGR_HPRE_Pos]) & 0x1FU));
 800345e:	f000 f829 	bl	80034b4 <HAL_RCC_GetSysClockFreq>
 8003462:	0001      	movs	r1, r0
 8003464:	4b0d      	ldr	r3, [pc, #52]	@ (800349c <HAL_RCC_ClockConfig+0x1f8>)
 8003466:	689b      	ldr	r3, [r3, #8]
 8003468:	0a1b      	lsrs	r3, r3, #8
 800346a:	220f      	movs	r2, #15
 800346c:	401a      	ands	r2, r3
 800346e:	4b0e      	ldr	r3, [pc, #56]	@ (80034a8 <HAL_RCC_ClockConfig+0x204>)
 8003470:	0092      	lsls	r2, r2, #2
 8003472:	58d3      	ldr	r3, [r2, r3]
 8003474:	221f      	movs	r2, #31
 8003476:	4013      	ands	r3, r2
 8003478:	000a      	movs	r2, r1
 800347a:	40da      	lsrs	r2, r3
 800347c:	4b0b      	ldr	r3, [pc, #44]	@ (80034ac <HAL_RCC_ClockConfig+0x208>)
 800347e:	601a      	str	r2, [r3, #0]

  /* Configure the source of time base considering new system clocks settings*/
  return HAL_InitTick(uwTickPrio);
 8003480:	4b0b      	ldr	r3, [pc, #44]	@ (80034b0 <HAL_RCC_ClockConfig+0x20c>)
 8003482:	681b      	ldr	r3, [r3, #0]
 8003484:	0018      	movs	r0, r3
 8003486:	f7fd fcc7 	bl	8000e18 <HAL_InitTick>
 800348a:	0003      	movs	r3, r0
}
 800348c:	0018      	movs	r0, r3
 800348e:	46bd      	mov	sp, r7
 8003490:	b004      	add	sp, #16
 8003492:	bd80      	pop	{r7, pc}
 8003494:	40022000 	.word	0x40022000
 8003498:	00001388 	.word	0x00001388
 800349c:	40021000 	.word	0x40021000
 80034a0:	fffff0ff 	.word	0xfffff0ff
 80034a4:	ffff8fff 	.word	0xffff8fff
 80034a8:	08005670 	.word	0x08005670
 80034ac:	20000000 	.word	0x20000000
 80034b0:	20000004 	.word	0x20000004

080034b4 <HAL_RCC_GetSysClockFreq>:
  *
  *
  * @retval SYSCLK frequency
  */
uint32_t HAL_RCC_GetSysClockFreq(void)
{
 80034b4:	b580      	push	{r7, lr}
 80034b6:	b086      	sub	sp, #24
 80034b8:	af00      	add	r7, sp, #0
  uint32_t pllvco, pllsource, pllr, pllm, hsidiv;
  uint32_t sysclockfreq;

  if (__HAL_RCC_GET_SYSCLK_SOURCE() == RCC_SYSCLKSOURCE_STATUS_HSI)
 80034ba:	4b3c      	ldr	r3, [pc, #240]	@ (80035ac <HAL_RCC_GetSysClockFreq+0xf8>)
 80034bc:	689b      	ldr	r3, [r3, #8]
 80034be:	2238      	movs	r2, #56	@ 0x38
 80034c0:	4013      	ands	r3, r2
 80034c2:	d10f      	bne.n	80034e4 <HAL_RCC_GetSysClockFreq+0x30>
  {
    /* HSISYS can be derived for HSI16 */
    hsidiv = (1UL << ((READ_BIT(RCC->CR, RCC_CR_HSIDIV)) >> RCC_CR_HSIDIV_Pos));
 80034c4:	4b39      	ldr	r3, [pc, #228]	@ (80035ac <HAL_RCC_GetSysClockFreq+0xf8>)
 80034c6:	681b      	ldr	r3, [r3, #0]
 80034c8:	0adb      	lsrs	r3, r3, #11
 80034ca:	2207      	movs	r2, #7
 80034cc:	4013      	ands	r3, r2
 80034ce:	2201      	movs	r2, #1
 80034d0:	409a      	lsls	r2, r3
 80034d2:	0013      	movs	r3, r2
 80034d4:	603b      	str	r3, [r7, #0]

    /* HSI used as system clock source */
    sysclockfreq = (HSI_VALUE / hsidiv);
 80034d6:	6839      	ldr	r1, [r7, #0]
 80034d8:	4835      	ldr	r0, [pc, #212]	@ (80035b0 <HAL_RCC_GetSysClockFreq+0xfc>)
 80034da:	f7fc fe1d 	bl	8000118 <__udivsi3>
 80034de:	0003      	movs	r3, r0
 80034e0:	613b      	str	r3, [r7, #16]
 80034e2:	e05d      	b.n	80035a0 <HAL_RCC_GetSysClockFreq+0xec>
  }
  else if (__HAL_RCC_GET_SYSCLK_SOURCE() == RCC_SYSCLKSOURCE_STATUS_HSE)
 80034e4:	4b31      	ldr	r3, [pc, #196]	@ (80035ac <HAL_RCC_GetSysClockFreq+0xf8>)
 80034e6:	689b      	ldr	r3, [r3, #8]
 80034e8:	2238      	movs	r2, #56	@ 0x38
 80034ea:	4013      	ands	r3, r2
 80034ec:	2b08      	cmp	r3, #8
 80034ee:	d102      	bne.n	80034f6 <HAL_RCC_GetSysClockFreq+0x42>
  {
    /* HSE used as system clock source */
    sysclockfreq = HSE_VALUE;
 80034f0:	4b30      	ldr	r3, [pc, #192]	@ (80035b4 <HAL_RCC_GetSysClockFreq+0x100>)
 80034f2:	613b      	str	r3, [r7, #16]
 80034f4:	e054      	b.n	80035a0 <HAL_RCC_GetSysClockFreq+0xec>
  }
  else if (__HAL_RCC_GET_SYSCLK_SOURCE() == RCC_SYSCLKSOURCE_STATUS_PLLCLK)
 80034f6:	4b2d      	ldr	r3, [pc, #180]	@ (80035ac <HAL_RCC_GetSysClockFreq+0xf8>)
 80034f8:	689b      	ldr	r3, [r3, #8]
 80034fa:	2238      	movs	r2, #56	@ 0x38
 80034fc:	4013      	ands	r3, r2
 80034fe:	2b10      	cmp	r3, #16
 8003500:	d138      	bne.n	8003574 <HAL_RCC_GetSysClockFreq+0xc0>
    /* PLL used as system clock  source */

    /* PLL_VCO = ((HSE_VALUE or HSI_VALUE)/ PLLM) * PLLN
    SYSCLK = PLL_VCO / PLLR
    */
    pllsource = (RCC->PLLCFGR & RCC_PLLCFGR_PLLSRC);
 8003502:	4b2a      	ldr	r3, [pc, #168]	@ (80035ac <HAL_RCC_GetSysClockFreq+0xf8>)
 8003504:	68db      	ldr	r3, [r3, #12]
 8003506:	2203      	movs	r2, #3
 8003508:	4013      	ands	r3, r2
 800350a:	60fb      	str	r3, [r7, #12]
    pllm = ((RCC->PLLCFGR & RCC_PLLCFGR_PLLM) >> RCC_PLLCFGR_PLLM_Pos) + 1U ;
 800350c:	4b27      	ldr	r3, [pc, #156]	@ (80035ac <HAL_RCC_GetSysClockFreq+0xf8>)
 800350e:	68db      	ldr	r3, [r3, #12]
 8003510:	091b      	lsrs	r3, r3, #4
 8003512:	2207      	movs	r2, #7
 8003514:	4013      	ands	r3, r2
 8003516:	3301      	adds	r3, #1
 8003518:	60bb      	str	r3, [r7, #8]

    switch (pllsource)
 800351a:	68fb      	ldr	r3, [r7, #12]
 800351c:	2b03      	cmp	r3, #3
 800351e:	d10d      	bne.n	800353c <HAL_RCC_GetSysClockFreq+0x88>
    {
      case RCC_PLLSOURCE_HSE:  /* HSE used as PLL clock source */
        pllvco = (HSE_VALUE / pllm) * ((RCC->PLLCFGR & RCC_PLLCFGR_PLLN) >> RCC_PLLCFGR_PLLN_Pos);
 8003520:	68b9      	ldr	r1, [r7, #8]
 8003522:	4824      	ldr	r0, [pc, #144]	@ (80035b4 <HAL_RCC_GetSysClockFreq+0x100>)
 8003524:	f7fc fdf8 	bl	8000118 <__udivsi3>
 8003528:	0003      	movs	r3, r0
 800352a:	0019      	movs	r1, r3
 800352c:	4b1f      	ldr	r3, [pc, #124]	@ (80035ac <HAL_RCC_GetSysClockFreq+0xf8>)
 800352e:	68db      	ldr	r3, [r3, #12]
 8003530:	0a1b      	lsrs	r3, r3, #8
 8003532:	227f      	movs	r2, #127	@ 0x7f
 8003534:	4013      	ands	r3, r2
 8003536:	434b      	muls	r3, r1
 8003538:	617b      	str	r3, [r7, #20]
        break;
 800353a:	e00d      	b.n	8003558 <HAL_RCC_GetSysClockFreq+0xa4>

      case RCC_PLLSOURCE_HSI:  /* HSI16 used as PLL clock source */
      default:                 /* HSI16 used as PLL clock source */
        pllvco = (HSI_VALUE / pllm) * ((RCC->PLLCFGR & RCC_PLLCFGR_PLLN) >> RCC_PLLCFGR_PLLN_Pos) ;
 800353c:	68b9      	ldr	r1, [r7, #8]
 800353e:	481c      	ldr	r0, [pc, #112]	@ (80035b0 <HAL_RCC_GetSysClockFreq+0xfc>)
 8003540:	f7fc fdea 	bl	8000118 <__udivsi3>
 8003544:	0003      	movs	r3, r0
 8003546:	0019      	movs	r1, r3
 8003548:	4b18      	ldr	r3, [pc, #96]	@ (80035ac <HAL_RCC_GetSysClockFreq+0xf8>)
 800354a:	68db      	ldr	r3, [r3, #12]
 800354c:	0a1b      	lsrs	r3, r3, #8
 800354e:	227f      	movs	r2, #127	@ 0x7f
 8003550:	4013      	ands	r3, r2
 8003552:	434b      	muls	r3, r1
 8003554:	617b      	str	r3, [r7, #20]
        break;
 8003556:	46c0      	nop			@ (mov r8, r8)
    }
    pllr = (((RCC->PLLCFGR & RCC_PLLCFGR_PLLR) >> RCC_PLLCFGR_PLLR_Pos) + 1U);
 8003558:	4b14      	ldr	r3, [pc, #80]	@ (80035ac <HAL_RCC_GetSysClockFreq+0xf8>)
 800355a:	68db      	ldr	r3, [r3, #12]
 800355c:	0f5b      	lsrs	r3, r3, #29
 800355e:	2207      	movs	r2, #7
 8003560:	4013      	ands	r3, r2
 8003562:	3301      	adds	r3, #1
 8003564:	607b      	str	r3, [r7, #4]
    sysclockfreq = pllvco / pllr;
 8003566:	6879      	ldr	r1, [r7, #4]
 8003568:	6978      	ldr	r0, [r7, #20]
 800356a:	f7fc fdd5 	bl	8000118 <__udivsi3>
 800356e:	0003      	movs	r3, r0
 8003570:	613b      	str	r3, [r7, #16]
 8003572:	e015      	b.n	80035a0 <HAL_RCC_GetSysClockFreq+0xec>
  }
  else if (__HAL_RCC_GET_SYSCLK_SOURCE() == RCC_SYSCLKSOURCE_STATUS_LSE)
 8003574:	4b0d      	ldr	r3, [pc, #52]	@ (80035ac <HAL_RCC_GetSysClockFreq+0xf8>)
 8003576:	689b      	ldr	r3, [r3, #8]
 8003578:	2238      	movs	r2, #56	@ 0x38
 800357a:	4013      	ands	r3, r2
 800357c:	2b20      	cmp	r3, #32
 800357e:	d103      	bne.n	8003588 <HAL_RCC_GetSysClockFreq+0xd4>
  {
    /* LSE used as system clock source */
    sysclockfreq = LSE_VALUE;
 8003580:	2380      	movs	r3, #128	@ 0x80
 8003582:	021b      	lsls	r3, r3, #8
 8003584:	613b      	str	r3, [r7, #16]
 8003586:	e00b      	b.n	80035a0 <HAL_RCC_GetSysClockFreq+0xec>
  }
  else if (__HAL_RCC_GET_SYSCLK_SOURCE() == RCC_SYSCLKSOURCE_STATUS_LSI)
 8003588:	4b08      	ldr	r3, [pc, #32]	@ (80035ac <HAL_RCC_GetSysClockFreq+0xf8>)
 800358a:	689b      	ldr	r3, [r3, #8]
 800358c:	2238      	movs	r2, #56	@ 0x38
 800358e:	4013      	ands	r3, r2
 8003590:	2b18      	cmp	r3, #24
 8003592:	d103      	bne.n	800359c <HAL_RCC_GetSysClockFreq+0xe8>
  {
    /* LSI used as system clock source */
    sysclockfreq = LSI_VALUE;
 8003594:	23fa      	movs	r3, #250	@ 0xfa
 8003596:	01db      	lsls	r3, r3, #7
 8003598:	613b      	str	r3, [r7, #16]
 800359a:	e001      	b.n	80035a0 <HAL_RCC_GetSysClockFreq+0xec>
  }
  else
  {
    sysclockfreq = 0U;
 800359c:	2300      	movs	r3, #0
 800359e:	613b      	str	r3, [r7, #16]
  }

  return sysclockfreq;
 80035a0:	693b      	ldr	r3, [r7, #16]
}
 80035a2:	0018      	movs	r0, r3
 80035a4:	46bd      	mov	sp, r7
 80035a6:	b006      	add	sp, #24
 80035a8:	bd80      	pop	{r7, pc}
 80035aa:	46c0      	nop			@ (mov r8, r8)
 80035ac:	40021000 	.word	0x40021000
 80035b0:	00f42400 	.word	0x00f42400
 80035b4:	007a1200 	.word	0x007a1200

080035b8 <HAL_RCC_GetHCLKFreq>:
  *
  * @note   The SystemCoreClock CMSIS variable is used to store System Clock Frequency.
  * @retval HCLK frequency in Hz
  */
uint32_t HAL_RCC_GetHCLKFreq(void)
{
 80035b8:	b580      	push	{r7, lr}
 80035ba:	af00      	add	r7, sp, #0
  return SystemCoreClock;
 80035bc:	4b02      	ldr	r3, [pc, #8]	@ (80035c8 <HAL_RCC_GetHCLKFreq+0x10>)
 80035be:	681b      	ldr	r3, [r3, #0]
}
 80035c0:	0018      	movs	r0, r3
 80035c2:	46bd      	mov	sp, r7
 80035c4:	bd80      	pop	{r7, pc}
 80035c6:	46c0      	nop			@ (mov r8, r8)
 80035c8:	20000000 	.word	0x20000000

080035cc <HAL_RCC_GetPCLK1Freq>:
  * @note   Each time PCLK1 changes, this function must be called to update the
  *         right PCLK1 value. Otherwise, any configuration based on this function will be incorrect.
  * @retval PCLK1 frequency in Hz
  */
uint32_t HAL_RCC_GetPCLK1Freq(void)
{
 80035cc:	b5b0      	push	{r4, r5, r7, lr}
 80035ce:	af00      	add	r7, sp, #0
  /* Get HCLK source and Compute PCLK1 frequency ---------------------------*/
  return ((uint32_t)(__LL_RCC_CALC_PCLK1_FREQ(HAL_RCC_GetHCLKFreq(), LL_RCC_GetAPB1Prescaler())));
 80035d0:	f7ff fff2 	bl	80035b8 <HAL_RCC_GetHCLKFreq>
 80035d4:	0004      	movs	r4, r0
 80035d6:	f7ff fb3f 	bl	8002c58 <LL_RCC_GetAPB1Prescaler>
 80035da:	0003      	movs	r3, r0
 80035dc:	0b1a      	lsrs	r2, r3, #12
 80035de:	4b05      	ldr	r3, [pc, #20]	@ (80035f4 <HAL_RCC_GetPCLK1Freq+0x28>)
 80035e0:	0092      	lsls	r2, r2, #2
 80035e2:	58d3      	ldr	r3, [r2, r3]
 80035e4:	221f      	movs	r2, #31
 80035e6:	4013      	ands	r3, r2
 80035e8:	40dc      	lsrs	r4, r3
 80035ea:	0023      	movs	r3, r4
}
 80035ec:	0018      	movs	r0, r3
 80035ee:	46bd      	mov	sp, r7
 80035f0:	bdb0      	pop	{r4, r5, r7, pc}
 80035f2:	46c0      	nop			@ (mov r8, r8)
 80035f4:	080056b0 	.word	0x080056b0

080035f8 <HAL_RCCEx_PeriphCLKConfig>:
  *         the RTC clock source: in this case the access to Backup domain is enabled.
  *
  * @retval HAL status
  */
HAL_StatusTypeDef HAL_RCCEx_PeriphCLKConfig(RCC_PeriphCLKInitTypeDef  *PeriphClkInit)
{
 80035f8:	b580      	push	{r7, lr}
 80035fa:	b086      	sub	sp, #24
 80035fc:	af00      	add	r7, sp, #0
 80035fe:	6078      	str	r0, [r7, #4]
  uint32_t tmpregister;
  uint32_t tickstart;
  HAL_StatusTypeDef ret    = HAL_OK;   /* Intermediate status */
 8003600:	2313      	movs	r3, #19
 8003602:	18fb      	adds	r3, r7, r3
 8003604:	2200      	movs	r2, #0
 8003606:	701a      	strb	r2, [r3, #0]
  HAL_StatusTypeDef status = HAL_OK;   /* Final status */
 8003608:	2312      	movs	r3, #18
 800360a:	18fb      	adds	r3, r7, r3
 800360c:	2200      	movs	r2, #0
 800360e:	701a      	strb	r2, [r3, #0]

  /* Check the parameters */
  assert_param(IS_RCC_PERIPHCLOCK(PeriphClkInit->PeriphClockSelection));

  /*-------------------------- RTC clock source configuration ----------------------*/
  if ((PeriphClkInit->PeriphClockSelection & RCC_PERIPHCLK_RTC) == RCC_PERIPHCLK_RTC)
 8003610:	687b      	ldr	r3, [r7, #4]
 8003612:	681a      	ldr	r2, [r3, #0]
 8003614:	2380      	movs	r3, #128	@ 0x80
 8003616:	029b      	lsls	r3, r3, #10
 8003618:	4013      	ands	r3, r2
 800361a:	d100      	bne.n	800361e <HAL_RCCEx_PeriphCLKConfig+0x26>
 800361c:	e0a3      	b.n	8003766 <HAL_RCCEx_PeriphCLKConfig+0x16e>
  {
    FlagStatus       pwrclkchanged = RESET;
 800361e:	2011      	movs	r0, #17
 8003620:	183b      	adds	r3, r7, r0
 8003622:	2200      	movs	r2, #0
 8003624:	701a      	strb	r2, [r3, #0]

    /* Check for RTC Parameters used to output RTCCLK */
    assert_param(IS_RCC_RTCCLKSOURCE(PeriphClkInit->RTCClockSelection));

    /* Enable Power Clock */
    if (__HAL_RCC_PWR_IS_CLK_DISABLED())
 8003626:	4bc3      	ldr	r3, [pc, #780]	@ (8003934 <HAL_RCCEx_PeriphCLKConfig+0x33c>)
 8003628:	6bda      	ldr	r2, [r3, #60]	@ 0x3c
 800362a:	2380      	movs	r3, #128	@ 0x80
 800362c:	055b      	lsls	r3, r3, #21
 800362e:	4013      	ands	r3, r2
 8003630:	d110      	bne.n	8003654 <HAL_RCCEx_PeriphCLKConfig+0x5c>
    {
      __HAL_RCC_PWR_CLK_ENABLE();
 8003632:	4bc0      	ldr	r3, [pc, #768]	@ (8003934 <HAL_RCCEx_PeriphCLKConfig+0x33c>)
 8003634:	6bda      	ldr	r2, [r3, #60]	@ 0x3c
 8003636:	4bbf      	ldr	r3, [pc, #764]	@ (8003934 <HAL_RCCEx_PeriphCLKConfig+0x33c>)
 8003638:	2180      	movs	r1, #128	@ 0x80
 800363a:	0549      	lsls	r1, r1, #21
 800363c:	430a      	orrs	r2, r1
 800363e:	63da      	str	r2, [r3, #60]	@ 0x3c
 8003640:	4bbc      	ldr	r3, [pc, #752]	@ (8003934 <HAL_RCCEx_PeriphCLKConfig+0x33c>)
 8003642:	6bda      	ldr	r2, [r3, #60]	@ 0x3c
 8003644:	2380      	movs	r3, #128	@ 0x80
 8003646:	055b      	lsls	r3, r3, #21
 8003648:	4013      	ands	r3, r2
 800364a:	60bb      	str	r3, [r7, #8]
 800364c:	68bb      	ldr	r3, [r7, #8]
      pwrclkchanged = SET;
 800364e:	183b      	adds	r3, r7, r0
 8003650:	2201      	movs	r2, #1
 8003652:	701a      	strb	r2, [r3, #0]
    }

    /* Enable write access to Backup domain */
    SET_BIT(PWR->CR1, PWR_CR1_DBP);
 8003654:	4bb8      	ldr	r3, [pc, #736]	@ (8003938 <HAL_RCCEx_PeriphCLKConfig+0x340>)
 8003656:	681a      	ldr	r2, [r3, #0]
 8003658:	4bb7      	ldr	r3, [pc, #732]	@ (8003938 <HAL_RCCEx_PeriphCLKConfig+0x340>)
 800365a:	2180      	movs	r1, #128	@ 0x80
 800365c:	0049      	lsls	r1, r1, #1
 800365e:	430a      	orrs	r2, r1
 8003660:	601a      	str	r2, [r3, #0]

    /* Wait for Backup domain Write protection disable */
    tickstart = HAL_GetTick();
 8003662:	f7fd fc35 	bl	8000ed0 <HAL_GetTick>
 8003666:	0003      	movs	r3, r0
 8003668:	60fb      	str	r3, [r7, #12]

    while ((PWR->CR1 & PWR_CR1_DBP) == 0U)
 800366a:	e00b      	b.n	8003684 <HAL_RCCEx_PeriphCLKConfig+0x8c>
    {
      if ((HAL_GetTick() - tickstart) > RCC_DBP_TIMEOUT_VALUE)
 800366c:	f7fd fc30 	bl	8000ed0 <HAL_GetTick>
 8003670:	0002      	movs	r2, r0
 8003672:	68fb      	ldr	r3, [r7, #12]
 8003674:	1ad3      	subs	r3, r2, r3
 8003676:	2b02      	cmp	r3, #2
 8003678:	d904      	bls.n	8003684 <HAL_RCCEx_PeriphCLKConfig+0x8c>
      {
        ret = HAL_TIMEOUT;
 800367a:	2313      	movs	r3, #19
 800367c:	18fb      	adds	r3, r7, r3
 800367e:	2203      	movs	r2, #3
 8003680:	701a      	strb	r2, [r3, #0]
        break;
 8003682:	e005      	b.n	8003690 <HAL_RCCEx_PeriphCLKConfig+0x98>
    while ((PWR->CR1 & PWR_CR1_DBP) == 0U)
 8003684:	4bac      	ldr	r3, [pc, #688]	@ (8003938 <HAL_RCCEx_PeriphCLKConfig+0x340>)
 8003686:	681a      	ldr	r2, [r3, #0]
 8003688:	2380      	movs	r3, #128	@ 0x80
 800368a:	005b      	lsls	r3, r3, #1
 800368c:	4013      	ands	r3, r2
 800368e:	d0ed      	beq.n	800366c <HAL_RCCEx_PeriphCLKConfig+0x74>
      }
    }

    if (ret == HAL_OK)
 8003690:	2313      	movs	r3, #19
 8003692:	18fb      	adds	r3, r7, r3
 8003694:	781b      	ldrb	r3, [r3, #0]
 8003696:	2b00      	cmp	r3, #0
 8003698:	d154      	bne.n	8003744 <HAL_RCCEx_PeriphCLKConfig+0x14c>
    {
      /* Reset the Backup domain only if the RTC Clock source selection is modified from default */
      tmpregister = READ_BIT(RCC->BDCR, RCC_BDCR_RTCSEL);
 800369a:	4ba6      	ldr	r3, [pc, #664]	@ (8003934 <HAL_RCCEx_PeriphCLKConfig+0x33c>)
 800369c:	6dda      	ldr	r2, [r3, #92]	@ 0x5c
 800369e:	23c0      	movs	r3, #192	@ 0xc0
 80036a0:	009b      	lsls	r3, r3, #2
 80036a2:	4013      	ands	r3, r2
 80036a4:	617b      	str	r3, [r7, #20]

      /* Reset the Backup domain only if the RTC Clock source selection is modified */
      if ((tmpregister != RCC_RTCCLKSOURCE_NONE) && (tmpregister != PeriphClkInit->RTCClockSelection))
 80036a6:	697b      	ldr	r3, [r7, #20]
 80036a8:	2b00      	cmp	r3, #0
 80036aa:	d019      	beq.n	80036e0 <HAL_RCCEx_PeriphCLKConfig+0xe8>
 80036ac:	687b      	ldr	r3, [r7, #4]
 80036ae:	6b1b      	ldr	r3, [r3, #48]	@ 0x30
 80036b0:	697a      	ldr	r2, [r7, #20]
 80036b2:	429a      	cmp	r2, r3
 80036b4:	d014      	beq.n	80036e0 <HAL_RCCEx_PeriphCLKConfig+0xe8>
      {
        /* Store the content of BDCR register before the reset of Backup Domain */
        tmpregister = READ_BIT(RCC->BDCR, ~(RCC_BDCR_RTCSEL));
 80036b6:	4b9f      	ldr	r3, [pc, #636]	@ (8003934 <HAL_RCCEx_PeriphCLKConfig+0x33c>)
 80036b8:	6ddb      	ldr	r3, [r3, #92]	@ 0x5c
 80036ba:	4aa0      	ldr	r2, [pc, #640]	@ (800393c <HAL_RCCEx_PeriphCLKConfig+0x344>)
 80036bc:	4013      	ands	r3, r2
 80036be:	617b      	str	r3, [r7, #20]
        /* RTC Clock selection can be changed only if the Backup Domain is reset */
        __HAL_RCC_BACKUPRESET_FORCE();
 80036c0:	4b9c      	ldr	r3, [pc, #624]	@ (8003934 <HAL_RCCEx_PeriphCLKConfig+0x33c>)
 80036c2:	6dda      	ldr	r2, [r3, #92]	@ 0x5c
 80036c4:	4b9b      	ldr	r3, [pc, #620]	@ (8003934 <HAL_RCCEx_PeriphCLKConfig+0x33c>)
 80036c6:	2180      	movs	r1, #128	@ 0x80
 80036c8:	0249      	lsls	r1, r1, #9
 80036ca:	430a      	orrs	r2, r1
 80036cc:	65da      	str	r2, [r3, #92]	@ 0x5c
        __HAL_RCC_BACKUPRESET_RELEASE();
 80036ce:	4b99      	ldr	r3, [pc, #612]	@ (8003934 <HAL_RCCEx_PeriphCLKConfig+0x33c>)
 80036d0:	6dda      	ldr	r2, [r3, #92]	@ 0x5c
 80036d2:	4b98      	ldr	r3, [pc, #608]	@ (8003934 <HAL_RCCEx_PeriphCLKConfig+0x33c>)
 80036d4:	499a      	ldr	r1, [pc, #616]	@ (8003940 <HAL_RCCEx_PeriphCLKConfig+0x348>)
 80036d6:	400a      	ands	r2, r1
 80036d8:	65da      	str	r2, [r3, #92]	@ 0x5c
        /* Restore the Content of BDCR register */
        RCC->BDCR = tmpregister;
 80036da:	4b96      	ldr	r3, [pc, #600]	@ (8003934 <HAL_RCCEx_PeriphCLKConfig+0x33c>)
 80036dc:	697a      	ldr	r2, [r7, #20]
 80036de:	65da      	str	r2, [r3, #92]	@ 0x5c
      }

      /* Wait for LSE reactivation if LSE was enable prior to Backup Domain reset */
      if (HAL_IS_BIT_SET(tmpregister, RCC_BDCR_LSEON))
 80036e0:	697b      	ldr	r3, [r7, #20]
 80036e2:	2201      	movs	r2, #1
 80036e4:	4013      	ands	r3, r2
 80036e6:	d016      	beq.n	8003716 <HAL_RCCEx_PeriphCLKConfig+0x11e>
      {
        /* Get Start Tick*/
        tickstart = HAL_GetTick();
 80036e8:	f7fd fbf2 	bl	8000ed0 <HAL_GetTick>
 80036ec:	0003      	movs	r3, r0
 80036ee:	60fb      	str	r3, [r7, #12]

        /* Wait till LSE is ready */
        while (READ_BIT(RCC->BDCR, RCC_BDCR_LSERDY) == 0U)
 80036f0:	e00c      	b.n	800370c <HAL_RCCEx_PeriphCLKConfig+0x114>
        {
          if ((HAL_GetTick() - tickstart) > RCC_LSE_TIMEOUT_VALUE)
 80036f2:	f7fd fbed 	bl	8000ed0 <HAL_GetTick>
 80036f6:	0002      	movs	r2, r0
 80036f8:	68fb      	ldr	r3, [r7, #12]
 80036fa:	1ad3      	subs	r3, r2, r3
 80036fc:	4a91      	ldr	r2, [pc, #580]	@ (8003944 <HAL_RCCEx_PeriphCLKConfig+0x34c>)
 80036fe:	4293      	cmp	r3, r2
 8003700:	d904      	bls.n	800370c <HAL_RCCEx_PeriphCLKConfig+0x114>
          {
            ret = HAL_TIMEOUT;
 8003702:	2313      	movs	r3, #19
 8003704:	18fb      	adds	r3, r7, r3
 8003706:	2203      	movs	r2, #3
 8003708:	701a      	strb	r2, [r3, #0]
            break;
 800370a:	e004      	b.n	8003716 <HAL_RCCEx_PeriphCLKConfig+0x11e>
        while (READ_BIT(RCC->BDCR, RCC_BDCR_LSERDY) == 0U)
 800370c:	4b89      	ldr	r3, [pc, #548]	@ (8003934 <HAL_RCCEx_PeriphCLKConfig+0x33c>)
 800370e:	6ddb      	ldr	r3, [r3, #92]	@ 0x5c
 8003710:	2202      	movs	r2, #2
 8003712:	4013      	ands	r3, r2
 8003714:	d0ed      	beq.n	80036f2 <HAL_RCCEx_PeriphCLKConfig+0xfa>
          }
        }
      }

      if (ret == HAL_OK)
 8003716:	2313      	movs	r3, #19
 8003718:	18fb      	adds	r3, r7, r3
 800371a:	781b      	ldrb	r3, [r3, #0]
 800371c:	2b00      	cmp	r3, #0
 800371e:	d10a      	bne.n	8003736 <HAL_RCCEx_PeriphCLKConfig+0x13e>
      {
        /* Apply new RTC clock source selection */
        __HAL_RCC_RTC_CONFIG(PeriphClkInit->RTCClockSelection);
 8003720:	4b84      	ldr	r3, [pc, #528]	@ (8003934 <HAL_RCCEx_PeriphCLKConfig+0x33c>)
 8003722:	6ddb      	ldr	r3, [r3, #92]	@ 0x5c
 8003724:	4a85      	ldr	r2, [pc, #532]	@ (800393c <HAL_RCCEx_PeriphCLKConfig+0x344>)
 8003726:	4013      	ands	r3, r2
 8003728:	0019      	movs	r1, r3
 800372a:	687b      	ldr	r3, [r7, #4]
 800372c:	6b1a      	ldr	r2, [r3, #48]	@ 0x30
 800372e:	4b81      	ldr	r3, [pc, #516]	@ (8003934 <HAL_RCCEx_PeriphCLKConfig+0x33c>)
 8003730:	430a      	orrs	r2, r1
 8003732:	65da      	str	r2, [r3, #92]	@ 0x5c
 8003734:	e00c      	b.n	8003750 <HAL_RCCEx_PeriphCLKConfig+0x158>
      }
      else
      {
        /* set overall return value */
        status = ret;
 8003736:	2312      	movs	r3, #18
 8003738:	18fb      	adds	r3, r7, r3
 800373a:	2213      	movs	r2, #19
 800373c:	18ba      	adds	r2, r7, r2
 800373e:	7812      	ldrb	r2, [r2, #0]
 8003740:	701a      	strb	r2, [r3, #0]
 8003742:	e005      	b.n	8003750 <HAL_RCCEx_PeriphCLKConfig+0x158>
      }
    }
    else
    {
      /* set overall return value */
      status = ret;
 8003744:	2312      	movs	r3, #18
 8003746:	18fb      	adds	r3, r7, r3
 8003748:	2213      	movs	r2, #19
 800374a:	18ba      	adds	r2, r7, r2
 800374c:	7812      	ldrb	r2, [r2, #0]
 800374e:	701a      	strb	r2, [r3, #0]
    }

    /* Restore clock configuration if changed */
    if (pwrclkchanged == SET)
 8003750:	2311      	movs	r3, #17
 8003752:	18fb      	adds	r3, r7, r3
 8003754:	781b      	ldrb	r3, [r3, #0]
 8003756:	2b01      	cmp	r3, #1
 8003758:	d105      	bne.n	8003766 <HAL_RCCEx_PeriphCLKConfig+0x16e>
    {
      __HAL_RCC_PWR_CLK_DISABLE();
 800375a:	4b76      	ldr	r3, [pc, #472]	@ (8003934 <HAL_RCCEx_PeriphCLKConfig+0x33c>)
 800375c:	6bda      	ldr	r2, [r3, #60]	@ 0x3c
 800375e:	4b75      	ldr	r3, [pc, #468]	@ (8003934 <HAL_RCCEx_PeriphCLKConfig+0x33c>)
 8003760:	4979      	ldr	r1, [pc, #484]	@ (8003948 <HAL_RCCEx_PeriphCLKConfig+0x350>)
 8003762:	400a      	ands	r2, r1
 8003764:	63da      	str	r2, [r3, #60]	@ 0x3c
    }
  }

  /*-------------------------- USART1 clock source configuration -------------------*/
  if (((PeriphClkInit->PeriphClockSelection) & RCC_PERIPHCLK_USART1) == RCC_PERIPHCLK_USART1)
 8003766:	687b      	ldr	r3, [r7, #4]
 8003768:	681b      	ldr	r3, [r3, #0]
 800376a:	2201      	movs	r2, #1
 800376c:	4013      	ands	r3, r2
 800376e:	d009      	beq.n	8003784 <HAL_RCCEx_PeriphCLKConfig+0x18c>
  {
    /* Check the parameters */
    assert_param(IS_RCC_USART1CLKSOURCE(PeriphClkInit->Usart1ClockSelection));

    /* Configure the USART1 clock source */
    __HAL_RCC_USART1_CONFIG(PeriphClkInit->Usart1ClockSelection);
 8003770:	4b70      	ldr	r3, [pc, #448]	@ (8003934 <HAL_RCCEx_PeriphCLKConfig+0x33c>)
 8003772:	6d5b      	ldr	r3, [r3, #84]	@ 0x54
 8003774:	2203      	movs	r2, #3
 8003776:	4393      	bics	r3, r2
 8003778:	0019      	movs	r1, r3
 800377a:	687b      	ldr	r3, [r7, #4]
 800377c:	685a      	ldr	r2, [r3, #4]
 800377e:	4b6d      	ldr	r3, [pc, #436]	@ (8003934 <HAL_RCCEx_PeriphCLKConfig+0x33c>)
 8003780:	430a      	orrs	r2, r1
 8003782:	655a      	str	r2, [r3, #84]	@ 0x54
  }

#if defined(RCC_CCIPR_USART2SEL)
  /*-------------------------- USART2 clock source configuration -------------------*/
  if (((PeriphClkInit->PeriphClockSelection) & RCC_PERIPHCLK_USART2) == RCC_PERIPHCLK_USART2)
 8003784:	687b      	ldr	r3, [r7, #4]
 8003786:	681b      	ldr	r3, [r3, #0]
 8003788:	2202      	movs	r2, #2
 800378a:	4013      	ands	r3, r2
 800378c:	d009      	beq.n	80037a2 <HAL_RCCEx_PeriphCLKConfig+0x1aa>
  {
    /* Check the parameters */
    assert_param(IS_RCC_USART2CLKSOURCE(PeriphClkInit->Usart2ClockSelection));

    /* Configure the USART2 clock source */
    __HAL_RCC_USART2_CONFIG(PeriphClkInit->Usart2ClockSelection);
 800378e:	4b69      	ldr	r3, [pc, #420]	@ (8003934 <HAL_RCCEx_PeriphCLKConfig+0x33c>)
 8003790:	6d5b      	ldr	r3, [r3, #84]	@ 0x54
 8003792:	220c      	movs	r2, #12
 8003794:	4393      	bics	r3, r2
 8003796:	0019      	movs	r1, r3
 8003798:	687b      	ldr	r3, [r7, #4]
 800379a:	689a      	ldr	r2, [r3, #8]
 800379c:	4b65      	ldr	r3, [pc, #404]	@ (8003934 <HAL_RCCEx_PeriphCLKConfig+0x33c>)
 800379e:	430a      	orrs	r2, r1
 80037a0:	655a      	str	r2, [r3, #84]	@ 0x54
  }
#endif /* RCC_CCIPR_USART3SEL */

#if defined(LPUART1)
  /*-------------------------- LPUART1 clock source configuration ------------------*/
  if (((PeriphClkInit->PeriphClockSelection) & RCC_PERIPHCLK_LPUART1) == RCC_PERIPHCLK_LPUART1)
 80037a2:	687b      	ldr	r3, [r7, #4]
 80037a4:	681b      	ldr	r3, [r3, #0]
 80037a6:	2210      	movs	r2, #16
 80037a8:	4013      	ands	r3, r2
 80037aa:	d009      	beq.n	80037c0 <HAL_RCCEx_PeriphCLKConfig+0x1c8>
  {
    /* Check the parameters */
    assert_param(IS_RCC_LPUART1CLKSOURCE(PeriphClkInit->Lpuart1ClockSelection));

    /* Configure the LPUART1 clock source */
    __HAL_RCC_LPUART1_CONFIG(PeriphClkInit->Lpuart1ClockSelection);
 80037ac:	4b61      	ldr	r3, [pc, #388]	@ (8003934 <HAL_RCCEx_PeriphCLKConfig+0x33c>)
 80037ae:	6d5b      	ldr	r3, [r3, #84]	@ 0x54
 80037b0:	4a66      	ldr	r2, [pc, #408]	@ (800394c <HAL_RCCEx_PeriphCLKConfig+0x354>)
 80037b2:	4013      	ands	r3, r2
 80037b4:	0019      	movs	r1, r3
 80037b6:	687b      	ldr	r3, [r7, #4]
 80037b8:	68da      	ldr	r2, [r3, #12]
 80037ba:	4b5e      	ldr	r3, [pc, #376]	@ (8003934 <HAL_RCCEx_PeriphCLKConfig+0x33c>)
 80037bc:	430a      	orrs	r2, r1
 80037be:	655a      	str	r2, [r3, #84]	@ 0x54
  }
#endif /* LPUART2 */

#if defined(RCC_CCIPR_LPTIM1SEL)
  /*-------------------------- LPTIM1 clock source configuration -------------------*/
  if (((PeriphClkInit->PeriphClockSelection) & RCC_PERIPHCLK_LPTIM1) == (RCC_PERIPHCLK_LPTIM1))
 80037c0:	687b      	ldr	r3, [r7, #4]
 80037c2:	681a      	ldr	r2, [r3, #0]
 80037c4:	2380      	movs	r3, #128	@ 0x80
 80037c6:	009b      	lsls	r3, r3, #2
 80037c8:	4013      	ands	r3, r2
 80037ca:	d009      	beq.n	80037e0 <HAL_RCCEx_PeriphCLKConfig+0x1e8>
  {
    assert_param(IS_RCC_LPTIM1CLKSOURCE(PeriphClkInit->Lptim1ClockSelection));
    __HAL_RCC_LPTIM1_CONFIG(PeriphClkInit->Lptim1ClockSelection);
 80037cc:	4b59      	ldr	r3, [pc, #356]	@ (8003934 <HAL_RCCEx_PeriphCLKConfig+0x33c>)
 80037ce:	6d5b      	ldr	r3, [r3, #84]	@ 0x54
 80037d0:	4a5f      	ldr	r2, [pc, #380]	@ (8003950 <HAL_RCCEx_PeriphCLKConfig+0x358>)
 80037d2:	4013      	ands	r3, r2
 80037d4:	0019      	movs	r1, r3
 80037d6:	687b      	ldr	r3, [r7, #4]
 80037d8:	699a      	ldr	r2, [r3, #24]
 80037da:	4b56      	ldr	r3, [pc, #344]	@ (8003934 <HAL_RCCEx_PeriphCLKConfig+0x33c>)
 80037dc:	430a      	orrs	r2, r1
 80037de:	655a      	str	r2, [r3, #84]	@ 0x54
  }
#endif /* RCC_CCIPR_LPTIM1SEL */

#if defined(RCC_CCIPR_LPTIM2SEL)
  /*-------------------------- LPTIM2 clock source configuration -------------------*/
  if (((PeriphClkInit->PeriphClockSelection) & RCC_PERIPHCLK_LPTIM2) == (RCC_PERIPHCLK_LPTIM2))
 80037e0:	687b      	ldr	r3, [r7, #4]
 80037e2:	681a      	ldr	r2, [r3, #0]
 80037e4:	2380      	movs	r3, #128	@ 0x80
 80037e6:	00db      	lsls	r3, r3, #3
 80037e8:	4013      	ands	r3, r2
 80037ea:	d009      	beq.n	8003800 <HAL_RCCEx_PeriphCLKConfig+0x208>
  {
    assert_param(IS_RCC_LPTIM2CLKSOURCE(PeriphClkInit->Lptim2ClockSelection));
    __HAL_RCC_LPTIM2_CONFIG(PeriphClkInit->Lptim2ClockSelection);
 80037ec:	4b51      	ldr	r3, [pc, #324]	@ (8003934 <HAL_RCCEx_PeriphCLKConfig+0x33c>)
 80037ee:	6d5b      	ldr	r3, [r3, #84]	@ 0x54
 80037f0:	4a58      	ldr	r2, [pc, #352]	@ (8003954 <HAL_RCCEx_PeriphCLKConfig+0x35c>)
 80037f2:	4013      	ands	r3, r2
 80037f4:	0019      	movs	r1, r3
 80037f6:	687b      	ldr	r3, [r7, #4]
 80037f8:	69da      	ldr	r2, [r3, #28]
 80037fa:	4b4e      	ldr	r3, [pc, #312]	@ (8003934 <HAL_RCCEx_PeriphCLKConfig+0x33c>)
 80037fc:	430a      	orrs	r2, r1
 80037fe:	655a      	str	r2, [r3, #84]	@ 0x54
  }
#endif /* RCC_CCIPR_LPTIM2SEL */

  /*-------------------------- I2C1 clock source configuration ---------------------*/
  if (((PeriphClkInit->PeriphClockSelection) & RCC_PERIPHCLK_I2C1) == RCC_PERIPHCLK_I2C1)
 8003800:	687b      	ldr	r3, [r7, #4]
 8003802:	681b      	ldr	r3, [r3, #0]
 8003804:	2220      	movs	r2, #32
 8003806:	4013      	ands	r3, r2
 8003808:	d009      	beq.n	800381e <HAL_RCCEx_PeriphCLKConfig+0x226>
  {
    /* Check the parameters */
    assert_param(IS_RCC_I2C1CLKSOURCE(PeriphClkInit->I2c1ClockSelection));

    /* Configure the I2C1 clock source */
    __HAL_RCC_I2C1_CONFIG(PeriphClkInit->I2c1ClockSelection);
 800380a:	4b4a      	ldr	r3, [pc, #296]	@ (8003934 <HAL_RCCEx_PeriphCLKConfig+0x33c>)
 800380c:	6d5b      	ldr	r3, [r3, #84]	@ 0x54
 800380e:	4a52      	ldr	r2, [pc, #328]	@ (8003958 <HAL_RCCEx_PeriphCLKConfig+0x360>)
 8003810:	4013      	ands	r3, r2
 8003812:	0019      	movs	r1, r3
 8003814:	687b      	ldr	r3, [r7, #4]
 8003816:	691a      	ldr	r2, [r3, #16]
 8003818:	4b46      	ldr	r3, [pc, #280]	@ (8003934 <HAL_RCCEx_PeriphCLKConfig+0x33c>)
 800381a:	430a      	orrs	r2, r1
 800381c:	655a      	str	r2, [r3, #84]	@ 0x54
      __HAL_RCC_PLLCLKOUT_ENABLE(RCC_PLLQCLK);
    }
  }
#endif /* RNG */
  /*-------------------------- ADC clock source configuration ----------------------*/
  if (((PeriphClkInit->PeriphClockSelection) & RCC_PERIPHCLK_ADC) == RCC_PERIPHCLK_ADC)
 800381e:	687b      	ldr	r3, [r7, #4]
 8003820:	681a      	ldr	r2, [r3, #0]
 8003822:	2380      	movs	r3, #128	@ 0x80
 8003824:	01db      	lsls	r3, r3, #7
 8003826:	4013      	ands	r3, r2
 8003828:	d015      	beq.n	8003856 <HAL_RCCEx_PeriphCLKConfig+0x25e>
  {
    /* Check the parameters */
    assert_param(IS_RCC_ADCCLKSOURCE(PeriphClkInit->AdcClockSelection));

    /* Configure the ADC interface clock source */
    __HAL_RCC_ADC_CONFIG(PeriphClkInit->AdcClockSelection);
 800382a:	4b42      	ldr	r3, [pc, #264]	@ (8003934 <HAL_RCCEx_PeriphCLKConfig+0x33c>)
 800382c:	6d5b      	ldr	r3, [r3, #84]	@ 0x54
 800382e:	009b      	lsls	r3, r3, #2
 8003830:	0899      	lsrs	r1, r3, #2
 8003832:	687b      	ldr	r3, [r7, #4]
 8003834:	6a1a      	ldr	r2, [r3, #32]
 8003836:	4b3f      	ldr	r3, [pc, #252]	@ (8003934 <HAL_RCCEx_PeriphCLKConfig+0x33c>)
 8003838:	430a      	orrs	r2, r1
 800383a:	655a      	str	r2, [r3, #84]	@ 0x54

    if (PeriphClkInit->AdcClockSelection == RCC_ADCCLKSOURCE_PLLADC)
 800383c:	687b      	ldr	r3, [r7, #4]
 800383e:	6a1a      	ldr	r2, [r3, #32]
 8003840:	2380      	movs	r3, #128	@ 0x80
 8003842:	05db      	lsls	r3, r3, #23
 8003844:	429a      	cmp	r2, r3
 8003846:	d106      	bne.n	8003856 <HAL_RCCEx_PeriphCLKConfig+0x25e>
    {
      /* Enable PLLPCLK output */
      __HAL_RCC_PLLCLKOUT_ENABLE(RCC_PLLPCLK);
 8003848:	4b3a      	ldr	r3, [pc, #232]	@ (8003934 <HAL_RCCEx_PeriphCLKConfig+0x33c>)
 800384a:	68da      	ldr	r2, [r3, #12]
 800384c:	4b39      	ldr	r3, [pc, #228]	@ (8003934 <HAL_RCCEx_PeriphCLKConfig+0x33c>)
 800384e:	2180      	movs	r1, #128	@ 0x80
 8003850:	0249      	lsls	r1, r1, #9
 8003852:	430a      	orrs	r2, r1
 8003854:	60da      	str	r2, [r3, #12]
    }
  }

#if defined(CEC)
  /*-------------------------- CEC clock source configuration ---------------------*/
  if (((PeriphClkInit->PeriphClockSelection) & RCC_PERIPHCLK_CEC) == RCC_PERIPHCLK_CEC)
 8003856:	687b      	ldr	r3, [r7, #4]
 8003858:	681a      	ldr	r2, [r3, #0]
 800385a:	2380      	movs	r3, #128	@ 0x80
 800385c:	031b      	lsls	r3, r3, #12
 800385e:	4013      	ands	r3, r2
 8003860:	d009      	beq.n	8003876 <HAL_RCCEx_PeriphCLKConfig+0x27e>
  {
    /* Check the parameters */
    assert_param(IS_RCC_CECCLKSOURCE(PeriphClkInit->CecClockSelection));

    /* Configure the CEC clock source */
    __HAL_RCC_CEC_CONFIG(PeriphClkInit->CecClockSelection);
 8003862:	4b34      	ldr	r3, [pc, #208]	@ (8003934 <HAL_RCCEx_PeriphCLKConfig+0x33c>)
 8003864:	6d5b      	ldr	r3, [r3, #84]	@ 0x54
 8003866:	2240      	movs	r2, #64	@ 0x40
 8003868:	4393      	bics	r3, r2
 800386a:	0019      	movs	r1, r3
 800386c:	687b      	ldr	r3, [r7, #4]
 800386e:	6a5a      	ldr	r2, [r3, #36]	@ 0x24
 8003870:	4b30      	ldr	r3, [pc, #192]	@ (8003934 <HAL_RCCEx_PeriphCLKConfig+0x33c>)
 8003872:	430a      	orrs	r2, r1
 8003874:	655a      	str	r2, [r3, #84]	@ 0x54
  }
#endif /* CEC */

#if defined(RCC_CCIPR_TIM1SEL)
  /*-------------------------- TIM1 clock source configuration ---------------------*/
  if (((PeriphClkInit->PeriphClockSelection) & RCC_PERIPHCLK_TIM1) == RCC_PERIPHCLK_TIM1)
 8003876:	687b      	ldr	r3, [r7, #4]
 8003878:	681a      	ldr	r2, [r3, #0]
 800387a:	2380      	movs	r3, #128	@ 0x80
 800387c:	039b      	lsls	r3, r3, #14
 800387e:	4013      	ands	r3, r2
 8003880:	d016      	beq.n	80038b0 <HAL_RCCEx_PeriphCLKConfig+0x2b8>
  {
    /* Check the parameters */
    assert_param(IS_RCC_TIM1CLKSOURCE(PeriphClkInit->Tim1ClockSelection));

    /* Configure the TIM1 clock source */
    __HAL_RCC_TIM1_CONFIG(PeriphClkInit->Tim1ClockSelection);
 8003882:	4b2c      	ldr	r3, [pc, #176]	@ (8003934 <HAL_RCCEx_PeriphCLKConfig+0x33c>)
 8003884:	6d5b      	ldr	r3, [r3, #84]	@ 0x54
 8003886:	4a35      	ldr	r2, [pc, #212]	@ (800395c <HAL_RCCEx_PeriphCLKConfig+0x364>)
 8003888:	4013      	ands	r3, r2
 800388a:	0019      	movs	r1, r3
 800388c:	687b      	ldr	r3, [r7, #4]
 800388e:	6a9a      	ldr	r2, [r3, #40]	@ 0x28
 8003890:	4b28      	ldr	r3, [pc, #160]	@ (8003934 <HAL_RCCEx_PeriphCLKConfig+0x33c>)
 8003892:	430a      	orrs	r2, r1
 8003894:	655a      	str	r2, [r3, #84]	@ 0x54

    if (PeriphClkInit->Tim1ClockSelection == RCC_TIM1CLKSOURCE_PLL)
 8003896:	687b      	ldr	r3, [r7, #4]
 8003898:	6a9a      	ldr	r2, [r3, #40]	@ 0x28
 800389a:	2380      	movs	r3, #128	@ 0x80
 800389c:	03db      	lsls	r3, r3, #15
 800389e:	429a      	cmp	r2, r3
 80038a0:	d106      	bne.n	80038b0 <HAL_RCCEx_PeriphCLKConfig+0x2b8>
    {
      /* Enable PLLQCLK output */
      __HAL_RCC_PLLCLKOUT_ENABLE(RCC_PLLQCLK);
 80038a2:	4b24      	ldr	r3, [pc, #144]	@ (8003934 <HAL_RCCEx_PeriphCLKConfig+0x33c>)
 80038a4:	68da      	ldr	r2, [r3, #12]
 80038a6:	4b23      	ldr	r3, [pc, #140]	@ (8003934 <HAL_RCCEx_PeriphCLKConfig+0x33c>)
 80038a8:	2180      	movs	r1, #128	@ 0x80
 80038aa:	0449      	lsls	r1, r1, #17
 80038ac:	430a      	orrs	r2, r1
 80038ae:	60da      	str	r2, [r3, #12]
  }
#endif /* RCC_CCIPR_TIM1SEL */

#if defined(RCC_CCIPR_TIM15SEL)
  /*-------------------------- TIM15 clock source configuration ---------------------*/
  if (((PeriphClkInit->PeriphClockSelection) & RCC_PERIPHCLK_TIM15) == RCC_PERIPHCLK_TIM15)
 80038b0:	687b      	ldr	r3, [r7, #4]
 80038b2:	681a      	ldr	r2, [r3, #0]
 80038b4:	2380      	movs	r3, #128	@ 0x80
 80038b6:	03db      	lsls	r3, r3, #15
 80038b8:	4013      	ands	r3, r2
 80038ba:	d016      	beq.n	80038ea <HAL_RCCEx_PeriphCLKConfig+0x2f2>
  {
    /* Check the parameters */
    assert_param(IS_RCC_TIM15CLKSOURCE(PeriphClkInit->Tim15ClockSelection));

    /* Configure the TIM15 clock source */
    __HAL_RCC_TIM15_CONFIG(PeriphClkInit->Tim15ClockSelection);
 80038bc:	4b1d      	ldr	r3, [pc, #116]	@ (8003934 <HAL_RCCEx_PeriphCLKConfig+0x33c>)
 80038be:	6d5b      	ldr	r3, [r3, #84]	@ 0x54
 80038c0:	4a27      	ldr	r2, [pc, #156]	@ (8003960 <HAL_RCCEx_PeriphCLKConfig+0x368>)
 80038c2:	4013      	ands	r3, r2
 80038c4:	0019      	movs	r1, r3
 80038c6:	687b      	ldr	r3, [r7, #4]
 80038c8:	6ada      	ldr	r2, [r3, #44]	@ 0x2c
 80038ca:	4b1a      	ldr	r3, [pc, #104]	@ (8003934 <HAL_RCCEx_PeriphCLKConfig+0x33c>)
 80038cc:	430a      	orrs	r2, r1
 80038ce:	655a      	str	r2, [r3, #84]	@ 0x54

    if (PeriphClkInit->Tim15ClockSelection == RCC_TIM15CLKSOURCE_PLL)
 80038d0:	687b      	ldr	r3, [r7, #4]
 80038d2:	6ada      	ldr	r2, [r3, #44]	@ 0x2c
 80038d4:	2380      	movs	r3, #128	@ 0x80
 80038d6:	045b      	lsls	r3, r3, #17
 80038d8:	429a      	cmp	r2, r3
 80038da:	d106      	bne.n	80038ea <HAL_RCCEx_PeriphCLKConfig+0x2f2>
    {
      /* Enable PLLQCLK output */
      __HAL_RCC_PLLCLKOUT_ENABLE(RCC_PLLQCLK);
 80038dc:	4b15      	ldr	r3, [pc, #84]	@ (8003934 <HAL_RCCEx_PeriphCLKConfig+0x33c>)
 80038de:	68da      	ldr	r2, [r3, #12]
 80038e0:	4b14      	ldr	r3, [pc, #80]	@ (8003934 <HAL_RCCEx_PeriphCLKConfig+0x33c>)
 80038e2:	2180      	movs	r1, #128	@ 0x80
 80038e4:	0449      	lsls	r1, r1, #17
 80038e6:	430a      	orrs	r2, r1
 80038e8:	60da      	str	r2, [r3, #12]
    }
  }
#endif /* RCC_CCIPR_TIM15SEL */

  /*-------------------------- I2S1 clock source configuration ---------------------*/
  if (((PeriphClkInit->PeriphClockSelection) & RCC_PERIPHCLK_I2S1) == RCC_PERIPHCLK_I2S1)
 80038ea:	687b      	ldr	r3, [r7, #4]
 80038ec:	681a      	ldr	r2, [r3, #0]
 80038ee:	2380      	movs	r3, #128	@ 0x80
 80038f0:	011b      	lsls	r3, r3, #4
 80038f2:	4013      	ands	r3, r2
 80038f4:	d016      	beq.n	8003924 <HAL_RCCEx_PeriphCLKConfig+0x32c>
  {
    /* Check the parameters */
    assert_param(IS_RCC_I2S1CLKSOURCE(PeriphClkInit->I2s1ClockSelection));

    /* Configure the I2S1 clock source */
    __HAL_RCC_I2S1_CONFIG(PeriphClkInit->I2s1ClockSelection);
 80038f6:	4b0f      	ldr	r3, [pc, #60]	@ (8003934 <HAL_RCCEx_PeriphCLKConfig+0x33c>)
 80038f8:	6d5b      	ldr	r3, [r3, #84]	@ 0x54
 80038fa:	4a1a      	ldr	r2, [pc, #104]	@ (8003964 <HAL_RCCEx_PeriphCLKConfig+0x36c>)
 80038fc:	4013      	ands	r3, r2
 80038fe:	0019      	movs	r1, r3
 8003900:	687b      	ldr	r3, [r7, #4]
 8003902:	695a      	ldr	r2, [r3, #20]
 8003904:	4b0b      	ldr	r3, [pc, #44]	@ (8003934 <HAL_RCCEx_PeriphCLKConfig+0x33c>)
 8003906:	430a      	orrs	r2, r1
 8003908:	655a      	str	r2, [r3, #84]	@ 0x54

    if (PeriphClkInit->I2s1ClockSelection == RCC_I2S1CLKSOURCE_PLL)
 800390a:	687b      	ldr	r3, [r7, #4]
 800390c:	695a      	ldr	r2, [r3, #20]
 800390e:	2380      	movs	r3, #128	@ 0x80
 8003910:	01db      	lsls	r3, r3, #7
 8003912:	429a      	cmp	r2, r3
 8003914:	d106      	bne.n	8003924 <HAL_RCCEx_PeriphCLKConfig+0x32c>
    {
      /* Enable PLLPCLK output */
      __HAL_RCC_PLLCLKOUT_ENABLE(RCC_PLLPCLK);
 8003916:	4b07      	ldr	r3, [pc, #28]	@ (8003934 <HAL_RCCEx_PeriphCLKConfig+0x33c>)
 8003918:	68da      	ldr	r2, [r3, #12]
 800391a:	4b06      	ldr	r3, [pc, #24]	@ (8003934 <HAL_RCCEx_PeriphCLKConfig+0x33c>)
 800391c:	2180      	movs	r1, #128	@ 0x80
 800391e:	0249      	lsls	r1, r1, #9
 8003920:	430a      	orrs	r2, r1
 8003922:	60da      	str	r2, [r3, #12]
      __HAL_RCC_PLLCLKOUT_ENABLE(RCC_PLLQCLK);
    }
  }
#endif /* FDCAN1 || FDCAN2 */

  return status;
 8003924:	2312      	movs	r3, #18
 8003926:	18fb      	adds	r3, r7, r3
 8003928:	781b      	ldrb	r3, [r3, #0]
}
 800392a:	0018      	movs	r0, r3
 800392c:	46bd      	mov	sp, r7
 800392e:	b006      	add	sp, #24
 8003930:	bd80      	pop	{r7, pc}
 8003932:	46c0      	nop			@ (mov r8, r8)
 8003934:	40021000 	.word	0x40021000
 8003938:	40007000 	.word	0x40007000
 800393c:	fffffcff 	.word	0xfffffcff
 8003940:	fffeffff 	.word	0xfffeffff
 8003944:	00001388 	.word	0x00001388
 8003948:	efffffff 	.word	0xefffffff
 800394c:	fffff3ff 	.word	0xfffff3ff
 8003950:	fff3ffff 	.word	0xfff3ffff
 8003954:	ffcfffff 	.word	0xffcfffff
 8003958:	ffffcfff 	.word	0xffffcfff
 800395c:	ffbfffff 	.word	0xffbfffff
 8003960:	feffffff 	.word	0xfeffffff
 8003964:	ffff3fff 	.word	0xffff3fff

08003968 <HAL_UART_Init>:
  *        parameters in the UART_InitTypeDef and initialize the associated handle.
  * @param huart UART handle.
  * @retval HAL status
  */
HAL_StatusTypeDef HAL_UART_Init(UART_HandleTypeDef *huart)
{
 8003968:	b580      	push	{r7, lr}
 800396a:	b082      	sub	sp, #8
 800396c:	af00      	add	r7, sp, #0
 800396e:	6078      	str	r0, [r7, #4]
  /* Check the UART handle allocation */
  if (huart == NULL)
 8003970:	687b      	ldr	r3, [r7, #4]
 8003972:	2b00      	cmp	r3, #0
 8003974:	d101      	bne.n	800397a <HAL_UART_Init+0x12>
  {
    return HAL_ERROR;
 8003976:	2301      	movs	r3, #1
 8003978:	e046      	b.n	8003a08 <HAL_UART_Init+0xa0>
  {
    /* Check the parameters */
    assert_param((IS_UART_INSTANCE(huart->Instance)) || (IS_LPUART_INSTANCE(huart->Instance)));
  }

  if (huart->gState == HAL_UART_STATE_RESET)
 800397a:	687b      	ldr	r3, [r7, #4]
 800397c:	2288      	movs	r2, #136	@ 0x88
 800397e:	589b      	ldr	r3, [r3, r2]
 8003980:	2b00      	cmp	r3, #0
 8003982:	d107      	bne.n	8003994 <HAL_UART_Init+0x2c>
  {
    /* Allocate lock resource and initialize it */
    huart->Lock = HAL_UNLOCKED;
 8003984:	687b      	ldr	r3, [r7, #4]
 8003986:	2284      	movs	r2, #132	@ 0x84
 8003988:	2100      	movs	r1, #0
 800398a:	5499      	strb	r1, [r3, r2]

    /* Init the low level hardware */
    huart->MspInitCallback(huart);
#else
    /* Init the low level hardware : GPIO, CLOCK */
    HAL_UART_MspInit(huart);
 800398c:	687b      	ldr	r3, [r7, #4]
 800398e:	0018      	movs	r0, r3
 8003990:	f7fd f994 	bl	8000cbc <HAL_UART_MspInit>
#endif /* (USE_HAL_UART_REGISTER_CALLBACKS) */
  }

  huart->gState = HAL_UART_STATE_BUSY;
 8003994:	687b      	ldr	r3, [r7, #4]
 8003996:	2288      	movs	r2, #136	@ 0x88
 8003998:	2124      	movs	r1, #36	@ 0x24
 800399a:	5099      	str	r1, [r3, r2]

  __HAL_UART_DISABLE(huart);
 800399c:	687b      	ldr	r3, [r7, #4]
 800399e:	681b      	ldr	r3, [r3, #0]
 80039a0:	681a      	ldr	r2, [r3, #0]
 80039a2:	687b      	ldr	r3, [r7, #4]
 80039a4:	681b      	ldr	r3, [r3, #0]
 80039a6:	2101      	movs	r1, #1
 80039a8:	438a      	bics	r2, r1
 80039aa:	601a      	str	r2, [r3, #0]

  /* Perform advanced settings configuration */
  /* For some items, configuration requires to be done prior TE and RE bits are set */
  if (huart->AdvancedInit.AdvFeatureInit != UART_ADVFEATURE_NO_INIT)
 80039ac:	687b      	ldr	r3, [r7, #4]
 80039ae:	6a9b      	ldr	r3, [r3, #40]	@ 0x28
 80039b0:	2b00      	cmp	r3, #0
 80039b2:	d003      	beq.n	80039bc <HAL_UART_Init+0x54>
  {
    UART_AdvFeatureConfig(huart);
 80039b4:	687b      	ldr	r3, [r7, #4]
 80039b6:	0018      	movs	r0, r3
 80039b8:	f000 fb8e 	bl	80040d8 <UART_AdvFeatureConfig>
  }

  /* Set the UART Communication parameters */
  if (UART_SetConfig(huart) == HAL_ERROR)
 80039bc:	687b      	ldr	r3, [r7, #4]
 80039be:	0018      	movs	r0, r3
 80039c0:	f000 f8cc 	bl	8003b5c <UART_SetConfig>
 80039c4:	0003      	movs	r3, r0
 80039c6:	2b01      	cmp	r3, #1
 80039c8:	d101      	bne.n	80039ce <HAL_UART_Init+0x66>
  {
    return HAL_ERROR;
 80039ca:	2301      	movs	r3, #1
 80039cc:	e01c      	b.n	8003a08 <HAL_UART_Init+0xa0>
  }

  /* In asynchronous mode, the following bits must be kept cleared:
  - LINEN and CLKEN bits in the USART_CR2 register,
  - SCEN, HDSEL and IREN  bits in the USART_CR3 register.*/
  CLEAR_BIT(huart->Instance->CR2, (USART_CR2_LINEN | USART_CR2_CLKEN));
 80039ce:	687b      	ldr	r3, [r7, #4]
 80039d0:	681b      	ldr	r3, [r3, #0]
 80039d2:	685a      	ldr	r2, [r3, #4]
 80039d4:	687b      	ldr	r3, [r7, #4]
 80039d6:	681b      	ldr	r3, [r3, #0]
 80039d8:	490d      	ldr	r1, [pc, #52]	@ (8003a10 <HAL_UART_Init+0xa8>)
 80039da:	400a      	ands	r2, r1
 80039dc:	605a      	str	r2, [r3, #4]
  CLEAR_BIT(huart->Instance->CR3, (USART_CR3_SCEN | USART_CR3_HDSEL | USART_CR3_IREN));
 80039de:	687b      	ldr	r3, [r7, #4]
 80039e0:	681b      	ldr	r3, [r3, #0]
 80039e2:	689a      	ldr	r2, [r3, #8]
 80039e4:	687b      	ldr	r3, [r7, #4]
 80039e6:	681b      	ldr	r3, [r3, #0]
 80039e8:	212a      	movs	r1, #42	@ 0x2a
 80039ea:	438a      	bics	r2, r1
 80039ec:	609a      	str	r2, [r3, #8]

  __HAL_UART_ENABLE(huart);
 80039ee:	687b      	ldr	r3, [r7, #4]
 80039f0:	681b      	ldr	r3, [r3, #0]
 80039f2:	681a      	ldr	r2, [r3, #0]
 80039f4:	687b      	ldr	r3, [r7, #4]
 80039f6:	681b      	ldr	r3, [r3, #0]
 80039f8:	2101      	movs	r1, #1
 80039fa:	430a      	orrs	r2, r1
 80039fc:	601a      	str	r2, [r3, #0]

  /* TEACK and/or REACK to check before moving huart->gState and huart->RxState to Ready */
  return (UART_CheckIdleState(huart));
 80039fe:	687b      	ldr	r3, [r7, #4]
 8003a00:	0018      	movs	r0, r3
 8003a02:	f000 fc1d 	bl	8004240 <UART_CheckIdleState>
 8003a06:	0003      	movs	r3, r0
}
 8003a08:	0018      	movs	r0, r3
 8003a0a:	46bd      	mov	sp, r7
 8003a0c:	b002      	add	sp, #8
 8003a0e:	bd80      	pop	{r7, pc}
 8003a10:	ffffb7ff 	.word	0xffffb7ff

08003a14 <HAL_UART_Transmit>:
  * @param Size    Amount of data elements (u8 or u16) to be sent.
  * @param Timeout Timeout duration.
  * @retval HAL status
  */
HAL_StatusTypeDef HAL_UART_Transmit(UART_HandleTypeDef *huart, const uint8_t *pData, uint16_t Size, uint32_t Timeout)
{
 8003a14:	b580      	push	{r7, lr}
 8003a16:	b08a      	sub	sp, #40	@ 0x28
 8003a18:	af02      	add	r7, sp, #8
 8003a1a:	60f8      	str	r0, [r7, #12]
 8003a1c:	60b9      	str	r1, [r7, #8]
 8003a1e:	603b      	str	r3, [r7, #0]
 8003a20:	1dbb      	adds	r3, r7, #6
 8003a22:	801a      	strh	r2, [r3, #0]
  const uint8_t  *pdata8bits;
  const uint16_t *pdata16bits;
  uint32_t tickstart;

  /* Check that a Tx process is not already ongoing */
  if (huart->gState == HAL_UART_STATE_READY)
 8003a24:	68fb      	ldr	r3, [r7, #12]
 8003a26:	2288      	movs	r2, #136	@ 0x88
 8003a28:	589b      	ldr	r3, [r3, r2]
 8003a2a:	2b20      	cmp	r3, #32
 8003a2c:	d000      	beq.n	8003a30 <HAL_UART_Transmit+0x1c>
 8003a2e:	e090      	b.n	8003b52 <HAL_UART_Transmit+0x13e>
  {
    if ((pData == NULL) || (Size == 0U))
 8003a30:	68bb      	ldr	r3, [r7, #8]
 8003a32:	2b00      	cmp	r3, #0
 8003a34:	d003      	beq.n	8003a3e <HAL_UART_Transmit+0x2a>
 8003a36:	1dbb      	adds	r3, r7, #6
 8003a38:	881b      	ldrh	r3, [r3, #0]
 8003a3a:	2b00      	cmp	r3, #0
 8003a3c:	d101      	bne.n	8003a42 <HAL_UART_Transmit+0x2e>
    {
      return  HAL_ERROR;
 8003a3e:	2301      	movs	r3, #1
 8003a40:	e088      	b.n	8003b54 <HAL_UART_Transmit+0x140>
    }

    /* In case of 9bits/No Parity transfer, pData buffer provided as input parameter
       should be aligned on a u16 frontier, as data to be filled into TDR will be
       handled through a u16 cast. */
    if ((huart->Init.WordLength == UART_WORDLENGTH_9B) && (huart->Init.Parity == UART_PARITY_NONE))
 8003a42:	68fb      	ldr	r3, [r7, #12]
 8003a44:	689a      	ldr	r2, [r3, #8]
 8003a46:	2380      	movs	r3, #128	@ 0x80
 8003a48:	015b      	lsls	r3, r3, #5
 8003a4a:	429a      	cmp	r2, r3
 8003a4c:	d109      	bne.n	8003a62 <HAL_UART_Transmit+0x4e>
 8003a4e:	68fb      	ldr	r3, [r7, #12]
 8003a50:	691b      	ldr	r3, [r3, #16]
 8003a52:	2b00      	cmp	r3, #0
 8003a54:	d105      	bne.n	8003a62 <HAL_UART_Transmit+0x4e>
    {
      if ((((uint32_t)pData) & 1U) != 0U)
 8003a56:	68bb      	ldr	r3, [r7, #8]
 8003a58:	2201      	movs	r2, #1
 8003a5a:	4013      	ands	r3, r2
 8003a5c:	d001      	beq.n	8003a62 <HAL_UART_Transmit+0x4e>
      {
        return  HAL_ERROR;
 8003a5e:	2301      	movs	r3, #1
 8003a60:	e078      	b.n	8003b54 <HAL_UART_Transmit+0x140>
      }
    }

    huart->ErrorCode = HAL_UART_ERROR_NONE;
 8003a62:	68fb      	ldr	r3, [r7, #12]
 8003a64:	2290      	movs	r2, #144	@ 0x90
 8003a66:	2100      	movs	r1, #0
 8003a68:	5099      	str	r1, [r3, r2]
    huart->gState = HAL_UART_STATE_BUSY_TX;
 8003a6a:	68fb      	ldr	r3, [r7, #12]
 8003a6c:	2288      	movs	r2, #136	@ 0x88
 8003a6e:	2121      	movs	r1, #33	@ 0x21
 8003a70:	5099      	str	r1, [r3, r2]

    /* Init tickstart for timeout management */
    tickstart = HAL_GetTick();
 8003a72:	f7fd fa2d 	bl	8000ed0 <HAL_GetTick>
 8003a76:	0003      	movs	r3, r0
 8003a78:	617b      	str	r3, [r7, #20]

    huart->TxXferSize  = Size;
 8003a7a:	68fb      	ldr	r3, [r7, #12]
 8003a7c:	1dba      	adds	r2, r7, #6
 8003a7e:	2154      	movs	r1, #84	@ 0x54
 8003a80:	8812      	ldrh	r2, [r2, #0]
 8003a82:	525a      	strh	r2, [r3, r1]
    huart->TxXferCount = Size;
 8003a84:	68fb      	ldr	r3, [r7, #12]
 8003a86:	1dba      	adds	r2, r7, #6
 8003a88:	2156      	movs	r1, #86	@ 0x56
 8003a8a:	8812      	ldrh	r2, [r2, #0]
 8003a8c:	525a      	strh	r2, [r3, r1]

    /* In case of 9bits/No Parity transfer, pData needs to be handled as a uint16_t pointer */
    if ((huart->Init.WordLength == UART_WORDLENGTH_9B) && (huart->Init.Parity == UART_PARITY_NONE))
 8003a8e:	68fb      	ldr	r3, [r7, #12]
 8003a90:	689a      	ldr	r2, [r3, #8]
 8003a92:	2380      	movs	r3, #128	@ 0x80
 8003a94:	015b      	lsls	r3, r3, #5
 8003a96:	429a      	cmp	r2, r3
 8003a98:	d108      	bne.n	8003aac <HAL_UART_Transmit+0x98>
 8003a9a:	68fb      	ldr	r3, [r7, #12]
 8003a9c:	691b      	ldr	r3, [r3, #16]
 8003a9e:	2b00      	cmp	r3, #0
 8003aa0:	d104      	bne.n	8003aac <HAL_UART_Transmit+0x98>
    {
      pdata8bits  = NULL;
 8003aa2:	2300      	movs	r3, #0
 8003aa4:	61fb      	str	r3, [r7, #28]
      pdata16bits = (const uint16_t *) pData;
 8003aa6:	68bb      	ldr	r3, [r7, #8]
 8003aa8:	61bb      	str	r3, [r7, #24]
 8003aaa:	e003      	b.n	8003ab4 <HAL_UART_Transmit+0xa0>
    }
    else
    {
      pdata8bits  = pData;
 8003aac:	68bb      	ldr	r3, [r7, #8]
 8003aae:	61fb      	str	r3, [r7, #28]
      pdata16bits = NULL;
 8003ab0:	2300      	movs	r3, #0
 8003ab2:	61bb      	str	r3, [r7, #24]
    }

    while (huart->TxXferCount > 0U)
 8003ab4:	e030      	b.n	8003b18 <HAL_UART_Transmit+0x104>
    {
      if (UART_WaitOnFlagUntilTimeout(huart, UART_FLAG_TXE, RESET, tickstart, Timeout) != HAL_OK)
 8003ab6:	697a      	ldr	r2, [r7, #20]
 8003ab8:	68f8      	ldr	r0, [r7, #12]
 8003aba:	683b      	ldr	r3, [r7, #0]
 8003abc:	9300      	str	r3, [sp, #0]
 8003abe:	0013      	movs	r3, r2
 8003ac0:	2200      	movs	r2, #0
 8003ac2:	2180      	movs	r1, #128	@ 0x80
 8003ac4:	f000 fc66 	bl	8004394 <UART_WaitOnFlagUntilTimeout>
 8003ac8:	1e03      	subs	r3, r0, #0
 8003aca:	d005      	beq.n	8003ad8 <HAL_UART_Transmit+0xc4>
      {

        huart->gState = HAL_UART_STATE_READY;
 8003acc:	68fb      	ldr	r3, [r7, #12]
 8003ace:	2288      	movs	r2, #136	@ 0x88
 8003ad0:	2120      	movs	r1, #32
 8003ad2:	5099      	str	r1, [r3, r2]

        return HAL_TIMEOUT;
 8003ad4:	2303      	movs	r3, #3
 8003ad6:	e03d      	b.n	8003b54 <HAL_UART_Transmit+0x140>
      }
      if (pdata8bits == NULL)
 8003ad8:	69fb      	ldr	r3, [r7, #28]
 8003ada:	2b00      	cmp	r3, #0
 8003adc:	d10b      	bne.n	8003af6 <HAL_UART_Transmit+0xe2>
      {
        huart->Instance->TDR = (uint16_t)(*pdata16bits & 0x01FFU);
 8003ade:	69bb      	ldr	r3, [r7, #24]
 8003ae0:	881b      	ldrh	r3, [r3, #0]
 8003ae2:	001a      	movs	r2, r3
 8003ae4:	68fb      	ldr	r3, [r7, #12]
 8003ae6:	681b      	ldr	r3, [r3, #0]
 8003ae8:	05d2      	lsls	r2, r2, #23
 8003aea:	0dd2      	lsrs	r2, r2, #23
 8003aec:	629a      	str	r2, [r3, #40]	@ 0x28
        pdata16bits++;
 8003aee:	69bb      	ldr	r3, [r7, #24]
 8003af0:	3302      	adds	r3, #2
 8003af2:	61bb      	str	r3, [r7, #24]
 8003af4:	e007      	b.n	8003b06 <HAL_UART_Transmit+0xf2>
      }
      else
      {
        huart->Instance->TDR = (uint8_t)(*pdata8bits & 0xFFU);
 8003af6:	69fb      	ldr	r3, [r7, #28]
 8003af8:	781a      	ldrb	r2, [r3, #0]
 8003afa:	68fb      	ldr	r3, [r7, #12]
 8003afc:	681b      	ldr	r3, [r3, #0]
 8003afe:	629a      	str	r2, [r3, #40]	@ 0x28
        pdata8bits++;
 8003b00:	69fb      	ldr	r3, [r7, #28]
 8003b02:	3301      	adds	r3, #1
 8003b04:	61fb      	str	r3, [r7, #28]
      }
      huart->TxXferCount--;
 8003b06:	68fb      	ldr	r3, [r7, #12]
 8003b08:	2256      	movs	r2, #86	@ 0x56
 8003b0a:	5a9b      	ldrh	r3, [r3, r2]
 8003b0c:	b29b      	uxth	r3, r3
 8003b0e:	3b01      	subs	r3, #1
 8003b10:	b299      	uxth	r1, r3
 8003b12:	68fb      	ldr	r3, [r7, #12]
 8003b14:	2256      	movs	r2, #86	@ 0x56
 8003b16:	5299      	strh	r1, [r3, r2]
    while (huart->TxXferCount > 0U)
 8003b18:	68fb      	ldr	r3, [r7, #12]
 8003b1a:	2256      	movs	r2, #86	@ 0x56
 8003b1c:	5a9b      	ldrh	r3, [r3, r2]
 8003b1e:	b29b      	uxth	r3, r3
 8003b20:	2b00      	cmp	r3, #0
 8003b22:	d1c8      	bne.n	8003ab6 <HAL_UART_Transmit+0xa2>
    }

    if (UART_WaitOnFlagUntilTimeout(huart, UART_FLAG_TC, RESET, tickstart, Timeout) != HAL_OK)
 8003b24:	697a      	ldr	r2, [r7, #20]
 8003b26:	68f8      	ldr	r0, [r7, #12]
 8003b28:	683b      	ldr	r3, [r7, #0]
 8003b2a:	9300      	str	r3, [sp, #0]
 8003b2c:	0013      	movs	r3, r2
 8003b2e:	2200      	movs	r2, #0
 8003b30:	2140      	movs	r1, #64	@ 0x40
 8003b32:	f000 fc2f 	bl	8004394 <UART_WaitOnFlagUntilTimeout>
 8003b36:	1e03      	subs	r3, r0, #0
 8003b38:	d005      	beq.n	8003b46 <HAL_UART_Transmit+0x132>
    {
      huart->gState = HAL_UART_STATE_READY;
 8003b3a:	68fb      	ldr	r3, [r7, #12]
 8003b3c:	2288      	movs	r2, #136	@ 0x88
 8003b3e:	2120      	movs	r1, #32
 8003b40:	5099      	str	r1, [r3, r2]

      return HAL_TIMEOUT;
 8003b42:	2303      	movs	r3, #3
 8003b44:	e006      	b.n	8003b54 <HAL_UART_Transmit+0x140>
    }

    /* At end of Tx process, restore huart->gState to Ready */
    huart->gState = HAL_UART_STATE_READY;
 8003b46:	68fb      	ldr	r3, [r7, #12]
 8003b48:	2288      	movs	r2, #136	@ 0x88
 8003b4a:	2120      	movs	r1, #32
 8003b4c:	5099      	str	r1, [r3, r2]

    return HAL_OK;
 8003b4e:	2300      	movs	r3, #0
 8003b50:	e000      	b.n	8003b54 <HAL_UART_Transmit+0x140>
  }
  else
  {
    return HAL_BUSY;
 8003b52:	2302      	movs	r3, #2
  }
}
 8003b54:	0018      	movs	r0, r3
 8003b56:	46bd      	mov	sp, r7
 8003b58:	b008      	add	sp, #32
 8003b5a:	bd80      	pop	{r7, pc}

08003b5c <UART_SetConfig>:
  * @brief Configure the UART peripheral.
  * @param huart UART handle.
  * @retval HAL status
  */
HAL_StatusTypeDef UART_SetConfig(UART_HandleTypeDef *huart)
{
 8003b5c:	b5b0      	push	{r4, r5, r7, lr}
 8003b5e:	b090      	sub	sp, #64	@ 0x40
 8003b60:	af00      	add	r7, sp, #0
 8003b62:	6278      	str	r0, [r7, #36]	@ 0x24
  uint32_t tmpreg;
  uint16_t brrtemp;
  UART_ClockSourceTypeDef clocksource;
  uint32_t usartdiv;
  HAL_StatusTypeDef ret               = HAL_OK;
 8003b64:	231a      	movs	r3, #26
 8003b66:	2220      	movs	r2, #32
 8003b68:	189b      	adds	r3, r3, r2
 8003b6a:	19db      	adds	r3, r3, r7
 8003b6c:	2200      	movs	r2, #0
 8003b6e:	701a      	strb	r2, [r3, #0]
  *  the UART Word Length, Parity, Mode and oversampling:
  *  set the M bits according to huart->Init.WordLength value
  *  set PCE and PS bits according to huart->Init.Parity value
  *  set TE and RE bits according to huart->Init.Mode value
  *  set OVER8 bit according to huart->Init.OverSampling value */
  tmpreg = (uint32_t)huart->Init.WordLength | huart->Init.Parity | huart->Init.Mode | huart->Init.OverSampling ;
 8003b70:	6a7b      	ldr	r3, [r7, #36]	@ 0x24
 8003b72:	689a      	ldr	r2, [r3, #8]
 8003b74:	6a7b      	ldr	r3, [r7, #36]	@ 0x24
 8003b76:	691b      	ldr	r3, [r3, #16]
 8003b78:	431a      	orrs	r2, r3
 8003b7a:	6a7b      	ldr	r3, [r7, #36]	@ 0x24
 8003b7c:	695b      	ldr	r3, [r3, #20]
 8003b7e:	431a      	orrs	r2, r3
 8003b80:	6a7b      	ldr	r3, [r7, #36]	@ 0x24
 8003b82:	69db      	ldr	r3, [r3, #28]
 8003b84:	4313      	orrs	r3, r2
 8003b86:	63fb      	str	r3, [r7, #60]	@ 0x3c
  MODIFY_REG(huart->Instance->CR1, USART_CR1_FIELDS, tmpreg);
 8003b88:	6a7b      	ldr	r3, [r7, #36]	@ 0x24
 8003b8a:	681b      	ldr	r3, [r3, #0]
 8003b8c:	681b      	ldr	r3, [r3, #0]
 8003b8e:	4aaf      	ldr	r2, [pc, #700]	@ (8003e4c <UART_SetConfig+0x2f0>)
 8003b90:	4013      	ands	r3, r2
 8003b92:	0019      	movs	r1, r3
 8003b94:	6a7b      	ldr	r3, [r7, #36]	@ 0x24
 8003b96:	681a      	ldr	r2, [r3, #0]
 8003b98:	6bfb      	ldr	r3, [r7, #60]	@ 0x3c
 8003b9a:	430b      	orrs	r3, r1
 8003b9c:	6013      	str	r3, [r2, #0]

  /*-------------------------- USART CR2 Configuration -----------------------*/
  /* Configure the UART Stop Bits: Set STOP[13:12] bits according
  * to huart->Init.StopBits value */
  MODIFY_REG(huart->Instance->CR2, USART_CR2_STOP, huart->Init.StopBits);
 8003b9e:	6a7b      	ldr	r3, [r7, #36]	@ 0x24
 8003ba0:	681b      	ldr	r3, [r3, #0]
 8003ba2:	685b      	ldr	r3, [r3, #4]
 8003ba4:	4aaa      	ldr	r2, [pc, #680]	@ (8003e50 <UART_SetConfig+0x2f4>)
 8003ba6:	4013      	ands	r3, r2
 8003ba8:	0018      	movs	r0, r3
 8003baa:	6a7b      	ldr	r3, [r7, #36]	@ 0x24
 8003bac:	68d9      	ldr	r1, [r3, #12]
 8003bae:	6a7b      	ldr	r3, [r7, #36]	@ 0x24
 8003bb0:	681a      	ldr	r2, [r3, #0]
 8003bb2:	0003      	movs	r3, r0
 8003bb4:	430b      	orrs	r3, r1
 8003bb6:	6053      	str	r3, [r2, #4]
  /* Configure
  * - UART HardWare Flow Control: set CTSE and RTSE bits according
  *   to huart->Init.HwFlowCtl value
  * - one-bit sampling method versus three samples' majority rule according
  *   to huart->Init.OneBitSampling (not applicable to LPUART) */
  tmpreg = (uint32_t)huart->Init.HwFlowCtl;
 8003bb8:	6a7b      	ldr	r3, [r7, #36]	@ 0x24
 8003bba:	699b      	ldr	r3, [r3, #24]
 8003bbc:	63fb      	str	r3, [r7, #60]	@ 0x3c

  if (!(UART_INSTANCE_LOWPOWER(huart)))
 8003bbe:	6a7b      	ldr	r3, [r7, #36]	@ 0x24
 8003bc0:	681b      	ldr	r3, [r3, #0]
 8003bc2:	4aa4      	ldr	r2, [pc, #656]	@ (8003e54 <UART_SetConfig+0x2f8>)
 8003bc4:	4293      	cmp	r3, r2
 8003bc6:	d004      	beq.n	8003bd2 <UART_SetConfig+0x76>
  {
    tmpreg |= huart->Init.OneBitSampling;
 8003bc8:	6a7b      	ldr	r3, [r7, #36]	@ 0x24
 8003bca:	6a1b      	ldr	r3, [r3, #32]
 8003bcc:	6bfa      	ldr	r2, [r7, #60]	@ 0x3c
 8003bce:	4313      	orrs	r3, r2
 8003bd0:	63fb      	str	r3, [r7, #60]	@ 0x3c
  }
  MODIFY_REG(huart->Instance->CR3, USART_CR3_FIELDS, tmpreg);
 8003bd2:	6a7b      	ldr	r3, [r7, #36]	@ 0x24
 8003bd4:	681b      	ldr	r3, [r3, #0]
 8003bd6:	689b      	ldr	r3, [r3, #8]
 8003bd8:	4a9f      	ldr	r2, [pc, #636]	@ (8003e58 <UART_SetConfig+0x2fc>)
 8003bda:	4013      	ands	r3, r2
 8003bdc:	0019      	movs	r1, r3
 8003bde:	6a7b      	ldr	r3, [r7, #36]	@ 0x24
 8003be0:	681a      	ldr	r2, [r3, #0]
 8003be2:	6bfb      	ldr	r3, [r7, #60]	@ 0x3c
 8003be4:	430b      	orrs	r3, r1
 8003be6:	6093      	str	r3, [r2, #8]

  /*-------------------------- USART PRESC Configuration -----------------------*/
  /* Configure
  * - UART Clock Prescaler : set PRESCALER according to huart->Init.ClockPrescaler value */
  MODIFY_REG(huart->Instance->PRESC, USART_PRESC_PRESCALER, huart->Init.ClockPrescaler);
 8003be8:	6a7b      	ldr	r3, [r7, #36]	@ 0x24
 8003bea:	681b      	ldr	r3, [r3, #0]
 8003bec:	6adb      	ldr	r3, [r3, #44]	@ 0x2c
 8003bee:	220f      	movs	r2, #15
 8003bf0:	4393      	bics	r3, r2
 8003bf2:	0018      	movs	r0, r3
 8003bf4:	6a7b      	ldr	r3, [r7, #36]	@ 0x24
 8003bf6:	6a59      	ldr	r1, [r3, #36]	@ 0x24
 8003bf8:	6a7b      	ldr	r3, [r7, #36]	@ 0x24
 8003bfa:	681a      	ldr	r2, [r3, #0]
 8003bfc:	0003      	movs	r3, r0
 8003bfe:	430b      	orrs	r3, r1
 8003c00:	62d3      	str	r3, [r2, #44]	@ 0x2c

  /*-------------------------- USART BRR Configuration -----------------------*/
  UART_GETCLOCKSOURCE(huart, clocksource);
 8003c02:	6a7b      	ldr	r3, [r7, #36]	@ 0x24
 8003c04:	681b      	ldr	r3, [r3, #0]
 8003c06:	4a95      	ldr	r2, [pc, #596]	@ (8003e5c <UART_SetConfig+0x300>)
 8003c08:	4293      	cmp	r3, r2
 8003c0a:	d131      	bne.n	8003c70 <UART_SetConfig+0x114>
 8003c0c:	4b94      	ldr	r3, [pc, #592]	@ (8003e60 <UART_SetConfig+0x304>)
 8003c0e:	6d5b      	ldr	r3, [r3, #84]	@ 0x54
 8003c10:	2203      	movs	r2, #3
 8003c12:	4013      	ands	r3, r2
 8003c14:	2b03      	cmp	r3, #3
 8003c16:	d01d      	beq.n	8003c54 <UART_SetConfig+0xf8>
 8003c18:	d823      	bhi.n	8003c62 <UART_SetConfig+0x106>
 8003c1a:	2b02      	cmp	r3, #2
 8003c1c:	d00c      	beq.n	8003c38 <UART_SetConfig+0xdc>
 8003c1e:	d820      	bhi.n	8003c62 <UART_SetConfig+0x106>
 8003c20:	2b00      	cmp	r3, #0
 8003c22:	d002      	beq.n	8003c2a <UART_SetConfig+0xce>
 8003c24:	2b01      	cmp	r3, #1
 8003c26:	d00e      	beq.n	8003c46 <UART_SetConfig+0xea>
 8003c28:	e01b      	b.n	8003c62 <UART_SetConfig+0x106>
 8003c2a:	231b      	movs	r3, #27
 8003c2c:	2220      	movs	r2, #32
 8003c2e:	189b      	adds	r3, r3, r2
 8003c30:	19db      	adds	r3, r3, r7
 8003c32:	2200      	movs	r2, #0
 8003c34:	701a      	strb	r2, [r3, #0]
 8003c36:	e0b4      	b.n	8003da2 <UART_SetConfig+0x246>
 8003c38:	231b      	movs	r3, #27
 8003c3a:	2220      	movs	r2, #32
 8003c3c:	189b      	adds	r3, r3, r2
 8003c3e:	19db      	adds	r3, r3, r7
 8003c40:	2202      	movs	r2, #2
 8003c42:	701a      	strb	r2, [r3, #0]
 8003c44:	e0ad      	b.n	8003da2 <UART_SetConfig+0x246>
 8003c46:	231b      	movs	r3, #27
 8003c48:	2220      	movs	r2, #32
 8003c4a:	189b      	adds	r3, r3, r2
 8003c4c:	19db      	adds	r3, r3, r7
 8003c4e:	2204      	movs	r2, #4
 8003c50:	701a      	strb	r2, [r3, #0]
 8003c52:	e0a6      	b.n	8003da2 <UART_SetConfig+0x246>
 8003c54:	231b      	movs	r3, #27
 8003c56:	2220      	movs	r2, #32
 8003c58:	189b      	adds	r3, r3, r2
 8003c5a:	19db      	adds	r3, r3, r7
 8003c5c:	2208      	movs	r2, #8
 8003c5e:	701a      	strb	r2, [r3, #0]
 8003c60:	e09f      	b.n	8003da2 <UART_SetConfig+0x246>
 8003c62:	231b      	movs	r3, #27
 8003c64:	2220      	movs	r2, #32
 8003c66:	189b      	adds	r3, r3, r2
 8003c68:	19db      	adds	r3, r3, r7
 8003c6a:	2210      	movs	r2, #16
 8003c6c:	701a      	strb	r2, [r3, #0]
 8003c6e:	e098      	b.n	8003da2 <UART_SetConfig+0x246>
 8003c70:	6a7b      	ldr	r3, [r7, #36]	@ 0x24
 8003c72:	681b      	ldr	r3, [r3, #0]
 8003c74:	4a7b      	ldr	r2, [pc, #492]	@ (8003e64 <UART_SetConfig+0x308>)
 8003c76:	4293      	cmp	r3, r2
 8003c78:	d131      	bne.n	8003cde <UART_SetConfig+0x182>
 8003c7a:	4b79      	ldr	r3, [pc, #484]	@ (8003e60 <UART_SetConfig+0x304>)
 8003c7c:	6d5b      	ldr	r3, [r3, #84]	@ 0x54
 8003c7e:	220c      	movs	r2, #12
 8003c80:	4013      	ands	r3, r2
 8003c82:	2b0c      	cmp	r3, #12
 8003c84:	d01d      	beq.n	8003cc2 <UART_SetConfig+0x166>
 8003c86:	d823      	bhi.n	8003cd0 <UART_SetConfig+0x174>
 8003c88:	2b08      	cmp	r3, #8
 8003c8a:	d00c      	beq.n	8003ca6 <UART_SetConfig+0x14a>
 8003c8c:	d820      	bhi.n	8003cd0 <UART_SetConfig+0x174>
 8003c8e:	2b00      	cmp	r3, #0
 8003c90:	d002      	beq.n	8003c98 <UART_SetConfig+0x13c>
 8003c92:	2b04      	cmp	r3, #4
 8003c94:	d00e      	beq.n	8003cb4 <UART_SetConfig+0x158>
 8003c96:	e01b      	b.n	8003cd0 <UART_SetConfig+0x174>
 8003c98:	231b      	movs	r3, #27
 8003c9a:	2220      	movs	r2, #32
 8003c9c:	189b      	adds	r3, r3, r2
 8003c9e:	19db      	adds	r3, r3, r7
 8003ca0:	2200      	movs	r2, #0
 8003ca2:	701a      	strb	r2, [r3, #0]
 8003ca4:	e07d      	b.n	8003da2 <UART_SetConfig+0x246>
 8003ca6:	231b      	movs	r3, #27
 8003ca8:	2220      	movs	r2, #32
 8003caa:	189b      	adds	r3, r3, r2
 8003cac:	19db      	adds	r3, r3, r7
 8003cae:	2202      	movs	r2, #2
 8003cb0:	701a      	strb	r2, [r3, #0]
 8003cb2:	e076      	b.n	8003da2 <UART_SetConfig+0x246>
 8003cb4:	231b      	movs	r3, #27
 8003cb6:	2220      	movs	r2, #32
 8003cb8:	189b      	adds	r3, r3, r2
 8003cba:	19db      	adds	r3, r3, r7
 8003cbc:	2204      	movs	r2, #4
 8003cbe:	701a      	strb	r2, [r3, #0]
 8003cc0:	e06f      	b.n	8003da2 <UART_SetConfig+0x246>
 8003cc2:	231b      	movs	r3, #27
 8003cc4:	2220      	movs	r2, #32
 8003cc6:	189b      	adds	r3, r3, r2
 8003cc8:	19db      	adds	r3, r3, r7
 8003cca:	2208      	movs	r2, #8
 8003ccc:	701a      	strb	r2, [r3, #0]
 8003cce:	e068      	b.n	8003da2 <UART_SetConfig+0x246>
 8003cd0:	231b      	movs	r3, #27
 8003cd2:	2220      	movs	r2, #32
 8003cd4:	189b      	adds	r3, r3, r2
 8003cd6:	19db      	adds	r3, r3, r7
 8003cd8:	2210      	movs	r2, #16
 8003cda:	701a      	strb	r2, [r3, #0]
 8003cdc:	e061      	b.n	8003da2 <UART_SetConfig+0x246>
 8003cde:	6a7b      	ldr	r3, [r7, #36]	@ 0x24
 8003ce0:	681b      	ldr	r3, [r3, #0]
 8003ce2:	4a61      	ldr	r2, [pc, #388]	@ (8003e68 <UART_SetConfig+0x30c>)
 8003ce4:	4293      	cmp	r3, r2
 8003ce6:	d106      	bne.n	8003cf6 <UART_SetConfig+0x19a>
 8003ce8:	231b      	movs	r3, #27
 8003cea:	2220      	movs	r2, #32
 8003cec:	189b      	adds	r3, r3, r2
 8003cee:	19db      	adds	r3, r3, r7
 8003cf0:	2200      	movs	r2, #0
 8003cf2:	701a      	strb	r2, [r3, #0]
 8003cf4:	e055      	b.n	8003da2 <UART_SetConfig+0x246>
 8003cf6:	6a7b      	ldr	r3, [r7, #36]	@ 0x24
 8003cf8:	681b      	ldr	r3, [r3, #0]
 8003cfa:	4a5c      	ldr	r2, [pc, #368]	@ (8003e6c <UART_SetConfig+0x310>)
 8003cfc:	4293      	cmp	r3, r2
 8003cfe:	d106      	bne.n	8003d0e <UART_SetConfig+0x1b2>
 8003d00:	231b      	movs	r3, #27
 8003d02:	2220      	movs	r2, #32
 8003d04:	189b      	adds	r3, r3, r2
 8003d06:	19db      	adds	r3, r3, r7
 8003d08:	2200      	movs	r2, #0
 8003d0a:	701a      	strb	r2, [r3, #0]
 8003d0c:	e049      	b.n	8003da2 <UART_SetConfig+0x246>
 8003d0e:	6a7b      	ldr	r3, [r7, #36]	@ 0x24
 8003d10:	681b      	ldr	r3, [r3, #0]
 8003d12:	4a50      	ldr	r2, [pc, #320]	@ (8003e54 <UART_SetConfig+0x2f8>)
 8003d14:	4293      	cmp	r3, r2
 8003d16:	d13e      	bne.n	8003d96 <UART_SetConfig+0x23a>
 8003d18:	4b51      	ldr	r3, [pc, #324]	@ (8003e60 <UART_SetConfig+0x304>)
 8003d1a:	6d5a      	ldr	r2, [r3, #84]	@ 0x54
 8003d1c:	23c0      	movs	r3, #192	@ 0xc0
 8003d1e:	011b      	lsls	r3, r3, #4
 8003d20:	4013      	ands	r3, r2
 8003d22:	22c0      	movs	r2, #192	@ 0xc0
 8003d24:	0112      	lsls	r2, r2, #4
 8003d26:	4293      	cmp	r3, r2
 8003d28:	d027      	beq.n	8003d7a <UART_SetConfig+0x21e>
 8003d2a:	22c0      	movs	r2, #192	@ 0xc0
 8003d2c:	0112      	lsls	r2, r2, #4
 8003d2e:	4293      	cmp	r3, r2
 8003d30:	d82a      	bhi.n	8003d88 <UART_SetConfig+0x22c>
 8003d32:	2280      	movs	r2, #128	@ 0x80
 8003d34:	0112      	lsls	r2, r2, #4
 8003d36:	4293      	cmp	r3, r2
 8003d38:	d011      	beq.n	8003d5e <UART_SetConfig+0x202>
 8003d3a:	2280      	movs	r2, #128	@ 0x80
 8003d3c:	0112      	lsls	r2, r2, #4
 8003d3e:	4293      	cmp	r3, r2
 8003d40:	d822      	bhi.n	8003d88 <UART_SetConfig+0x22c>
 8003d42:	2b00      	cmp	r3, #0
 8003d44:	d004      	beq.n	8003d50 <UART_SetConfig+0x1f4>
 8003d46:	2280      	movs	r2, #128	@ 0x80
 8003d48:	00d2      	lsls	r2, r2, #3
 8003d4a:	4293      	cmp	r3, r2
 8003d4c:	d00e      	beq.n	8003d6c <UART_SetConfig+0x210>
 8003d4e:	e01b      	b.n	8003d88 <UART_SetConfig+0x22c>
 8003d50:	231b      	movs	r3, #27
 8003d52:	2220      	movs	r2, #32
 8003d54:	189b      	adds	r3, r3, r2
 8003d56:	19db      	adds	r3, r3, r7
 8003d58:	2200      	movs	r2, #0
 8003d5a:	701a      	strb	r2, [r3, #0]
 8003d5c:	e021      	b.n	8003da2 <UART_SetConfig+0x246>
 8003d5e:	231b      	movs	r3, #27
 8003d60:	2220      	movs	r2, #32
 8003d62:	189b      	adds	r3, r3, r2
 8003d64:	19db      	adds	r3, r3, r7
 8003d66:	2202      	movs	r2, #2
 8003d68:	701a      	strb	r2, [r3, #0]
 8003d6a:	e01a      	b.n	8003da2 <UART_SetConfig+0x246>
 8003d6c:	231b      	movs	r3, #27
 8003d6e:	2220      	movs	r2, #32
 8003d70:	189b      	adds	r3, r3, r2
 8003d72:	19db      	adds	r3, r3, r7
 8003d74:	2204      	movs	r2, #4
 8003d76:	701a      	strb	r2, [r3, #0]
 8003d78:	e013      	b.n	8003da2 <UART_SetConfig+0x246>
 8003d7a:	231b      	movs	r3, #27
 8003d7c:	2220      	movs	r2, #32
 8003d7e:	189b      	adds	r3, r3, r2
 8003d80:	19db      	adds	r3, r3, r7
 8003d82:	2208      	movs	r2, #8
 8003d84:	701a      	strb	r2, [r3, #0]
 8003d86:	e00c      	b.n	8003da2 <UART_SetConfig+0x246>
 8003d88:	231b      	movs	r3, #27
 8003d8a:	2220      	movs	r2, #32
 8003d8c:	189b      	adds	r3, r3, r2
 8003d8e:	19db      	adds	r3, r3, r7
 8003d90:	2210      	movs	r2, #16
 8003d92:	701a      	strb	r2, [r3, #0]
 8003d94:	e005      	b.n	8003da2 <UART_SetConfig+0x246>
 8003d96:	231b      	movs	r3, #27
 8003d98:	2220      	movs	r2, #32
 8003d9a:	189b      	adds	r3, r3, r2
 8003d9c:	19db      	adds	r3, r3, r7
 8003d9e:	2210      	movs	r2, #16
 8003da0:	701a      	strb	r2, [r3, #0]

  /* Check LPUART instance */
  if (UART_INSTANCE_LOWPOWER(huart))
 8003da2:	6a7b      	ldr	r3, [r7, #36]	@ 0x24
 8003da4:	681b      	ldr	r3, [r3, #0]
 8003da6:	4a2b      	ldr	r2, [pc, #172]	@ (8003e54 <UART_SetConfig+0x2f8>)
 8003da8:	4293      	cmp	r3, r2
 8003daa:	d000      	beq.n	8003dae <UART_SetConfig+0x252>
 8003dac:	e0a9      	b.n	8003f02 <UART_SetConfig+0x3a6>
  {
    /* Retrieve frequency clock */
    switch (clocksource)
 8003dae:	231b      	movs	r3, #27
 8003db0:	2220      	movs	r2, #32
 8003db2:	189b      	adds	r3, r3, r2
 8003db4:	19db      	adds	r3, r3, r7
 8003db6:	781b      	ldrb	r3, [r3, #0]
 8003db8:	2b08      	cmp	r3, #8
 8003dba:	d015      	beq.n	8003de8 <UART_SetConfig+0x28c>
 8003dbc:	dc18      	bgt.n	8003df0 <UART_SetConfig+0x294>
 8003dbe:	2b04      	cmp	r3, #4
 8003dc0:	d00d      	beq.n	8003dde <UART_SetConfig+0x282>
 8003dc2:	dc15      	bgt.n	8003df0 <UART_SetConfig+0x294>
 8003dc4:	2b00      	cmp	r3, #0
 8003dc6:	d002      	beq.n	8003dce <UART_SetConfig+0x272>
 8003dc8:	2b02      	cmp	r3, #2
 8003dca:	d005      	beq.n	8003dd8 <UART_SetConfig+0x27c>
 8003dcc:	e010      	b.n	8003df0 <UART_SetConfig+0x294>
    {
      case UART_CLOCKSOURCE_PCLK1:
        pclk = HAL_RCC_GetPCLK1Freq();
 8003dce:	f7ff fbfd 	bl	80035cc <HAL_RCC_GetPCLK1Freq>
 8003dd2:	0003      	movs	r3, r0
 8003dd4:	637b      	str	r3, [r7, #52]	@ 0x34
        break;
 8003dd6:	e014      	b.n	8003e02 <UART_SetConfig+0x2a6>
      case UART_CLOCKSOURCE_HSI:
        pclk = (uint32_t) HSI_VALUE;
 8003dd8:	4b25      	ldr	r3, [pc, #148]	@ (8003e70 <UART_SetConfig+0x314>)
 8003dda:	637b      	str	r3, [r7, #52]	@ 0x34
        break;
 8003ddc:	e011      	b.n	8003e02 <UART_SetConfig+0x2a6>
      case UART_CLOCKSOURCE_SYSCLK:
        pclk = HAL_RCC_GetSysClockFreq();
 8003dde:	f7ff fb69 	bl	80034b4 <HAL_RCC_GetSysClockFreq>
 8003de2:	0003      	movs	r3, r0
 8003de4:	637b      	str	r3, [r7, #52]	@ 0x34
        break;
 8003de6:	e00c      	b.n	8003e02 <UART_SetConfig+0x2a6>
      case UART_CLOCKSOURCE_LSE:
        pclk = (uint32_t) LSE_VALUE;
 8003de8:	2380      	movs	r3, #128	@ 0x80
 8003dea:	021b      	lsls	r3, r3, #8
 8003dec:	637b      	str	r3, [r7, #52]	@ 0x34
        break;
 8003dee:	e008      	b.n	8003e02 <UART_SetConfig+0x2a6>
      default:
        pclk = 0U;
 8003df0:	2300      	movs	r3, #0
 8003df2:	637b      	str	r3, [r7, #52]	@ 0x34
        ret = HAL_ERROR;
 8003df4:	231a      	movs	r3, #26
 8003df6:	2220      	movs	r2, #32
 8003df8:	189b      	adds	r3, r3, r2
 8003dfa:	19db      	adds	r3, r3, r7
 8003dfc:	2201      	movs	r2, #1
 8003dfe:	701a      	strb	r2, [r3, #0]
        break;
 8003e00:	46c0      	nop			@ (mov r8, r8)
    }

    /* If proper clock source reported */
    if (pclk != 0U)
 8003e02:	6b7b      	ldr	r3, [r7, #52]	@ 0x34
 8003e04:	2b00      	cmp	r3, #0
 8003e06:	d100      	bne.n	8003e0a <UART_SetConfig+0x2ae>
 8003e08:	e14b      	b.n	80040a2 <UART_SetConfig+0x546>
    {
      /* Compute clock after Prescaler */
      lpuart_ker_ck_pres = (pclk / UARTPrescTable[huart->Init.ClockPrescaler]);
 8003e0a:	6a7b      	ldr	r3, [r7, #36]	@ 0x24
 8003e0c:	6a5a      	ldr	r2, [r3, #36]	@ 0x24
 8003e0e:	4b19      	ldr	r3, [pc, #100]	@ (8003e74 <UART_SetConfig+0x318>)
 8003e10:	0052      	lsls	r2, r2, #1
 8003e12:	5ad3      	ldrh	r3, [r2, r3]
 8003e14:	0019      	movs	r1, r3
 8003e16:	6b78      	ldr	r0, [r7, #52]	@ 0x34
 8003e18:	f7fc f97e 	bl	8000118 <__udivsi3>
 8003e1c:	0003      	movs	r3, r0
 8003e1e:	62bb      	str	r3, [r7, #40]	@ 0x28

      /* Ensure that Frequency clock is in the range [3 * baudrate, 4096 * baudrate] */
      if ((lpuart_ker_ck_pres < (3U * huart->Init.BaudRate)) ||
 8003e20:	6a7b      	ldr	r3, [r7, #36]	@ 0x24
 8003e22:	685a      	ldr	r2, [r3, #4]
 8003e24:	0013      	movs	r3, r2
 8003e26:	005b      	lsls	r3, r3, #1
 8003e28:	189b      	adds	r3, r3, r2
 8003e2a:	6aba      	ldr	r2, [r7, #40]	@ 0x28
 8003e2c:	429a      	cmp	r2, r3
 8003e2e:	d305      	bcc.n	8003e3c <UART_SetConfig+0x2e0>
          (lpuart_ker_ck_pres > (4096U * huart->Init.BaudRate)))
 8003e30:	6a7b      	ldr	r3, [r7, #36]	@ 0x24
 8003e32:	685b      	ldr	r3, [r3, #4]
 8003e34:	031b      	lsls	r3, r3, #12
      if ((lpuart_ker_ck_pres < (3U * huart->Init.BaudRate)) ||
 8003e36:	6aba      	ldr	r2, [r7, #40]	@ 0x28
 8003e38:	429a      	cmp	r2, r3
 8003e3a:	d91d      	bls.n	8003e78 <UART_SetConfig+0x31c>
      {
        ret = HAL_ERROR;
 8003e3c:	231a      	movs	r3, #26
 8003e3e:	2220      	movs	r2, #32
 8003e40:	189b      	adds	r3, r3, r2
 8003e42:	19db      	adds	r3, r3, r7
 8003e44:	2201      	movs	r2, #1
 8003e46:	701a      	strb	r2, [r3, #0]
 8003e48:	e12b      	b.n	80040a2 <UART_SetConfig+0x546>
 8003e4a:	46c0      	nop			@ (mov r8, r8)
 8003e4c:	cfff69f3 	.word	0xcfff69f3
 8003e50:	ffffcfff 	.word	0xffffcfff
 8003e54:	40008000 	.word	0x40008000
 8003e58:	11fff4ff 	.word	0x11fff4ff
 8003e5c:	40013800 	.word	0x40013800
 8003e60:	40021000 	.word	0x40021000
 8003e64:	40004400 	.word	0x40004400
 8003e68:	40004800 	.word	0x40004800
 8003e6c:	40004c00 	.word	0x40004c00
 8003e70:	00f42400 	.word	0x00f42400
 8003e74:	080056d0 	.word	0x080056d0
      }
      else
      {
        /* Check computed UsartDiv value is in allocated range
           (it is forbidden to write values lower than 0x300 in the LPUART_BRR register) */
        usartdiv = (uint32_t)(UART_DIV_LPUART(pclk, huart->Init.BaudRate, huart->Init.ClockPrescaler));
 8003e78:	6b7b      	ldr	r3, [r7, #52]	@ 0x34
 8003e7a:	61bb      	str	r3, [r7, #24]
 8003e7c:	2300      	movs	r3, #0
 8003e7e:	61fb      	str	r3, [r7, #28]
 8003e80:	6a7b      	ldr	r3, [r7, #36]	@ 0x24
 8003e82:	6a5a      	ldr	r2, [r3, #36]	@ 0x24
 8003e84:	4b92      	ldr	r3, [pc, #584]	@ (80040d0 <UART_SetConfig+0x574>)
 8003e86:	0052      	lsls	r2, r2, #1
 8003e88:	5ad3      	ldrh	r3, [r2, r3]
 8003e8a:	613b      	str	r3, [r7, #16]
 8003e8c:	2300      	movs	r3, #0
 8003e8e:	617b      	str	r3, [r7, #20]
 8003e90:	693a      	ldr	r2, [r7, #16]
 8003e92:	697b      	ldr	r3, [r7, #20]
 8003e94:	69b8      	ldr	r0, [r7, #24]
 8003e96:	69f9      	ldr	r1, [r7, #28]
 8003e98:	f7fc fab4 	bl	8000404 <__aeabi_uldivmod>
 8003e9c:	0002      	movs	r2, r0
 8003e9e:	000b      	movs	r3, r1
 8003ea0:	0e11      	lsrs	r1, r2, #24
 8003ea2:	021d      	lsls	r5, r3, #8
 8003ea4:	430d      	orrs	r5, r1
 8003ea6:	0214      	lsls	r4, r2, #8
 8003ea8:	6a7b      	ldr	r3, [r7, #36]	@ 0x24
 8003eaa:	685b      	ldr	r3, [r3, #4]
 8003eac:	085b      	lsrs	r3, r3, #1
 8003eae:	60bb      	str	r3, [r7, #8]
 8003eb0:	2300      	movs	r3, #0
 8003eb2:	60fb      	str	r3, [r7, #12]
 8003eb4:	68b8      	ldr	r0, [r7, #8]
 8003eb6:	68f9      	ldr	r1, [r7, #12]
 8003eb8:	1900      	adds	r0, r0, r4
 8003eba:	4169      	adcs	r1, r5
 8003ebc:	6a7b      	ldr	r3, [r7, #36]	@ 0x24
 8003ebe:	685b      	ldr	r3, [r3, #4]
 8003ec0:	603b      	str	r3, [r7, #0]
 8003ec2:	2300      	movs	r3, #0
 8003ec4:	607b      	str	r3, [r7, #4]
 8003ec6:	683a      	ldr	r2, [r7, #0]
 8003ec8:	687b      	ldr	r3, [r7, #4]
 8003eca:	f7fc fa9b 	bl	8000404 <__aeabi_uldivmod>
 8003ece:	0002      	movs	r2, r0
 8003ed0:	000b      	movs	r3, r1
 8003ed2:	0013      	movs	r3, r2
 8003ed4:	633b      	str	r3, [r7, #48]	@ 0x30
        if ((usartdiv >= LPUART_BRR_MIN) && (usartdiv <= LPUART_BRR_MAX))
 8003ed6:	6b3a      	ldr	r2, [r7, #48]	@ 0x30
 8003ed8:	23c0      	movs	r3, #192	@ 0xc0
 8003eda:	009b      	lsls	r3, r3, #2
 8003edc:	429a      	cmp	r2, r3
 8003ede:	d309      	bcc.n	8003ef4 <UART_SetConfig+0x398>
 8003ee0:	6b3a      	ldr	r2, [r7, #48]	@ 0x30
 8003ee2:	2380      	movs	r3, #128	@ 0x80
 8003ee4:	035b      	lsls	r3, r3, #13
 8003ee6:	429a      	cmp	r2, r3
 8003ee8:	d204      	bcs.n	8003ef4 <UART_SetConfig+0x398>
        {
          huart->Instance->BRR = usartdiv;
 8003eea:	6a7b      	ldr	r3, [r7, #36]	@ 0x24
 8003eec:	681b      	ldr	r3, [r3, #0]
 8003eee:	6b3a      	ldr	r2, [r7, #48]	@ 0x30
 8003ef0:	60da      	str	r2, [r3, #12]
 8003ef2:	e0d6      	b.n	80040a2 <UART_SetConfig+0x546>
        }
        else
        {
          ret = HAL_ERROR;
 8003ef4:	231a      	movs	r3, #26
 8003ef6:	2220      	movs	r2, #32
 8003ef8:	189b      	adds	r3, r3, r2
 8003efa:	19db      	adds	r3, r3, r7
 8003efc:	2201      	movs	r2, #1
 8003efe:	701a      	strb	r2, [r3, #0]
 8003f00:	e0cf      	b.n	80040a2 <UART_SetConfig+0x546>
      } /* if ( (lpuart_ker_ck_pres < (3 * huart->Init.BaudRate) ) ||
                (lpuart_ker_ck_pres > (4096 * huart->Init.BaudRate) )) */
    } /* if (pclk != 0) */
  }
  /* Check UART Over Sampling to set Baud Rate Register */
  else if (huart->Init.OverSampling == UART_OVERSAMPLING_8)
 8003f02:	6a7b      	ldr	r3, [r7, #36]	@ 0x24
 8003f04:	69da      	ldr	r2, [r3, #28]
 8003f06:	2380      	movs	r3, #128	@ 0x80
 8003f08:	021b      	lsls	r3, r3, #8
 8003f0a:	429a      	cmp	r2, r3
 8003f0c:	d000      	beq.n	8003f10 <UART_SetConfig+0x3b4>
 8003f0e:	e070      	b.n	8003ff2 <UART_SetConfig+0x496>
  {
    switch (clocksource)
 8003f10:	231b      	movs	r3, #27
 8003f12:	2220      	movs	r2, #32
 8003f14:	189b      	adds	r3, r3, r2
 8003f16:	19db      	adds	r3, r3, r7
 8003f18:	781b      	ldrb	r3, [r3, #0]
 8003f1a:	2b08      	cmp	r3, #8
 8003f1c:	d015      	beq.n	8003f4a <UART_SetConfig+0x3ee>
 8003f1e:	dc18      	bgt.n	8003f52 <UART_SetConfig+0x3f6>
 8003f20:	2b04      	cmp	r3, #4
 8003f22:	d00d      	beq.n	8003f40 <UART_SetConfig+0x3e4>
 8003f24:	dc15      	bgt.n	8003f52 <UART_SetConfig+0x3f6>
 8003f26:	2b00      	cmp	r3, #0
 8003f28:	d002      	beq.n	8003f30 <UART_SetConfig+0x3d4>
 8003f2a:	2b02      	cmp	r3, #2
 8003f2c:	d005      	beq.n	8003f3a <UART_SetConfig+0x3de>
 8003f2e:	e010      	b.n	8003f52 <UART_SetConfig+0x3f6>
    {
      case UART_CLOCKSOURCE_PCLK1:
        pclk = HAL_RCC_GetPCLK1Freq();
 8003f30:	f7ff fb4c 	bl	80035cc <HAL_RCC_GetPCLK1Freq>
 8003f34:	0003      	movs	r3, r0
 8003f36:	637b      	str	r3, [r7, #52]	@ 0x34
        break;
 8003f38:	e014      	b.n	8003f64 <UART_SetConfig+0x408>
      case UART_CLOCKSOURCE_HSI:
        pclk = (uint32_t) HSI_VALUE;
 8003f3a:	4b66      	ldr	r3, [pc, #408]	@ (80040d4 <UART_SetConfig+0x578>)
 8003f3c:	637b      	str	r3, [r7, #52]	@ 0x34
        break;
 8003f3e:	e011      	b.n	8003f64 <UART_SetConfig+0x408>
      case UART_CLOCKSOURCE_SYSCLK:
        pclk = HAL_RCC_GetSysClockFreq();
 8003f40:	f7ff fab8 	bl	80034b4 <HAL_RCC_GetSysClockFreq>
 8003f44:	0003      	movs	r3, r0
 8003f46:	637b      	str	r3, [r7, #52]	@ 0x34
        break;
 8003f48:	e00c      	b.n	8003f64 <UART_SetConfig+0x408>
      case UART_CLOCKSOURCE_LSE:
        pclk = (uint32_t) LSE_VALUE;
 8003f4a:	2380      	movs	r3, #128	@ 0x80
 8003f4c:	021b      	lsls	r3, r3, #8
 8003f4e:	637b      	str	r3, [r7, #52]	@ 0x34
        break;
 8003f50:	e008      	b.n	8003f64 <UART_SetConfig+0x408>
      default:
        pclk = 0U;
 8003f52:	2300      	movs	r3, #0
 8003f54:	637b      	str	r3, [r7, #52]	@ 0x34
        ret = HAL_ERROR;
 8003f56:	231a      	movs	r3, #26
 8003f58:	2220      	movs	r2, #32
 8003f5a:	189b      	adds	r3, r3, r2
 8003f5c:	19db      	adds	r3, r3, r7
 8003f5e:	2201      	movs	r2, #1
 8003f60:	701a      	strb	r2, [r3, #0]
        break;
 8003f62:	46c0      	nop			@ (mov r8, r8)
    }

    /* USARTDIV must be greater than or equal to 0d16 */
    if (pclk != 0U)
 8003f64:	6b7b      	ldr	r3, [r7, #52]	@ 0x34
 8003f66:	2b00      	cmp	r3, #0
 8003f68:	d100      	bne.n	8003f6c <UART_SetConfig+0x410>
 8003f6a:	e09a      	b.n	80040a2 <UART_SetConfig+0x546>
    {
      usartdiv = (uint32_t)(UART_DIV_SAMPLING8(pclk, huart->Init.BaudRate, huart->Init.ClockPrescaler));
 8003f6c:	6a7b      	ldr	r3, [r7, #36]	@ 0x24
 8003f6e:	6a5a      	ldr	r2, [r3, #36]	@ 0x24
 8003f70:	4b57      	ldr	r3, [pc, #348]	@ (80040d0 <UART_SetConfig+0x574>)
 8003f72:	0052      	lsls	r2, r2, #1
 8003f74:	5ad3      	ldrh	r3, [r2, r3]
 8003f76:	0019      	movs	r1, r3
 8003f78:	6b78      	ldr	r0, [r7, #52]	@ 0x34
 8003f7a:	f7fc f8cd 	bl	8000118 <__udivsi3>
 8003f7e:	0003      	movs	r3, r0
 8003f80:	005a      	lsls	r2, r3, #1
 8003f82:	6a7b      	ldr	r3, [r7, #36]	@ 0x24
 8003f84:	685b      	ldr	r3, [r3, #4]
 8003f86:	085b      	lsrs	r3, r3, #1
 8003f88:	18d2      	adds	r2, r2, r3
 8003f8a:	6a7b      	ldr	r3, [r7, #36]	@ 0x24
 8003f8c:	685b      	ldr	r3, [r3, #4]
 8003f8e:	0019      	movs	r1, r3
 8003f90:	0010      	movs	r0, r2
 8003f92:	f7fc f8c1 	bl	8000118 <__udivsi3>
 8003f96:	0003      	movs	r3, r0
 8003f98:	633b      	str	r3, [r7, #48]	@ 0x30
      if ((usartdiv >= UART_BRR_MIN) && (usartdiv <= UART_BRR_MAX))
 8003f9a:	6b3b      	ldr	r3, [r7, #48]	@ 0x30
 8003f9c:	2b0f      	cmp	r3, #15
 8003f9e:	d921      	bls.n	8003fe4 <UART_SetConfig+0x488>
 8003fa0:	6b3a      	ldr	r2, [r7, #48]	@ 0x30
 8003fa2:	2380      	movs	r3, #128	@ 0x80
 8003fa4:	025b      	lsls	r3, r3, #9
 8003fa6:	429a      	cmp	r2, r3
 8003fa8:	d21c      	bcs.n	8003fe4 <UART_SetConfig+0x488>
      {
        brrtemp = (uint16_t)(usartdiv & 0xFFF0U);
 8003faa:	6b3b      	ldr	r3, [r7, #48]	@ 0x30
 8003fac:	b29a      	uxth	r2, r3
 8003fae:	200e      	movs	r0, #14
 8003fb0:	2420      	movs	r4, #32
 8003fb2:	1903      	adds	r3, r0, r4
 8003fb4:	19db      	adds	r3, r3, r7
 8003fb6:	210f      	movs	r1, #15
 8003fb8:	438a      	bics	r2, r1
 8003fba:	801a      	strh	r2, [r3, #0]
        brrtemp |= (uint16_t)((usartdiv & (uint16_t)0x000FU) >> 1U);
 8003fbc:	6b3b      	ldr	r3, [r7, #48]	@ 0x30
 8003fbe:	085b      	lsrs	r3, r3, #1
 8003fc0:	b29b      	uxth	r3, r3
 8003fc2:	2207      	movs	r2, #7
 8003fc4:	4013      	ands	r3, r2
 8003fc6:	b299      	uxth	r1, r3
 8003fc8:	1903      	adds	r3, r0, r4
 8003fca:	19db      	adds	r3, r3, r7
 8003fcc:	1902      	adds	r2, r0, r4
 8003fce:	19d2      	adds	r2, r2, r7
 8003fd0:	8812      	ldrh	r2, [r2, #0]
 8003fd2:	430a      	orrs	r2, r1
 8003fd4:	801a      	strh	r2, [r3, #0]
        huart->Instance->BRR = brrtemp;
 8003fd6:	6a7b      	ldr	r3, [r7, #36]	@ 0x24
 8003fd8:	681b      	ldr	r3, [r3, #0]
 8003fda:	1902      	adds	r2, r0, r4
 8003fdc:	19d2      	adds	r2, r2, r7
 8003fde:	8812      	ldrh	r2, [r2, #0]
 8003fe0:	60da      	str	r2, [r3, #12]
 8003fe2:	e05e      	b.n	80040a2 <UART_SetConfig+0x546>
      }
      else
      {
        ret = HAL_ERROR;
 8003fe4:	231a      	movs	r3, #26
 8003fe6:	2220      	movs	r2, #32
 8003fe8:	189b      	adds	r3, r3, r2
 8003fea:	19db      	adds	r3, r3, r7
 8003fec:	2201      	movs	r2, #1
 8003fee:	701a      	strb	r2, [r3, #0]
 8003ff0:	e057      	b.n	80040a2 <UART_SetConfig+0x546>
      }
    }
  }
  else
  {
    switch (clocksource)
 8003ff2:	231b      	movs	r3, #27
 8003ff4:	2220      	movs	r2, #32
 8003ff6:	189b      	adds	r3, r3, r2
 8003ff8:	19db      	adds	r3, r3, r7
 8003ffa:	781b      	ldrb	r3, [r3, #0]
 8003ffc:	2b08      	cmp	r3, #8
 8003ffe:	d015      	beq.n	800402c <UART_SetConfig+0x4d0>
 8004000:	dc18      	bgt.n	8004034 <UART_SetConfig+0x4d8>
 8004002:	2b04      	cmp	r3, #4
 8004004:	d00d      	beq.n	8004022 <UART_SetConfig+0x4c6>
 8004006:	dc15      	bgt.n	8004034 <UART_SetConfig+0x4d8>
 8004008:	2b00      	cmp	r3, #0
 800400a:	d002      	beq.n	8004012 <UART_SetConfig+0x4b6>
 800400c:	2b02      	cmp	r3, #2
 800400e:	d005      	beq.n	800401c <UART_SetConfig+0x4c0>
 8004010:	e010      	b.n	8004034 <UART_SetConfig+0x4d8>
    {
      case UART_CLOCKSOURCE_PCLK1:
        pclk = HAL_RCC_GetPCLK1Freq();
 8004012:	f7ff fadb 	bl	80035cc <HAL_RCC_GetPCLK1Freq>
 8004016:	0003      	movs	r3, r0
 8004018:	637b      	str	r3, [r7, #52]	@ 0x34
        break;
 800401a:	e014      	b.n	8004046 <UART_SetConfig+0x4ea>
      case UART_CLOCKSOURCE_HSI:
        pclk = (uint32_t) HSI_VALUE;
 800401c:	4b2d      	ldr	r3, [pc, #180]	@ (80040d4 <UART_SetConfig+0x578>)
 800401e:	637b      	str	r3, [r7, #52]	@ 0x34
        break;
 8004020:	e011      	b.n	8004046 <UART_SetConfig+0x4ea>
      case UART_CLOCKSOURCE_SYSCLK:
        pclk = HAL_RCC_GetSysClockFreq();
 8004022:	f7ff fa47 	bl	80034b4 <HAL_RCC_GetSysClockFreq>
 8004026:	0003      	movs	r3, r0
 8004028:	637b      	str	r3, [r7, #52]	@ 0x34
        break;
 800402a:	e00c      	b.n	8004046 <UART_SetConfig+0x4ea>
      case UART_CLOCKSOURCE_LSE:
        pclk = (uint32_t) LSE_VALUE;
 800402c:	2380      	movs	r3, #128	@ 0x80
 800402e:	021b      	lsls	r3, r3, #8
 8004030:	637b      	str	r3, [r7, #52]	@ 0x34
        break;
 8004032:	e008      	b.n	8004046 <UART_SetConfig+0x4ea>
      default:
        pclk = 0U;
 8004034:	2300      	movs	r3, #0
 8004036:	637b      	str	r3, [r7, #52]	@ 0x34
        ret = HAL_ERROR;
 8004038:	231a      	movs	r3, #26
 800403a:	2220      	movs	r2, #32
 800403c:	189b      	adds	r3, r3, r2
 800403e:	19db      	adds	r3, r3, r7
 8004040:	2201      	movs	r2, #1
 8004042:	701a      	strb	r2, [r3, #0]
        break;
 8004044:	46c0      	nop			@ (mov r8, r8)
    }

    if (pclk != 0U)
 8004046:	6b7b      	ldr	r3, [r7, #52]	@ 0x34
 8004048:	2b00      	cmp	r3, #0
 800404a:	d02a      	beq.n	80040a2 <UART_SetConfig+0x546>
    {
      /* USARTDIV must be greater than or equal to 0d16 */
      usartdiv = (uint32_t)(UART_DIV_SAMPLING16(pclk, huart->Init.BaudRate, huart->Init.ClockPrescaler));
 800404c:	6a7b      	ldr	r3, [r7, #36]	@ 0x24
 800404e:	6a5a      	ldr	r2, [r3, #36]	@ 0x24
 8004050:	4b1f      	ldr	r3, [pc, #124]	@ (80040d0 <UART_SetConfig+0x574>)
 8004052:	0052      	lsls	r2, r2, #1
 8004054:	5ad3      	ldrh	r3, [r2, r3]
 8004056:	0019      	movs	r1, r3
 8004058:	6b78      	ldr	r0, [r7, #52]	@ 0x34
 800405a:	f7fc f85d 	bl	8000118 <__udivsi3>
 800405e:	0003      	movs	r3, r0
 8004060:	001a      	movs	r2, r3
 8004062:	6a7b      	ldr	r3, [r7, #36]	@ 0x24
 8004064:	685b      	ldr	r3, [r3, #4]
 8004066:	085b      	lsrs	r3, r3, #1
 8004068:	18d2      	adds	r2, r2, r3
 800406a:	6a7b      	ldr	r3, [r7, #36]	@ 0x24
 800406c:	685b      	ldr	r3, [r3, #4]
 800406e:	0019      	movs	r1, r3
 8004070:	0010      	movs	r0, r2
 8004072:	f7fc f851 	bl	8000118 <__udivsi3>
 8004076:	0003      	movs	r3, r0
 8004078:	633b      	str	r3, [r7, #48]	@ 0x30
      if ((usartdiv >= UART_BRR_MIN) && (usartdiv <= UART_BRR_MAX))
 800407a:	6b3b      	ldr	r3, [r7, #48]	@ 0x30
 800407c:	2b0f      	cmp	r3, #15
 800407e:	d90a      	bls.n	8004096 <UART_SetConfig+0x53a>
 8004080:	6b3a      	ldr	r2, [r7, #48]	@ 0x30
 8004082:	2380      	movs	r3, #128	@ 0x80
 8004084:	025b      	lsls	r3, r3, #9
 8004086:	429a      	cmp	r2, r3
 8004088:	d205      	bcs.n	8004096 <UART_SetConfig+0x53a>
      {
        huart->Instance->BRR = (uint16_t)usartdiv;
 800408a:	6b3b      	ldr	r3, [r7, #48]	@ 0x30
 800408c:	b29a      	uxth	r2, r3
 800408e:	6a7b      	ldr	r3, [r7, #36]	@ 0x24
 8004090:	681b      	ldr	r3, [r3, #0]
 8004092:	60da      	str	r2, [r3, #12]
 8004094:	e005      	b.n	80040a2 <UART_SetConfig+0x546>
      }
      else
      {
        ret = HAL_ERROR;
 8004096:	231a      	movs	r3, #26
 8004098:	2220      	movs	r2, #32
 800409a:	189b      	adds	r3, r3, r2
 800409c:	19db      	adds	r3, r3, r7
 800409e:	2201      	movs	r2, #1
 80040a0:	701a      	strb	r2, [r3, #0]
      }
    }
  }

  /* Initialize the number of data to process during RX/TX ISR execution */
  huart->NbTxDataToProcess = 1;
 80040a2:	6a7b      	ldr	r3, [r7, #36]	@ 0x24
 80040a4:	226a      	movs	r2, #106	@ 0x6a
 80040a6:	2101      	movs	r1, #1
 80040a8:	5299      	strh	r1, [r3, r2]
  huart->NbRxDataToProcess = 1;
 80040aa:	6a7b      	ldr	r3, [r7, #36]	@ 0x24
 80040ac:	2268      	movs	r2, #104	@ 0x68
 80040ae:	2101      	movs	r1, #1
 80040b0:	5299      	strh	r1, [r3, r2]

  /* Clear ISR function pointers */
  huart->RxISR = NULL;
 80040b2:	6a7b      	ldr	r3, [r7, #36]	@ 0x24
 80040b4:	2200      	movs	r2, #0
 80040b6:	675a      	str	r2, [r3, #116]	@ 0x74
  huart->TxISR = NULL;
 80040b8:	6a7b      	ldr	r3, [r7, #36]	@ 0x24
 80040ba:	2200      	movs	r2, #0
 80040bc:	679a      	str	r2, [r3, #120]	@ 0x78

  return ret;
 80040be:	231a      	movs	r3, #26
 80040c0:	2220      	movs	r2, #32
 80040c2:	189b      	adds	r3, r3, r2
 80040c4:	19db      	adds	r3, r3, r7
 80040c6:	781b      	ldrb	r3, [r3, #0]
}
 80040c8:	0018      	movs	r0, r3
 80040ca:	46bd      	mov	sp, r7
 80040cc:	b010      	add	sp, #64	@ 0x40
 80040ce:	bdb0      	pop	{r4, r5, r7, pc}
 80040d0:	080056d0 	.word	0x080056d0
 80040d4:	00f42400 	.word	0x00f42400

080040d8 <UART_AdvFeatureConfig>:
  * @brief Configure the UART peripheral advanced features.
  * @param huart UART handle.
  * @retval None
  */
void UART_AdvFeatureConfig(UART_HandleTypeDef *huart)
{
 80040d8:	b580      	push	{r7, lr}
 80040da:	b082      	sub	sp, #8
 80040dc:	af00      	add	r7, sp, #0
 80040de:	6078      	str	r0, [r7, #4]
  /* Check whether the set of advanced features to configure is properly set */
  assert_param(IS_UART_ADVFEATURE_INIT(huart->AdvancedInit.AdvFeatureInit));

  /* if required, configure RX/TX pins swap */
  if (HAL_IS_BIT_SET(huart->AdvancedInit.AdvFeatureInit, UART_ADVFEATURE_SWAP_INIT))
 80040e0:	687b      	ldr	r3, [r7, #4]
 80040e2:	6a9b      	ldr	r3, [r3, #40]	@ 0x28
 80040e4:	2208      	movs	r2, #8
 80040e6:	4013      	ands	r3, r2
 80040e8:	d00b      	beq.n	8004102 <UART_AdvFeatureConfig+0x2a>
  {
    assert_param(IS_UART_ADVFEATURE_SWAP(huart->AdvancedInit.Swap));
    MODIFY_REG(huart->Instance->CR2, USART_CR2_SWAP, huart->AdvancedInit.Swap);
 80040ea:	687b      	ldr	r3, [r7, #4]
 80040ec:	681b      	ldr	r3, [r3, #0]
 80040ee:	685b      	ldr	r3, [r3, #4]
 80040f0:	4a4a      	ldr	r2, [pc, #296]	@ (800421c <UART_AdvFeatureConfig+0x144>)
 80040f2:	4013      	ands	r3, r2
 80040f4:	0019      	movs	r1, r3
 80040f6:	687b      	ldr	r3, [r7, #4]
 80040f8:	6b9a      	ldr	r2, [r3, #56]	@ 0x38
 80040fa:	687b      	ldr	r3, [r7, #4]
 80040fc:	681b      	ldr	r3, [r3, #0]
 80040fe:	430a      	orrs	r2, r1
 8004100:	605a      	str	r2, [r3, #4]
  }

  /* if required, configure TX pin active level inversion */
  if (HAL_IS_BIT_SET(huart->AdvancedInit.AdvFeatureInit, UART_ADVFEATURE_TXINVERT_INIT))
 8004102:	687b      	ldr	r3, [r7, #4]
 8004104:	6a9b      	ldr	r3, [r3, #40]	@ 0x28
 8004106:	2201      	movs	r2, #1
 8004108:	4013      	ands	r3, r2
 800410a:	d00b      	beq.n	8004124 <UART_AdvFeatureConfig+0x4c>
  {
    assert_param(IS_UART_ADVFEATURE_TXINV(huart->AdvancedInit.TxPinLevelInvert));
    MODIFY_REG(huart->Instance->CR2, USART_CR2_TXINV, huart->AdvancedInit.TxPinLevelInvert);
 800410c:	687b      	ldr	r3, [r7, #4]
 800410e:	681b      	ldr	r3, [r3, #0]
 8004110:	685b      	ldr	r3, [r3, #4]
 8004112:	4a43      	ldr	r2, [pc, #268]	@ (8004220 <UART_AdvFeatureConfig+0x148>)
 8004114:	4013      	ands	r3, r2
 8004116:	0019      	movs	r1, r3
 8004118:	687b      	ldr	r3, [r7, #4]
 800411a:	6ada      	ldr	r2, [r3, #44]	@ 0x2c
 800411c:	687b      	ldr	r3, [r7, #4]
 800411e:	681b      	ldr	r3, [r3, #0]
 8004120:	430a      	orrs	r2, r1
 8004122:	605a      	str	r2, [r3, #4]
  }

  /* if required, configure RX pin active level inversion */
  if (HAL_IS_BIT_SET(huart->AdvancedInit.AdvFeatureInit, UART_ADVFEATURE_RXINVERT_INIT))
 8004124:	687b      	ldr	r3, [r7, #4]
 8004126:	6a9b      	ldr	r3, [r3, #40]	@ 0x28
 8004128:	2202      	movs	r2, #2
 800412a:	4013      	ands	r3, r2
 800412c:	d00b      	beq.n	8004146 <UART_AdvFeatureConfig+0x6e>
  {
    assert_param(IS_UART_ADVFEATURE_RXINV(huart->AdvancedInit.RxPinLevelInvert));
    MODIFY_REG(huart->Instance->CR2, USART_CR2_RXINV, huart->AdvancedInit.RxPinLevelInvert);
 800412e:	687b      	ldr	r3, [r7, #4]
 8004130:	681b      	ldr	r3, [r3, #0]
 8004132:	685b      	ldr	r3, [r3, #4]
 8004134:	4a3b      	ldr	r2, [pc, #236]	@ (8004224 <UART_AdvFeatureConfig+0x14c>)
 8004136:	4013      	ands	r3, r2
 8004138:	0019      	movs	r1, r3
 800413a:	687b      	ldr	r3, [r7, #4]
 800413c:	6b1a      	ldr	r2, [r3, #48]	@ 0x30
 800413e:	687b      	ldr	r3, [r7, #4]
 8004140:	681b      	ldr	r3, [r3, #0]
 8004142:	430a      	orrs	r2, r1
 8004144:	605a      	str	r2, [r3, #4]
  }

  /* if required, configure data inversion */
  if (HAL_IS_BIT_SET(huart->AdvancedInit.AdvFeatureInit, UART_ADVFEATURE_DATAINVERT_INIT))
 8004146:	687b      	ldr	r3, [r7, #4]
 8004148:	6a9b      	ldr	r3, [r3, #40]	@ 0x28
 800414a:	2204      	movs	r2, #4
 800414c:	4013      	ands	r3, r2
 800414e:	d00b      	beq.n	8004168 <UART_AdvFeatureConfig+0x90>
  {
    assert_param(IS_UART_ADVFEATURE_DATAINV(huart->AdvancedInit.DataInvert));
    MODIFY_REG(huart->Instance->CR2, USART_CR2_DATAINV, huart->AdvancedInit.DataInvert);
 8004150:	687b      	ldr	r3, [r7, #4]
 8004152:	681b      	ldr	r3, [r3, #0]
 8004154:	685b      	ldr	r3, [r3, #4]
 8004156:	4a34      	ldr	r2, [pc, #208]	@ (8004228 <UART_AdvFeatureConfig+0x150>)
 8004158:	4013      	ands	r3, r2
 800415a:	0019      	movs	r1, r3
 800415c:	687b      	ldr	r3, [r7, #4]
 800415e:	6b5a      	ldr	r2, [r3, #52]	@ 0x34
 8004160:	687b      	ldr	r3, [r7, #4]
 8004162:	681b      	ldr	r3, [r3, #0]
 8004164:	430a      	orrs	r2, r1
 8004166:	605a      	str	r2, [r3, #4]
  }

  /* if required, configure RX overrun detection disabling */
  if (HAL_IS_BIT_SET(huart->AdvancedInit.AdvFeatureInit, UART_ADVFEATURE_RXOVERRUNDISABLE_INIT))
 8004168:	687b      	ldr	r3, [r7, #4]
 800416a:	6a9b      	ldr	r3, [r3, #40]	@ 0x28
 800416c:	2210      	movs	r2, #16
 800416e:	4013      	ands	r3, r2
 8004170:	d00b      	beq.n	800418a <UART_AdvFeatureConfig+0xb2>
  {
    assert_param(IS_UART_OVERRUN(huart->AdvancedInit.OverrunDisable));
    MODIFY_REG(huart->Instance->CR3, USART_CR3_OVRDIS, huart->AdvancedInit.OverrunDisable);
 8004172:	687b      	ldr	r3, [r7, #4]
 8004174:	681b      	ldr	r3, [r3, #0]
 8004176:	689b      	ldr	r3, [r3, #8]
 8004178:	4a2c      	ldr	r2, [pc, #176]	@ (800422c <UART_AdvFeatureConfig+0x154>)
 800417a:	4013      	ands	r3, r2
 800417c:	0019      	movs	r1, r3
 800417e:	687b      	ldr	r3, [r7, #4]
 8004180:	6bda      	ldr	r2, [r3, #60]	@ 0x3c
 8004182:	687b      	ldr	r3, [r7, #4]
 8004184:	681b      	ldr	r3, [r3, #0]
 8004186:	430a      	orrs	r2, r1
 8004188:	609a      	str	r2, [r3, #8]
  }

  /* if required, configure DMA disabling on reception error */
  if (HAL_IS_BIT_SET(huart->AdvancedInit.AdvFeatureInit, UART_ADVFEATURE_DMADISABLEONERROR_INIT))
 800418a:	687b      	ldr	r3, [r7, #4]
 800418c:	6a9b      	ldr	r3, [r3, #40]	@ 0x28
 800418e:	2220      	movs	r2, #32
 8004190:	4013      	ands	r3, r2
 8004192:	d00b      	beq.n	80041ac <UART_AdvFeatureConfig+0xd4>
  {
    assert_param(IS_UART_ADVFEATURE_DMAONRXERROR(huart->AdvancedInit.DMADisableonRxError));
    MODIFY_REG(huart->Instance->CR3, USART_CR3_DDRE, huart->AdvancedInit.DMADisableonRxError);
 8004194:	687b      	ldr	r3, [r7, #4]
 8004196:	681b      	ldr	r3, [r3, #0]
 8004198:	689b      	ldr	r3, [r3, #8]
 800419a:	4a25      	ldr	r2, [pc, #148]	@ (8004230 <UART_AdvFeatureConfig+0x158>)
 800419c:	4013      	ands	r3, r2
 800419e:	0019      	movs	r1, r3
 80041a0:	687b      	ldr	r3, [r7, #4]
 80041a2:	6c1a      	ldr	r2, [r3, #64]	@ 0x40
 80041a4:	687b      	ldr	r3, [r7, #4]
 80041a6:	681b      	ldr	r3, [r3, #0]
 80041a8:	430a      	orrs	r2, r1
 80041aa:	609a      	str	r2, [r3, #8]
  }

  /* if required, configure auto Baud rate detection scheme */
  if (HAL_IS_BIT_SET(huart->AdvancedInit.AdvFeatureInit, UART_ADVFEATURE_AUTOBAUDRATE_INIT))
 80041ac:	687b      	ldr	r3, [r7, #4]
 80041ae:	6a9b      	ldr	r3, [r3, #40]	@ 0x28
 80041b0:	2240      	movs	r2, #64	@ 0x40
 80041b2:	4013      	ands	r3, r2
 80041b4:	d01d      	beq.n	80041f2 <UART_AdvFeatureConfig+0x11a>
  {
    assert_param(IS_USART_AUTOBAUDRATE_DETECTION_INSTANCE(huart->Instance));
    assert_param(IS_UART_ADVFEATURE_AUTOBAUDRATE(huart->AdvancedInit.AutoBaudRateEnable));
    MODIFY_REG(huart->Instance->CR2, USART_CR2_ABREN, huart->AdvancedInit.AutoBaudRateEnable);
 80041b6:	687b      	ldr	r3, [r7, #4]
 80041b8:	681b      	ldr	r3, [r3, #0]
 80041ba:	685b      	ldr	r3, [r3, #4]
 80041bc:	4a1d      	ldr	r2, [pc, #116]	@ (8004234 <UART_AdvFeatureConfig+0x15c>)
 80041be:	4013      	ands	r3, r2
 80041c0:	0019      	movs	r1, r3
 80041c2:	687b      	ldr	r3, [r7, #4]
 80041c4:	6c5a      	ldr	r2, [r3, #68]	@ 0x44
 80041c6:	687b      	ldr	r3, [r7, #4]
 80041c8:	681b      	ldr	r3, [r3, #0]
 80041ca:	430a      	orrs	r2, r1
 80041cc:	605a      	str	r2, [r3, #4]
    /* set auto Baudrate detection parameters if detection is enabled */
    if (huart->AdvancedInit.AutoBaudRateEnable == UART_ADVFEATURE_AUTOBAUDRATE_ENABLE)
 80041ce:	687b      	ldr	r3, [r7, #4]
 80041d0:	6c5a      	ldr	r2, [r3, #68]	@ 0x44
 80041d2:	2380      	movs	r3, #128	@ 0x80
 80041d4:	035b      	lsls	r3, r3, #13
 80041d6:	429a      	cmp	r2, r3
 80041d8:	d10b      	bne.n	80041f2 <UART_AdvFeatureConfig+0x11a>
    {
      assert_param(IS_UART_ADVFEATURE_AUTOBAUDRATEMODE(huart->AdvancedInit.AutoBaudRateMode));
      MODIFY_REG(huart->Instance->CR2, USART_CR2_ABRMODE, huart->AdvancedInit.AutoBaudRateMode);
 80041da:	687b      	ldr	r3, [r7, #4]
 80041dc:	681b      	ldr	r3, [r3, #0]
 80041de:	685b      	ldr	r3, [r3, #4]
 80041e0:	4a15      	ldr	r2, [pc, #84]	@ (8004238 <UART_AdvFeatureConfig+0x160>)
 80041e2:	4013      	ands	r3, r2
 80041e4:	0019      	movs	r1, r3
 80041e6:	687b      	ldr	r3, [r7, #4]
 80041e8:	6c9a      	ldr	r2, [r3, #72]	@ 0x48
 80041ea:	687b      	ldr	r3, [r7, #4]
 80041ec:	681b      	ldr	r3, [r3, #0]
 80041ee:	430a      	orrs	r2, r1
 80041f0:	605a      	str	r2, [r3, #4]
    }
  }

  /* if required, configure MSB first on communication line */
  if (HAL_IS_BIT_SET(huart->AdvancedInit.AdvFeatureInit, UART_ADVFEATURE_MSBFIRST_INIT))
 80041f2:	687b      	ldr	r3, [r7, #4]
 80041f4:	6a9b      	ldr	r3, [r3, #40]	@ 0x28
 80041f6:	2280      	movs	r2, #128	@ 0x80
 80041f8:	4013      	ands	r3, r2
 80041fa:	d00b      	beq.n	8004214 <UART_AdvFeatureConfig+0x13c>
  {
    assert_param(IS_UART_ADVFEATURE_MSBFIRST(huart->AdvancedInit.MSBFirst));
    MODIFY_REG(huart->Instance->CR2, USART_CR2_MSBFIRST, huart->AdvancedInit.MSBFirst);
 80041fc:	687b      	ldr	r3, [r7, #4]
 80041fe:	681b      	ldr	r3, [r3, #0]
 8004200:	685b      	ldr	r3, [r3, #4]
 8004202:	4a0e      	ldr	r2, [pc, #56]	@ (800423c <UART_AdvFeatureConfig+0x164>)
 8004204:	4013      	ands	r3, r2
 8004206:	0019      	movs	r1, r3
 8004208:	687b      	ldr	r3, [r7, #4]
 800420a:	6cda      	ldr	r2, [r3, #76]	@ 0x4c
 800420c:	687b      	ldr	r3, [r7, #4]
 800420e:	681b      	ldr	r3, [r3, #0]
 8004210:	430a      	orrs	r2, r1
 8004212:	605a      	str	r2, [r3, #4]
  }
}
 8004214:	46c0      	nop			@ (mov r8, r8)
 8004216:	46bd      	mov	sp, r7
 8004218:	b002      	add	sp, #8
 800421a:	bd80      	pop	{r7, pc}
 800421c:	ffff7fff 	.word	0xffff7fff
 8004220:	fffdffff 	.word	0xfffdffff
 8004224:	fffeffff 	.word	0xfffeffff
 8004228:	fffbffff 	.word	0xfffbffff
 800422c:	ffffefff 	.word	0xffffefff
 8004230:	ffffdfff 	.word	0xffffdfff
 8004234:	ffefffff 	.word	0xffefffff
 8004238:	ff9fffff 	.word	0xff9fffff
 800423c:	fff7ffff 	.word	0xfff7ffff

08004240 <UART_CheckIdleState>:
  * @brief Check the UART Idle State.
  * @param huart UART handle.
  * @retval HAL status
  */
HAL_StatusTypeDef UART_CheckIdleState(UART_HandleTypeDef *huart)
{
 8004240:	b580      	push	{r7, lr}
 8004242:	b092      	sub	sp, #72	@ 0x48
 8004244:	af02      	add	r7, sp, #8
 8004246:	6078      	str	r0, [r7, #4]
  uint32_t tickstart;

  /* Initialize the UART ErrorCode */
  huart->ErrorCode = HAL_UART_ERROR_NONE;
 8004248:	687b      	ldr	r3, [r7, #4]
 800424a:	2290      	movs	r2, #144	@ 0x90
 800424c:	2100      	movs	r1, #0
 800424e:	5099      	str	r1, [r3, r2]

  /* Init tickstart for timeout management */
  tickstart = HAL_GetTick();
 8004250:	f7fc fe3e 	bl	8000ed0 <HAL_GetTick>
 8004254:	0003      	movs	r3, r0
 8004256:	63fb      	str	r3, [r7, #60]	@ 0x3c

  /* Check if the Transmitter is enabled */
  if ((huart->Instance->CR1 & USART_CR1_TE) == USART_CR1_TE)
 8004258:	687b      	ldr	r3, [r7, #4]
 800425a:	681b      	ldr	r3, [r3, #0]
 800425c:	681b      	ldr	r3, [r3, #0]
 800425e:	2208      	movs	r2, #8
 8004260:	4013      	ands	r3, r2
 8004262:	2b08      	cmp	r3, #8
 8004264:	d12d      	bne.n	80042c2 <UART_CheckIdleState+0x82>
  {
    /* Wait until TEACK flag is set */
    if (UART_WaitOnFlagUntilTimeout(huart, USART_ISR_TEACK, RESET, tickstart, HAL_UART_TIMEOUT_VALUE) != HAL_OK)
 8004266:	6bfb      	ldr	r3, [r7, #60]	@ 0x3c
 8004268:	2280      	movs	r2, #128	@ 0x80
 800426a:	0391      	lsls	r1, r2, #14
 800426c:	6878      	ldr	r0, [r7, #4]
 800426e:	4a47      	ldr	r2, [pc, #284]	@ (800438c <UART_CheckIdleState+0x14c>)
 8004270:	9200      	str	r2, [sp, #0]
 8004272:	2200      	movs	r2, #0
 8004274:	f000 f88e 	bl	8004394 <UART_WaitOnFlagUntilTimeout>
 8004278:	1e03      	subs	r3, r0, #0
 800427a:	d022      	beq.n	80042c2 <UART_CheckIdleState+0x82>
 */
__STATIC_FORCEINLINE uint32_t __get_PRIMASK(void)
{
  uint32_t result;

  __ASM volatile ("MRS %0, primask" : "=r" (result) :: "memory");
 800427c:	f3ef 8310 	mrs	r3, PRIMASK
 8004280:	627b      	str	r3, [r7, #36]	@ 0x24
  return(result);
 8004282:	6a7b      	ldr	r3, [r7, #36]	@ 0x24
    {
      /* Disable TXE interrupt for the interrupt process */
      ATOMIC_CLEAR_BIT(huart->Instance->CR1, (USART_CR1_TXEIE_TXFNFIE));
 8004284:	63bb      	str	r3, [r7, #56]	@ 0x38
 8004286:	2301      	movs	r3, #1
 8004288:	62bb      	str	r3, [r7, #40]	@ 0x28
  \details Assigns the given value to the Priority Mask Register.
  \param [in]    priMask  Priority Mask
 */
__STATIC_FORCEINLINE void __set_PRIMASK(uint32_t priMask)
{
  __ASM volatile ("MSR primask, %0" : : "r" (priMask) : "memory");
 800428a:	6abb      	ldr	r3, [r7, #40]	@ 0x28
 800428c:	f383 8810 	msr	PRIMASK, r3
}
 8004290:	46c0      	nop			@ (mov r8, r8)
 8004292:	687b      	ldr	r3, [r7, #4]
 8004294:	681b      	ldr	r3, [r3, #0]
 8004296:	681a      	ldr	r2, [r3, #0]
 8004298:	687b      	ldr	r3, [r7, #4]
 800429a:	681b      	ldr	r3, [r3, #0]
 800429c:	2180      	movs	r1, #128	@ 0x80
 800429e:	438a      	bics	r2, r1
 80042a0:	601a      	str	r2, [r3, #0]
 80042a2:	6bbb      	ldr	r3, [r7, #56]	@ 0x38
 80042a4:	62fb      	str	r3, [r7, #44]	@ 0x2c
  __ASM volatile ("MSR primask, %0" : : "r" (priMask) : "memory");
 80042a6:	6afb      	ldr	r3, [r7, #44]	@ 0x2c
 80042a8:	f383 8810 	msr	PRIMASK, r3
}
 80042ac:	46c0      	nop			@ (mov r8, r8)

      huart->gState = HAL_UART_STATE_READY;
 80042ae:	687b      	ldr	r3, [r7, #4]
 80042b0:	2288      	movs	r2, #136	@ 0x88
 80042b2:	2120      	movs	r1, #32
 80042b4:	5099      	str	r1, [r3, r2]

      __HAL_UNLOCK(huart);
 80042b6:	687b      	ldr	r3, [r7, #4]
 80042b8:	2284      	movs	r2, #132	@ 0x84
 80042ba:	2100      	movs	r1, #0
 80042bc:	5499      	strb	r1, [r3, r2]

      /* Timeout occurred */
      return HAL_TIMEOUT;
 80042be:	2303      	movs	r3, #3
 80042c0:	e060      	b.n	8004384 <UART_CheckIdleState+0x144>
    }
  }

  /* Check if the Receiver is enabled */
  if ((huart->Instance->CR1 & USART_CR1_RE) == USART_CR1_RE)
 80042c2:	687b      	ldr	r3, [r7, #4]
 80042c4:	681b      	ldr	r3, [r3, #0]
 80042c6:	681b      	ldr	r3, [r3, #0]
 80042c8:	2204      	movs	r2, #4
 80042ca:	4013      	ands	r3, r2
 80042cc:	2b04      	cmp	r3, #4
 80042ce:	d146      	bne.n	800435e <UART_CheckIdleState+0x11e>
  {
    /* Wait until REACK flag is set */
    if (UART_WaitOnFlagUntilTimeout(huart, USART_ISR_REACK, RESET, tickstart, HAL_UART_TIMEOUT_VALUE) != HAL_OK)
 80042d0:	6bfb      	ldr	r3, [r7, #60]	@ 0x3c
 80042d2:	2280      	movs	r2, #128	@ 0x80
 80042d4:	03d1      	lsls	r1, r2, #15
 80042d6:	6878      	ldr	r0, [r7, #4]
 80042d8:	4a2c      	ldr	r2, [pc, #176]	@ (800438c <UART_CheckIdleState+0x14c>)
 80042da:	9200      	str	r2, [sp, #0]
 80042dc:	2200      	movs	r2, #0
 80042de:	f000 f859 	bl	8004394 <UART_WaitOnFlagUntilTimeout>
 80042e2:	1e03      	subs	r3, r0, #0
 80042e4:	d03b      	beq.n	800435e <UART_CheckIdleState+0x11e>
  __ASM volatile ("MRS %0, primask" : "=r" (result) :: "memory");
 80042e6:	f3ef 8310 	mrs	r3, PRIMASK
 80042ea:	60fb      	str	r3, [r7, #12]
  return(result);
 80042ec:	68fb      	ldr	r3, [r7, #12]
    {
      /* Disable RXNE, PE and ERR (Frame error, noise error, overrun error)
      interrupts for the interrupt process */
      ATOMIC_CLEAR_BIT(huart->Instance->CR1, (USART_CR1_RXNEIE_RXFNEIE | USART_CR1_PEIE));
 80042ee:	637b      	str	r3, [r7, #52]	@ 0x34
 80042f0:	2301      	movs	r3, #1
 80042f2:	613b      	str	r3, [r7, #16]
  __ASM volatile ("MSR primask, %0" : : "r" (priMask) : "memory");
 80042f4:	693b      	ldr	r3, [r7, #16]
 80042f6:	f383 8810 	msr	PRIMASK, r3
}
 80042fa:	46c0      	nop			@ (mov r8, r8)
 80042fc:	687b      	ldr	r3, [r7, #4]
 80042fe:	681b      	ldr	r3, [r3, #0]
 8004300:	681a      	ldr	r2, [r3, #0]
 8004302:	687b      	ldr	r3, [r7, #4]
 8004304:	681b      	ldr	r3, [r3, #0]
 8004306:	4922      	ldr	r1, [pc, #136]	@ (8004390 <UART_CheckIdleState+0x150>)
 8004308:	400a      	ands	r2, r1
 800430a:	601a      	str	r2, [r3, #0]
 800430c:	6b7b      	ldr	r3, [r7, #52]	@ 0x34
 800430e:	617b      	str	r3, [r7, #20]
  __ASM volatile ("MSR primask, %0" : : "r" (priMask) : "memory");
 8004310:	697b      	ldr	r3, [r7, #20]
 8004312:	f383 8810 	msr	PRIMASK, r3
}
 8004316:	46c0      	nop			@ (mov r8, r8)
  __ASM volatile ("MRS %0, primask" : "=r" (result) :: "memory");
 8004318:	f3ef 8310 	mrs	r3, PRIMASK
 800431c:	61bb      	str	r3, [r7, #24]
  return(result);
 800431e:	69bb      	ldr	r3, [r7, #24]
      ATOMIC_CLEAR_BIT(huart->Instance->CR3, USART_CR3_EIE);
 8004320:	633b      	str	r3, [r7, #48]	@ 0x30
 8004322:	2301      	movs	r3, #1
 8004324:	61fb      	str	r3, [r7, #28]
  __ASM volatile ("MSR primask, %0" : : "r" (priMask) : "memory");
 8004326:	69fb      	ldr	r3, [r7, #28]
 8004328:	f383 8810 	msr	PRIMASK, r3
}
 800432c:	46c0      	nop			@ (mov r8, r8)
 800432e:	687b      	ldr	r3, [r7, #4]
 8004330:	681b      	ldr	r3, [r3, #0]
 8004332:	689a      	ldr	r2, [r3, #8]
 8004334:	687b      	ldr	r3, [r7, #4]
 8004336:	681b      	ldr	r3, [r3, #0]
 8004338:	2101      	movs	r1, #1
 800433a:	438a      	bics	r2, r1
 800433c:	609a      	str	r2, [r3, #8]
 800433e:	6b3b      	ldr	r3, [r7, #48]	@ 0x30
 8004340:	623b      	str	r3, [r7, #32]
  __ASM volatile ("MSR primask, %0" : : "r" (priMask) : "memory");
 8004342:	6a3b      	ldr	r3, [r7, #32]
 8004344:	f383 8810 	msr	PRIMASK, r3
}
 8004348:	46c0      	nop			@ (mov r8, r8)

      huart->RxState = HAL_UART_STATE_READY;
 800434a:	687b      	ldr	r3, [r7, #4]
 800434c:	228c      	movs	r2, #140	@ 0x8c
 800434e:	2120      	movs	r1, #32
 8004350:	5099      	str	r1, [r3, r2]

      __HAL_UNLOCK(huart);
 8004352:	687b      	ldr	r3, [r7, #4]
 8004354:	2284      	movs	r2, #132	@ 0x84
 8004356:	2100      	movs	r1, #0
 8004358:	5499      	strb	r1, [r3, r2]

      /* Timeout occurred */
      return HAL_TIMEOUT;
 800435a:	2303      	movs	r3, #3
 800435c:	e012      	b.n	8004384 <UART_CheckIdleState+0x144>
    }
  }

  /* Initialize the UART State */
  huart->gState = HAL_UART_STATE_READY;
 800435e:	687b      	ldr	r3, [r7, #4]
 8004360:	2288      	movs	r2, #136	@ 0x88
 8004362:	2120      	movs	r1, #32
 8004364:	5099      	str	r1, [r3, r2]
  huart->RxState = HAL_UART_STATE_READY;
 8004366:	687b      	ldr	r3, [r7, #4]
 8004368:	228c      	movs	r2, #140	@ 0x8c
 800436a:	2120      	movs	r1, #32
 800436c:	5099      	str	r1, [r3, r2]
  huart->ReceptionType = HAL_UART_RECEPTION_STANDARD;
 800436e:	687b      	ldr	r3, [r7, #4]
 8004370:	2200      	movs	r2, #0
 8004372:	66da      	str	r2, [r3, #108]	@ 0x6c
  huart->RxEventType = HAL_UART_RXEVENT_TC;
 8004374:	687b      	ldr	r3, [r7, #4]
 8004376:	2200      	movs	r2, #0
 8004378:	671a      	str	r2, [r3, #112]	@ 0x70

  __HAL_UNLOCK(huart);
 800437a:	687b      	ldr	r3, [r7, #4]
 800437c:	2284      	movs	r2, #132	@ 0x84
 800437e:	2100      	movs	r1, #0
 8004380:	5499      	strb	r1, [r3, r2]

  return HAL_OK;
 8004382:	2300      	movs	r3, #0
}
 8004384:	0018      	movs	r0, r3
 8004386:	46bd      	mov	sp, r7
 8004388:	b010      	add	sp, #64	@ 0x40
 800438a:	bd80      	pop	{r7, pc}
 800438c:	01ffffff 	.word	0x01ffffff
 8004390:	fffffedf 	.word	0xfffffedf

08004394 <UART_WaitOnFlagUntilTimeout>:
  * @param Timeout   Timeout duration
  * @retval HAL status
  */
HAL_StatusTypeDef UART_WaitOnFlagUntilTimeout(UART_HandleTypeDef *huart, uint32_t Flag, FlagStatus Status,
                                              uint32_t Tickstart, uint32_t Timeout)
{
 8004394:	b580      	push	{r7, lr}
 8004396:	b084      	sub	sp, #16
 8004398:	af00      	add	r7, sp, #0
 800439a:	60f8      	str	r0, [r7, #12]
 800439c:	60b9      	str	r1, [r7, #8]
 800439e:	603b      	str	r3, [r7, #0]
 80043a0:	1dfb      	adds	r3, r7, #7
 80043a2:	701a      	strb	r2, [r3, #0]
  /* Wait until flag is set */
  while ((__HAL_UART_GET_FLAG(huart, Flag) ? SET : RESET) == Status)
 80043a4:	e051      	b.n	800444a <UART_WaitOnFlagUntilTimeout+0xb6>
  {
    /* Check for the Timeout */
    if (Timeout != HAL_MAX_DELAY)
 80043a6:	69bb      	ldr	r3, [r7, #24]
 80043a8:	3301      	adds	r3, #1
 80043aa:	d04e      	beq.n	800444a <UART_WaitOnFlagUntilTimeout+0xb6>
    {
      if (((HAL_GetTick() - Tickstart) > Timeout) || (Timeout == 0U))
 80043ac:	f7fc fd90 	bl	8000ed0 <HAL_GetTick>
 80043b0:	0002      	movs	r2, r0
 80043b2:	683b      	ldr	r3, [r7, #0]
 80043b4:	1ad3      	subs	r3, r2, r3
 80043b6:	69ba      	ldr	r2, [r7, #24]
 80043b8:	429a      	cmp	r2, r3
 80043ba:	d302      	bcc.n	80043c2 <UART_WaitOnFlagUntilTimeout+0x2e>
 80043bc:	69bb      	ldr	r3, [r7, #24]
 80043be:	2b00      	cmp	r3, #0
 80043c0:	d101      	bne.n	80043c6 <UART_WaitOnFlagUntilTimeout+0x32>
      {

        return HAL_TIMEOUT;
 80043c2:	2303      	movs	r3, #3
 80043c4:	e051      	b.n	800446a <UART_WaitOnFlagUntilTimeout+0xd6>
      }

      if ((READ_BIT(huart->Instance->CR1, USART_CR1_RE) != 0U) && (Flag != UART_FLAG_TXE) && (Flag != UART_FLAG_TC))
 80043c6:	68fb      	ldr	r3, [r7, #12]
 80043c8:	681b      	ldr	r3, [r3, #0]
 80043ca:	681b      	ldr	r3, [r3, #0]
 80043cc:	2204      	movs	r2, #4
 80043ce:	4013      	ands	r3, r2
 80043d0:	d03b      	beq.n	800444a <UART_WaitOnFlagUntilTimeout+0xb6>
 80043d2:	68bb      	ldr	r3, [r7, #8]
 80043d4:	2b80      	cmp	r3, #128	@ 0x80
 80043d6:	d038      	beq.n	800444a <UART_WaitOnFlagUntilTimeout+0xb6>
 80043d8:	68bb      	ldr	r3, [r7, #8]
 80043da:	2b40      	cmp	r3, #64	@ 0x40
 80043dc:	d035      	beq.n	800444a <UART_WaitOnFlagUntilTimeout+0xb6>
      {
        if (__HAL_UART_GET_FLAG(huart, UART_FLAG_ORE) == SET)
 80043de:	68fb      	ldr	r3, [r7, #12]
 80043e0:	681b      	ldr	r3, [r3, #0]
 80043e2:	69db      	ldr	r3, [r3, #28]
 80043e4:	2208      	movs	r2, #8
 80043e6:	4013      	ands	r3, r2
 80043e8:	2b08      	cmp	r3, #8
 80043ea:	d111      	bne.n	8004410 <UART_WaitOnFlagUntilTimeout+0x7c>
        {
          /* Clear Overrun Error flag*/
          __HAL_UART_CLEAR_FLAG(huart, UART_CLEAR_OREF);
 80043ec:	68fb      	ldr	r3, [r7, #12]
 80043ee:	681b      	ldr	r3, [r3, #0]
 80043f0:	2208      	movs	r2, #8
 80043f2:	621a      	str	r2, [r3, #32]

          /* Blocking error : transfer is aborted
          Set the UART state ready to be able to start again the process,
          Disable Rx Interrupts if ongoing */
          UART_EndRxTransfer(huart);
 80043f4:	68fb      	ldr	r3, [r7, #12]
 80043f6:	0018      	movs	r0, r3
 80043f8:	f000 f83c 	bl	8004474 <UART_EndRxTransfer>

          huart->ErrorCode = HAL_UART_ERROR_ORE;
 80043fc:	68fb      	ldr	r3, [r7, #12]
 80043fe:	2290      	movs	r2, #144	@ 0x90
 8004400:	2108      	movs	r1, #8
 8004402:	5099      	str	r1, [r3, r2]

          /* Process Unlocked */
          __HAL_UNLOCK(huart);
 8004404:	68fb      	ldr	r3, [r7, #12]
 8004406:	2284      	movs	r2, #132	@ 0x84
 8004408:	2100      	movs	r1, #0
 800440a:	5499      	strb	r1, [r3, r2]

          return HAL_ERROR;
 800440c:	2301      	movs	r3, #1
 800440e:	e02c      	b.n	800446a <UART_WaitOnFlagUntilTimeout+0xd6>
        }
        if (__HAL_UART_GET_FLAG(huart, UART_FLAG_RTOF) == SET)
 8004410:	68fb      	ldr	r3, [r7, #12]
 8004412:	681b      	ldr	r3, [r3, #0]
 8004414:	69da      	ldr	r2, [r3, #28]
 8004416:	2380      	movs	r3, #128	@ 0x80
 8004418:	011b      	lsls	r3, r3, #4
 800441a:	401a      	ands	r2, r3
 800441c:	2380      	movs	r3, #128	@ 0x80
 800441e:	011b      	lsls	r3, r3, #4
 8004420:	429a      	cmp	r2, r3
 8004422:	d112      	bne.n	800444a <UART_WaitOnFlagUntilTimeout+0xb6>
        {
          /* Clear Receiver Timeout flag*/
          __HAL_UART_CLEAR_FLAG(huart, UART_CLEAR_RTOF);
 8004424:	68fb      	ldr	r3, [r7, #12]
 8004426:	681b      	ldr	r3, [r3, #0]
 8004428:	2280      	movs	r2, #128	@ 0x80
 800442a:	0112      	lsls	r2, r2, #4
 800442c:	621a      	str	r2, [r3, #32]

          /* Blocking error : transfer is aborted
          Set the UART state ready to be able to start again the process,
          Disable Rx Interrupts if ongoing */
          UART_EndRxTransfer(huart);
 800442e:	68fb      	ldr	r3, [r7, #12]
 8004430:	0018      	movs	r0, r3
 8004432:	f000 f81f 	bl	8004474 <UART_EndRxTransfer>

          huart->ErrorCode = HAL_UART_ERROR_RTO;
 8004436:	68fb      	ldr	r3, [r7, #12]
 8004438:	2290      	movs	r2, #144	@ 0x90
 800443a:	2120      	movs	r1, #32
 800443c:	5099      	str	r1, [r3, r2]

          /* Process Unlocked */
          __HAL_UNLOCK(huart);
 800443e:	68fb      	ldr	r3, [r7, #12]
 8004440:	2284      	movs	r2, #132	@ 0x84
 8004442:	2100      	movs	r1, #0
 8004444:	5499      	strb	r1, [r3, r2]

          return HAL_TIMEOUT;
 8004446:	2303      	movs	r3, #3
 8004448:	e00f      	b.n	800446a <UART_WaitOnFlagUntilTimeout+0xd6>
  while ((__HAL_UART_GET_FLAG(huart, Flag) ? SET : RESET) == Status)
 800444a:	68fb      	ldr	r3, [r7, #12]
 800444c:	681b      	ldr	r3, [r3, #0]
 800444e:	69db      	ldr	r3, [r3, #28]
 8004450:	68ba      	ldr	r2, [r7, #8]
 8004452:	4013      	ands	r3, r2
 8004454:	68ba      	ldr	r2, [r7, #8]
 8004456:	1ad3      	subs	r3, r2, r3
 8004458:	425a      	negs	r2, r3
 800445a:	4153      	adcs	r3, r2
 800445c:	b2db      	uxtb	r3, r3
 800445e:	001a      	movs	r2, r3
 8004460:	1dfb      	adds	r3, r7, #7
 8004462:	781b      	ldrb	r3, [r3, #0]
 8004464:	429a      	cmp	r2, r3
 8004466:	d09e      	beq.n	80043a6 <UART_WaitOnFlagUntilTimeout+0x12>
        }
      }
    }
  }
  return HAL_OK;
 8004468:	2300      	movs	r3, #0
}
 800446a:	0018      	movs	r0, r3
 800446c:	46bd      	mov	sp, r7
 800446e:	b004      	add	sp, #16
 8004470:	bd80      	pop	{r7, pc}
	...

08004474 <UART_EndRxTransfer>:
  * @brief  End ongoing Rx transfer on UART peripheral (following error detection or Reception completion).
  * @param  huart UART handle.
  * @retval None
  */
static void UART_EndRxTransfer(UART_HandleTypeDef *huart)
{
 8004474:	b580      	push	{r7, lr}
 8004476:	b08e      	sub	sp, #56	@ 0x38
 8004478:	af00      	add	r7, sp, #0
 800447a:	6078      	str	r0, [r7, #4]
  __ASM volatile ("MRS %0, primask" : "=r" (result) :: "memory");
 800447c:	f3ef 8310 	mrs	r3, PRIMASK
 8004480:	617b      	str	r3, [r7, #20]
  return(result);
 8004482:	697b      	ldr	r3, [r7, #20]
  /* Disable RXNE, PE and ERR (Frame error, noise error, overrun error) interrupts */
  ATOMIC_CLEAR_BIT(huart->Instance->CR1, (USART_CR1_RXNEIE_RXFNEIE | USART_CR1_PEIE));
 8004484:	637b      	str	r3, [r7, #52]	@ 0x34
 8004486:	2301      	movs	r3, #1
 8004488:	61bb      	str	r3, [r7, #24]
  __ASM volatile ("MSR primask, %0" : : "r" (priMask) : "memory");
 800448a:	69bb      	ldr	r3, [r7, #24]
 800448c:	f383 8810 	msr	PRIMASK, r3
}
 8004490:	46c0      	nop			@ (mov r8, r8)
 8004492:	687b      	ldr	r3, [r7, #4]
 8004494:	681b      	ldr	r3, [r3, #0]
 8004496:	681a      	ldr	r2, [r3, #0]
 8004498:	687b      	ldr	r3, [r7, #4]
 800449a:	681b      	ldr	r3, [r3, #0]
 800449c:	4926      	ldr	r1, [pc, #152]	@ (8004538 <UART_EndRxTransfer+0xc4>)
 800449e:	400a      	ands	r2, r1
 80044a0:	601a      	str	r2, [r3, #0]
 80044a2:	6b7b      	ldr	r3, [r7, #52]	@ 0x34
 80044a4:	61fb      	str	r3, [r7, #28]
  __ASM volatile ("MSR primask, %0" : : "r" (priMask) : "memory");
 80044a6:	69fb      	ldr	r3, [r7, #28]
 80044a8:	f383 8810 	msr	PRIMASK, r3
}
 80044ac:	46c0      	nop			@ (mov r8, r8)
  __ASM volatile ("MRS %0, primask" : "=r" (result) :: "memory");
 80044ae:	f3ef 8310 	mrs	r3, PRIMASK
 80044b2:	623b      	str	r3, [r7, #32]
  return(result);
 80044b4:	6a3b      	ldr	r3, [r7, #32]
  ATOMIC_CLEAR_BIT(huart->Instance->CR3, (USART_CR3_EIE | USART_CR3_RXFTIE));
 80044b6:	633b      	str	r3, [r7, #48]	@ 0x30
 80044b8:	2301      	movs	r3, #1
 80044ba:	627b      	str	r3, [r7, #36]	@ 0x24
  __ASM volatile ("MSR primask, %0" : : "r" (priMask) : "memory");
 80044bc:	6a7b      	ldr	r3, [r7, #36]	@ 0x24
 80044be:	f383 8810 	msr	PRIMASK, r3
}
 80044c2:	46c0      	nop			@ (mov r8, r8)
 80044c4:	687b      	ldr	r3, [r7, #4]
 80044c6:	681b      	ldr	r3, [r3, #0]
 80044c8:	689a      	ldr	r2, [r3, #8]
 80044ca:	687b      	ldr	r3, [r7, #4]
 80044cc:	681b      	ldr	r3, [r3, #0]
 80044ce:	491b      	ldr	r1, [pc, #108]	@ (800453c <UART_EndRxTransfer+0xc8>)
 80044d0:	400a      	ands	r2, r1
 80044d2:	609a      	str	r2, [r3, #8]
 80044d4:	6b3b      	ldr	r3, [r7, #48]	@ 0x30
 80044d6:	62bb      	str	r3, [r7, #40]	@ 0x28
  __ASM volatile ("MSR primask, %0" : : "r" (priMask) : "memory");
 80044d8:	6abb      	ldr	r3, [r7, #40]	@ 0x28
 80044da:	f383 8810 	msr	PRIMASK, r3
}
 80044de:	46c0      	nop			@ (mov r8, r8)

  /* In case of reception waiting for IDLE event, disable also the IDLE IE interrupt source */
  if (huart->ReceptionType == HAL_UART_RECEPTION_TOIDLE)
 80044e0:	687b      	ldr	r3, [r7, #4]
 80044e2:	6edb      	ldr	r3, [r3, #108]	@ 0x6c
 80044e4:	2b01      	cmp	r3, #1
 80044e6:	d118      	bne.n	800451a <UART_EndRxTransfer+0xa6>
  __ASM volatile ("MRS %0, primask" : "=r" (result) :: "memory");
 80044e8:	f3ef 8310 	mrs	r3, PRIMASK
 80044ec:	60bb      	str	r3, [r7, #8]
  return(result);
 80044ee:	68bb      	ldr	r3, [r7, #8]
  {
    ATOMIC_CLEAR_BIT(huart->Instance->CR1, USART_CR1_IDLEIE);
 80044f0:	62fb      	str	r3, [r7, #44]	@ 0x2c
 80044f2:	2301      	movs	r3, #1
 80044f4:	60fb      	str	r3, [r7, #12]
  __ASM volatile ("MSR primask, %0" : : "r" (priMask) : "memory");
 80044f6:	68fb      	ldr	r3, [r7, #12]
 80044f8:	f383 8810 	msr	PRIMASK, r3
}
 80044fc:	46c0      	nop			@ (mov r8, r8)
 80044fe:	687b      	ldr	r3, [r7, #4]
 8004500:	681b      	ldr	r3, [r3, #0]
 8004502:	681a      	ldr	r2, [r3, #0]
 8004504:	687b      	ldr	r3, [r7, #4]
 8004506:	681b      	ldr	r3, [r3, #0]
 8004508:	2110      	movs	r1, #16
 800450a:	438a      	bics	r2, r1
 800450c:	601a      	str	r2, [r3, #0]
 800450e:	6afb      	ldr	r3, [r7, #44]	@ 0x2c
 8004510:	613b      	str	r3, [r7, #16]
  __ASM volatile ("MSR primask, %0" : : "r" (priMask) : "memory");
 8004512:	693b      	ldr	r3, [r7, #16]
 8004514:	f383 8810 	msr	PRIMASK, r3
}
 8004518:	46c0      	nop			@ (mov r8, r8)
  }

  /* At end of Rx process, restore huart->RxState to Ready */
  huart->RxState = HAL_UART_STATE_READY;
 800451a:	687b      	ldr	r3, [r7, #4]
 800451c:	228c      	movs	r2, #140	@ 0x8c
 800451e:	2120      	movs	r1, #32
 8004520:	5099      	str	r1, [r3, r2]
  huart->ReceptionType = HAL_UART_RECEPTION_STANDARD;
 8004522:	687b      	ldr	r3, [r7, #4]
 8004524:	2200      	movs	r2, #0
 8004526:	66da      	str	r2, [r3, #108]	@ 0x6c

  /* Reset RxIsr function pointer */
  huart->RxISR = NULL;
 8004528:	687b      	ldr	r3, [r7, #4]
 800452a:	2200      	movs	r2, #0
 800452c:	675a      	str	r2, [r3, #116]	@ 0x74
}
 800452e:	46c0      	nop			@ (mov r8, r8)
 8004530:	46bd      	mov	sp, r7
 8004532:	b00e      	add	sp, #56	@ 0x38
 8004534:	bd80      	pop	{r7, pc}
 8004536:	46c0      	nop			@ (mov r8, r8)
 8004538:	fffffedf 	.word	0xfffffedf
 800453c:	effffffe 	.word	0xeffffffe

08004540 <HAL_UARTEx_DisableFifoMode>:
  * @brief  Disable the FIFO mode.
  * @param huart      UART handle.
  * @retval HAL status
  */
HAL_StatusTypeDef HAL_UARTEx_DisableFifoMode(UART_HandleTypeDef *huart)
{
 8004540:	b580      	push	{r7, lr}
 8004542:	b084      	sub	sp, #16
 8004544:	af00      	add	r7, sp, #0
 8004546:	6078      	str	r0, [r7, #4]

  /* Check parameters */
  assert_param(IS_UART_FIFO_INSTANCE(huart->Instance));

  /* Process Locked */
  __HAL_LOCK(huart);
 8004548:	687b      	ldr	r3, [r7, #4]
 800454a:	2284      	movs	r2, #132	@ 0x84
 800454c:	5c9b      	ldrb	r3, [r3, r2]
 800454e:	2b01      	cmp	r3, #1
 8004550:	d101      	bne.n	8004556 <HAL_UARTEx_DisableFifoMode+0x16>
 8004552:	2302      	movs	r3, #2
 8004554:	e027      	b.n	80045a6 <HAL_UARTEx_DisableFifoMode+0x66>
 8004556:	687b      	ldr	r3, [r7, #4]
 8004558:	2284      	movs	r2, #132	@ 0x84
 800455a:	2101      	movs	r1, #1
 800455c:	5499      	strb	r1, [r3, r2]

  huart->gState = HAL_UART_STATE_BUSY;
 800455e:	687b      	ldr	r3, [r7, #4]
 8004560:	2288      	movs	r2, #136	@ 0x88
 8004562:	2124      	movs	r1, #36	@ 0x24
 8004564:	5099      	str	r1, [r3, r2]

  /* Save actual UART configuration */
  tmpcr1 = READ_REG(huart->Instance->CR1);
 8004566:	687b      	ldr	r3, [r7, #4]
 8004568:	681b      	ldr	r3, [r3, #0]
 800456a:	681b      	ldr	r3, [r3, #0]
 800456c:	60fb      	str	r3, [r7, #12]

  /* Disable UART */
  __HAL_UART_DISABLE(huart);
 800456e:	687b      	ldr	r3, [r7, #4]
 8004570:	681b      	ldr	r3, [r3, #0]
 8004572:	681a      	ldr	r2, [r3, #0]
 8004574:	687b      	ldr	r3, [r7, #4]
 8004576:	681b      	ldr	r3, [r3, #0]
 8004578:	2101      	movs	r1, #1
 800457a:	438a      	bics	r2, r1
 800457c:	601a      	str	r2, [r3, #0]

  /* Enable FIFO mode */
  CLEAR_BIT(tmpcr1, USART_CR1_FIFOEN);
 800457e:	68fb      	ldr	r3, [r7, #12]
 8004580:	4a0b      	ldr	r2, [pc, #44]	@ (80045b0 <HAL_UARTEx_DisableFifoMode+0x70>)
 8004582:	4013      	ands	r3, r2
 8004584:	60fb      	str	r3, [r7, #12]
  huart->FifoMode = UART_FIFOMODE_DISABLE;
 8004586:	687b      	ldr	r3, [r7, #4]
 8004588:	2200      	movs	r2, #0
 800458a:	665a      	str	r2, [r3, #100]	@ 0x64

  /* Restore UART configuration */
  WRITE_REG(huart->Instance->CR1, tmpcr1);
 800458c:	687b      	ldr	r3, [r7, #4]
 800458e:	681b      	ldr	r3, [r3, #0]
 8004590:	68fa      	ldr	r2, [r7, #12]
 8004592:	601a      	str	r2, [r3, #0]

  huart->gState = HAL_UART_STATE_READY;
 8004594:	687b      	ldr	r3, [r7, #4]
 8004596:	2288      	movs	r2, #136	@ 0x88
 8004598:	2120      	movs	r1, #32
 800459a:	5099      	str	r1, [r3, r2]

  /* Process Unlocked */
  __HAL_UNLOCK(huart);
 800459c:	687b      	ldr	r3, [r7, #4]
 800459e:	2284      	movs	r2, #132	@ 0x84
 80045a0:	2100      	movs	r1, #0
 80045a2:	5499      	strb	r1, [r3, r2]

  return HAL_OK;
 80045a4:	2300      	movs	r3, #0
}
 80045a6:	0018      	movs	r0, r3
 80045a8:	46bd      	mov	sp, r7
 80045aa:	b004      	add	sp, #16
 80045ac:	bd80      	pop	{r7, pc}
 80045ae:	46c0      	nop			@ (mov r8, r8)
 80045b0:	dfffffff 	.word	0xdfffffff

080045b4 <HAL_UARTEx_SetTxFifoThreshold>:
  *            @arg @ref UART_TXFIFO_THRESHOLD_7_8
  *            @arg @ref UART_TXFIFO_THRESHOLD_8_8
  * @retval HAL status
  */
HAL_StatusTypeDef HAL_UARTEx_SetTxFifoThreshold(UART_HandleTypeDef *huart, uint32_t Threshold)
{
 80045b4:	b580      	push	{r7, lr}
 80045b6:	b084      	sub	sp, #16
 80045b8:	af00      	add	r7, sp, #0
 80045ba:	6078      	str	r0, [r7, #4]
 80045bc:	6039      	str	r1, [r7, #0]
  /* Check parameters */
  assert_param(IS_UART_FIFO_INSTANCE(huart->Instance));
  assert_param(IS_UART_TXFIFO_THRESHOLD(Threshold));

  /* Process Locked */
  __HAL_LOCK(huart);
 80045be:	687b      	ldr	r3, [r7, #4]
 80045c0:	2284      	movs	r2, #132	@ 0x84
 80045c2:	5c9b      	ldrb	r3, [r3, r2]
 80045c4:	2b01      	cmp	r3, #1
 80045c6:	d101      	bne.n	80045cc <HAL_UARTEx_SetTxFifoThreshold+0x18>
 80045c8:	2302      	movs	r3, #2
 80045ca:	e02e      	b.n	800462a <HAL_UARTEx_SetTxFifoThreshold+0x76>
 80045cc:	687b      	ldr	r3, [r7, #4]
 80045ce:	2284      	movs	r2, #132	@ 0x84
 80045d0:	2101      	movs	r1, #1
 80045d2:	5499      	strb	r1, [r3, r2]

  huart->gState = HAL_UART_STATE_BUSY;
 80045d4:	687b      	ldr	r3, [r7, #4]
 80045d6:	2288      	movs	r2, #136	@ 0x88
 80045d8:	2124      	movs	r1, #36	@ 0x24
 80045da:	5099      	str	r1, [r3, r2]

  /* Save actual UART configuration */
  tmpcr1 = READ_REG(huart->Instance->CR1);
 80045dc:	687b      	ldr	r3, [r7, #4]
 80045de:	681b      	ldr	r3, [r3, #0]
 80045e0:	681b      	ldr	r3, [r3, #0]
 80045e2:	60fb      	str	r3, [r7, #12]

  /* Disable UART */
  __HAL_UART_DISABLE(huart);
 80045e4:	687b      	ldr	r3, [r7, #4]
 80045e6:	681b      	ldr	r3, [r3, #0]
 80045e8:	681a      	ldr	r2, [r3, #0]
 80045ea:	687b      	ldr	r3, [r7, #4]
 80045ec:	681b      	ldr	r3, [r3, #0]
 80045ee:	2101      	movs	r1, #1
 80045f0:	438a      	bics	r2, r1
 80045f2:	601a      	str	r2, [r3, #0]

  /* Update TX threshold configuration */
  MODIFY_REG(huart->Instance->CR3, USART_CR3_TXFTCFG, Threshold);
 80045f4:	687b      	ldr	r3, [r7, #4]
 80045f6:	681b      	ldr	r3, [r3, #0]
 80045f8:	689b      	ldr	r3, [r3, #8]
 80045fa:	00db      	lsls	r3, r3, #3
 80045fc:	08d9      	lsrs	r1, r3, #3
 80045fe:	687b      	ldr	r3, [r7, #4]
 8004600:	681b      	ldr	r3, [r3, #0]
 8004602:	683a      	ldr	r2, [r7, #0]
 8004604:	430a      	orrs	r2, r1
 8004606:	609a      	str	r2, [r3, #8]

  /* Determine the number of data to process during RX/TX ISR execution */
  UARTEx_SetNbDataToProcess(huart);
 8004608:	687b      	ldr	r3, [r7, #4]
 800460a:	0018      	movs	r0, r3
 800460c:	f000 f854 	bl	80046b8 <UARTEx_SetNbDataToProcess>

  /* Restore UART configuration */
  WRITE_REG(huart->Instance->CR1, tmpcr1);
 8004610:	687b      	ldr	r3, [r7, #4]
 8004612:	681b      	ldr	r3, [r3, #0]
 8004614:	68fa      	ldr	r2, [r7, #12]
 8004616:	601a      	str	r2, [r3, #0]

  huart->gState = HAL_UART_STATE_READY;
 8004618:	687b      	ldr	r3, [r7, #4]
 800461a:	2288      	movs	r2, #136	@ 0x88
 800461c:	2120      	movs	r1, #32
 800461e:	5099      	str	r1, [r3, r2]

  /* Process Unlocked */
  __HAL_UNLOCK(huart);
 8004620:	687b      	ldr	r3, [r7, #4]
 8004622:	2284      	movs	r2, #132	@ 0x84
 8004624:	2100      	movs	r1, #0
 8004626:	5499      	strb	r1, [r3, r2]

  return HAL_OK;
 8004628:	2300      	movs	r3, #0
}
 800462a:	0018      	movs	r0, r3
 800462c:	46bd      	mov	sp, r7
 800462e:	b004      	add	sp, #16
 8004630:	bd80      	pop	{r7, pc}
	...

08004634 <HAL_UARTEx_SetRxFifoThreshold>:
  *            @arg @ref UART_RXFIFO_THRESHOLD_7_8
  *            @arg @ref UART_RXFIFO_THRESHOLD_8_8
  * @retval HAL status
  */
HAL_StatusTypeDef HAL_UARTEx_SetRxFifoThreshold(UART_HandleTypeDef *huart, uint32_t Threshold)
{
 8004634:	b580      	push	{r7, lr}
 8004636:	b084      	sub	sp, #16
 8004638:	af00      	add	r7, sp, #0
 800463a:	6078      	str	r0, [r7, #4]
 800463c:	6039      	str	r1, [r7, #0]
  /* Check the parameters */
  assert_param(IS_UART_FIFO_INSTANCE(huart->Instance));
  assert_param(IS_UART_RXFIFO_THRESHOLD(Threshold));

  /* Process Locked */
  __HAL_LOCK(huart);
 800463e:	687b      	ldr	r3, [r7, #4]
 8004640:	2284      	movs	r2, #132	@ 0x84
 8004642:	5c9b      	ldrb	r3, [r3, r2]
 8004644:	2b01      	cmp	r3, #1
 8004646:	d101      	bne.n	800464c <HAL_UARTEx_SetRxFifoThreshold+0x18>
 8004648:	2302      	movs	r3, #2
 800464a:	e02f      	b.n	80046ac <HAL_UARTEx_SetRxFifoThreshold+0x78>
 800464c:	687b      	ldr	r3, [r7, #4]
 800464e:	2284      	movs	r2, #132	@ 0x84
 8004650:	2101      	movs	r1, #1
 8004652:	5499      	strb	r1, [r3, r2]

  huart->gState = HAL_UART_STATE_BUSY;
 8004654:	687b      	ldr	r3, [r7, #4]
 8004656:	2288      	movs	r2, #136	@ 0x88
 8004658:	2124      	movs	r1, #36	@ 0x24
 800465a:	5099      	str	r1, [r3, r2]

  /* Save actual UART configuration */
  tmpcr1 = READ_REG(huart->Instance->CR1);
 800465c:	687b      	ldr	r3, [r7, #4]
 800465e:	681b      	ldr	r3, [r3, #0]
 8004660:	681b      	ldr	r3, [r3, #0]
 8004662:	60fb      	str	r3, [r7, #12]

  /* Disable UART */
  __HAL_UART_DISABLE(huart);
 8004664:	687b      	ldr	r3, [r7, #4]
 8004666:	681b      	ldr	r3, [r3, #0]
 8004668:	681a      	ldr	r2, [r3, #0]
 800466a:	687b      	ldr	r3, [r7, #4]
 800466c:	681b      	ldr	r3, [r3, #0]
 800466e:	2101      	movs	r1, #1
 8004670:	438a      	bics	r2, r1
 8004672:	601a      	str	r2, [r3, #0]

  /* Update RX threshold configuration */
  MODIFY_REG(huart->Instance->CR3, USART_CR3_RXFTCFG, Threshold);
 8004674:	687b      	ldr	r3, [r7, #4]
 8004676:	681b      	ldr	r3, [r3, #0]
 8004678:	689b      	ldr	r3, [r3, #8]
 800467a:	4a0e      	ldr	r2, [pc, #56]	@ (80046b4 <HAL_UARTEx_SetRxFifoThreshold+0x80>)
 800467c:	4013      	ands	r3, r2
 800467e:	0019      	movs	r1, r3
 8004680:	687b      	ldr	r3, [r7, #4]
 8004682:	681b      	ldr	r3, [r3, #0]
 8004684:	683a      	ldr	r2, [r7, #0]
 8004686:	430a      	orrs	r2, r1
 8004688:	609a      	str	r2, [r3, #8]

  /* Determine the number of data to process during RX/TX ISR execution */
  UARTEx_SetNbDataToProcess(huart);
 800468a:	687b      	ldr	r3, [r7, #4]
 800468c:	0018      	movs	r0, r3
 800468e:	f000 f813 	bl	80046b8 <UARTEx_SetNbDataToProcess>

  /* Restore UART configuration */
  WRITE_REG(huart->Instance->CR1, tmpcr1);
 8004692:	687b      	ldr	r3, [r7, #4]
 8004694:	681b      	ldr	r3, [r3, #0]
 8004696:	68fa      	ldr	r2, [r7, #12]
 8004698:	601a      	str	r2, [r3, #0]

  huart->gState = HAL_UART_STATE_READY;
 800469a:	687b      	ldr	r3, [r7, #4]
 800469c:	2288      	movs	r2, #136	@ 0x88
 800469e:	2120      	movs	r1, #32
 80046a0:	5099      	str	r1, [r3, r2]

  /* Process Unlocked */
  __HAL_UNLOCK(huart);
 80046a2:	687b      	ldr	r3, [r7, #4]
 80046a4:	2284      	movs	r2, #132	@ 0x84
 80046a6:	2100      	movs	r1, #0
 80046a8:	5499      	strb	r1, [r3, r2]

  return HAL_OK;
 80046aa:	2300      	movs	r3, #0
}
 80046ac:	0018      	movs	r0, r3
 80046ae:	46bd      	mov	sp, r7
 80046b0:	b004      	add	sp, #16
 80046b2:	bd80      	pop	{r7, pc}
 80046b4:	f1ffffff 	.word	0xf1ffffff

080046b8 <UARTEx_SetNbDataToProcess>:
  *       the UART configuration registers.
  * @param huart UART handle.
  * @retval None
  */
static void UARTEx_SetNbDataToProcess(UART_HandleTypeDef *huart)
{
 80046b8:	b5f0      	push	{r4, r5, r6, r7, lr}
 80046ba:	b085      	sub	sp, #20
 80046bc:	af00      	add	r7, sp, #0
 80046be:	6078      	str	r0, [r7, #4]
  uint8_t rx_fifo_threshold;
  uint8_t tx_fifo_threshold;
  static const uint8_t numerator[] = {1U, 1U, 1U, 3U, 7U, 1U, 0U, 0U};
  static const uint8_t denominator[] = {8U, 4U, 2U, 4U, 8U, 1U, 1U, 1U};

  if (huart->FifoMode == UART_FIFOMODE_DISABLE)
 80046c0:	687b      	ldr	r3, [r7, #4]
 80046c2:	6e5b      	ldr	r3, [r3, #100]	@ 0x64
 80046c4:	2b00      	cmp	r3, #0
 80046c6:	d108      	bne.n	80046da <UARTEx_SetNbDataToProcess+0x22>
  {
    huart->NbTxDataToProcess = 1U;
 80046c8:	687b      	ldr	r3, [r7, #4]
 80046ca:	226a      	movs	r2, #106	@ 0x6a
 80046cc:	2101      	movs	r1, #1
 80046ce:	5299      	strh	r1, [r3, r2]
    huart->NbRxDataToProcess = 1U;
 80046d0:	687b      	ldr	r3, [r7, #4]
 80046d2:	2268      	movs	r2, #104	@ 0x68
 80046d4:	2101      	movs	r1, #1
 80046d6:	5299      	strh	r1, [r3, r2]
    huart->NbTxDataToProcess = ((uint16_t)tx_fifo_depth * numerator[tx_fifo_threshold]) /
                               (uint16_t)denominator[tx_fifo_threshold];
    huart->NbRxDataToProcess = ((uint16_t)rx_fifo_depth * numerator[rx_fifo_threshold]) /
                               (uint16_t)denominator[rx_fifo_threshold];
  }
}
 80046d8:	e043      	b.n	8004762 <UARTEx_SetNbDataToProcess+0xaa>
    rx_fifo_depth = RX_FIFO_DEPTH;
 80046da:	260f      	movs	r6, #15
 80046dc:	19bb      	adds	r3, r7, r6
 80046de:	2208      	movs	r2, #8
 80046e0:	701a      	strb	r2, [r3, #0]
    tx_fifo_depth = TX_FIFO_DEPTH;
 80046e2:	200e      	movs	r0, #14
 80046e4:	183b      	adds	r3, r7, r0
 80046e6:	2208      	movs	r2, #8
 80046e8:	701a      	strb	r2, [r3, #0]
    rx_fifo_threshold = (uint8_t)(READ_BIT(huart->Instance->CR3, USART_CR3_RXFTCFG) >> USART_CR3_RXFTCFG_Pos);
 80046ea:	687b      	ldr	r3, [r7, #4]
 80046ec:	681b      	ldr	r3, [r3, #0]
 80046ee:	689b      	ldr	r3, [r3, #8]
 80046f0:	0e5b      	lsrs	r3, r3, #25
 80046f2:	b2da      	uxtb	r2, r3
 80046f4:	240d      	movs	r4, #13
 80046f6:	193b      	adds	r3, r7, r4
 80046f8:	2107      	movs	r1, #7
 80046fa:	400a      	ands	r2, r1
 80046fc:	701a      	strb	r2, [r3, #0]
    tx_fifo_threshold = (uint8_t)(READ_BIT(huart->Instance->CR3, USART_CR3_TXFTCFG) >> USART_CR3_TXFTCFG_Pos);
 80046fe:	687b      	ldr	r3, [r7, #4]
 8004700:	681b      	ldr	r3, [r3, #0]
 8004702:	689b      	ldr	r3, [r3, #8]
 8004704:	0f5b      	lsrs	r3, r3, #29
 8004706:	b2da      	uxtb	r2, r3
 8004708:	250c      	movs	r5, #12
 800470a:	197b      	adds	r3, r7, r5
 800470c:	2107      	movs	r1, #7
 800470e:	400a      	ands	r2, r1
 8004710:	701a      	strb	r2, [r3, #0]
    huart->NbTxDataToProcess = ((uint16_t)tx_fifo_depth * numerator[tx_fifo_threshold]) /
 8004712:	183b      	adds	r3, r7, r0
 8004714:	781b      	ldrb	r3, [r3, #0]
 8004716:	197a      	adds	r2, r7, r5
 8004718:	7812      	ldrb	r2, [r2, #0]
 800471a:	4914      	ldr	r1, [pc, #80]	@ (800476c <UARTEx_SetNbDataToProcess+0xb4>)
 800471c:	5c8a      	ldrb	r2, [r1, r2]
 800471e:	435a      	muls	r2, r3
 8004720:	0010      	movs	r0, r2
                               (uint16_t)denominator[tx_fifo_threshold];
 8004722:	197b      	adds	r3, r7, r5
 8004724:	781b      	ldrb	r3, [r3, #0]
 8004726:	4a12      	ldr	r2, [pc, #72]	@ (8004770 <UARTEx_SetNbDataToProcess+0xb8>)
 8004728:	5cd3      	ldrb	r3, [r2, r3]
    huart->NbTxDataToProcess = ((uint16_t)tx_fifo_depth * numerator[tx_fifo_threshold]) /
 800472a:	0019      	movs	r1, r3
 800472c:	f7fb fd7e 	bl	800022c <__divsi3>
 8004730:	0003      	movs	r3, r0
 8004732:	b299      	uxth	r1, r3
 8004734:	687b      	ldr	r3, [r7, #4]
 8004736:	226a      	movs	r2, #106	@ 0x6a
 8004738:	5299      	strh	r1, [r3, r2]
    huart->NbRxDataToProcess = ((uint16_t)rx_fifo_depth * numerator[rx_fifo_threshold]) /
 800473a:	19bb      	adds	r3, r7, r6
 800473c:	781b      	ldrb	r3, [r3, #0]
 800473e:	193a      	adds	r2, r7, r4
 8004740:	7812      	ldrb	r2, [r2, #0]
 8004742:	490a      	ldr	r1, [pc, #40]	@ (800476c <UARTEx_SetNbDataToProcess+0xb4>)
 8004744:	5c8a      	ldrb	r2, [r1, r2]
 8004746:	435a      	muls	r2, r3
 8004748:	0010      	movs	r0, r2
                               (uint16_t)denominator[rx_fifo_threshold];
 800474a:	193b      	adds	r3, r7, r4
 800474c:	781b      	ldrb	r3, [r3, #0]
 800474e:	4a08      	ldr	r2, [pc, #32]	@ (8004770 <UARTEx_SetNbDataToProcess+0xb8>)
 8004750:	5cd3      	ldrb	r3, [r2, r3]
    huart->NbRxDataToProcess = ((uint16_t)rx_fifo_depth * numerator[rx_fifo_threshold]) /
 8004752:	0019      	movs	r1, r3
 8004754:	f7fb fd6a 	bl	800022c <__divsi3>
 8004758:	0003      	movs	r3, r0
 800475a:	b299      	uxth	r1, r3
 800475c:	687b      	ldr	r3, [r7, #4]
 800475e:	2268      	movs	r2, #104	@ 0x68
 8004760:	5299      	strh	r1, [r3, r2]
}
 8004762:	46c0      	nop			@ (mov r8, r8)
 8004764:	46bd      	mov	sp, r7
 8004766:	b005      	add	sp, #20
 8004768:	bdf0      	pop	{r4, r5, r6, r7, pc}
 800476a:	46c0      	nop			@ (mov r8, r8)
 800476c:	080056e8 	.word	0x080056e8
 8004770:	080056f0 	.word	0x080056f0

08004774 <std>:
 8004774:	2300      	movs	r3, #0
 8004776:	b510      	push	{r4, lr}
 8004778:	0004      	movs	r4, r0
 800477a:	6003      	str	r3, [r0, #0]
 800477c:	6043      	str	r3, [r0, #4]
 800477e:	6083      	str	r3, [r0, #8]
 8004780:	8181      	strh	r1, [r0, #12]
 8004782:	6643      	str	r3, [r0, #100]	@ 0x64
 8004784:	81c2      	strh	r2, [r0, #14]
 8004786:	6103      	str	r3, [r0, #16]
 8004788:	6143      	str	r3, [r0, #20]
 800478a:	6183      	str	r3, [r0, #24]
 800478c:	0019      	movs	r1, r3
 800478e:	2208      	movs	r2, #8
 8004790:	305c      	adds	r0, #92	@ 0x5c
 8004792:	f000 f90f 	bl	80049b4 <memset>
 8004796:	4b0b      	ldr	r3, [pc, #44]	@ (80047c4 <std+0x50>)
 8004798:	6224      	str	r4, [r4, #32]
 800479a:	6263      	str	r3, [r4, #36]	@ 0x24
 800479c:	4b0a      	ldr	r3, [pc, #40]	@ (80047c8 <std+0x54>)
 800479e:	62a3      	str	r3, [r4, #40]	@ 0x28
 80047a0:	4b0a      	ldr	r3, [pc, #40]	@ (80047cc <std+0x58>)
 80047a2:	62e3      	str	r3, [r4, #44]	@ 0x2c
 80047a4:	4b0a      	ldr	r3, [pc, #40]	@ (80047d0 <std+0x5c>)
 80047a6:	6323      	str	r3, [r4, #48]	@ 0x30
 80047a8:	4b0a      	ldr	r3, [pc, #40]	@ (80047d4 <std+0x60>)
 80047aa:	429c      	cmp	r4, r3
 80047ac:	d005      	beq.n	80047ba <std+0x46>
 80047ae:	4b0a      	ldr	r3, [pc, #40]	@ (80047d8 <std+0x64>)
 80047b0:	429c      	cmp	r4, r3
 80047b2:	d002      	beq.n	80047ba <std+0x46>
 80047b4:	4b09      	ldr	r3, [pc, #36]	@ (80047dc <std+0x68>)
 80047b6:	429c      	cmp	r4, r3
 80047b8:	d103      	bne.n	80047c2 <std+0x4e>
 80047ba:	0020      	movs	r0, r4
 80047bc:	3058      	adds	r0, #88	@ 0x58
 80047be:	f000 f979 	bl	8004ab4 <__retarget_lock_init_recursive>
 80047c2:	bd10      	pop	{r4, pc}
 80047c4:	0800491d 	.word	0x0800491d
 80047c8:	08004945 	.word	0x08004945
 80047cc:	0800497d 	.word	0x0800497d
 80047d0:	080049a9 	.word	0x080049a9
 80047d4:	200001e4 	.word	0x200001e4
 80047d8:	2000024c 	.word	0x2000024c
 80047dc:	200002b4 	.word	0x200002b4

080047e0 <stdio_exit_handler>:
 80047e0:	b510      	push	{r4, lr}
 80047e2:	4a03      	ldr	r2, [pc, #12]	@ (80047f0 <stdio_exit_handler+0x10>)
 80047e4:	4903      	ldr	r1, [pc, #12]	@ (80047f4 <stdio_exit_handler+0x14>)
 80047e6:	4804      	ldr	r0, [pc, #16]	@ (80047f8 <stdio_exit_handler+0x18>)
 80047e8:	f000 f86c 	bl	80048c4 <_fwalk_sglue>
 80047ec:	bd10      	pop	{r4, pc}
 80047ee:	46c0      	nop			@ (mov r8, r8)
 80047f0:	2000000c 	.word	0x2000000c
 80047f4:	08005341 	.word	0x08005341
 80047f8:	2000001c 	.word	0x2000001c

080047fc <cleanup_stdio>:
 80047fc:	6841      	ldr	r1, [r0, #4]
 80047fe:	4b0b      	ldr	r3, [pc, #44]	@ (800482c <cleanup_stdio+0x30>)
 8004800:	b510      	push	{r4, lr}
 8004802:	0004      	movs	r4, r0
 8004804:	4299      	cmp	r1, r3
 8004806:	d001      	beq.n	800480c <cleanup_stdio+0x10>
 8004808:	f000 fd9a 	bl	8005340 <_fflush_r>
 800480c:	68a1      	ldr	r1, [r4, #8]
 800480e:	4b08      	ldr	r3, [pc, #32]	@ (8004830 <cleanup_stdio+0x34>)
 8004810:	4299      	cmp	r1, r3
 8004812:	d002      	beq.n	800481a <cleanup_stdio+0x1e>
 8004814:	0020      	movs	r0, r4
 8004816:	f000 fd93 	bl	8005340 <_fflush_r>
 800481a:	68e1      	ldr	r1, [r4, #12]
 800481c:	4b05      	ldr	r3, [pc, #20]	@ (8004834 <cleanup_stdio+0x38>)
 800481e:	4299      	cmp	r1, r3
 8004820:	d002      	beq.n	8004828 <cleanup_stdio+0x2c>
 8004822:	0020      	movs	r0, r4
 8004824:	f000 fd8c 	bl	8005340 <_fflush_r>
 8004828:	bd10      	pop	{r4, pc}
 800482a:	46c0      	nop			@ (mov r8, r8)
 800482c:	200001e4 	.word	0x200001e4
 8004830:	2000024c 	.word	0x2000024c
 8004834:	200002b4 	.word	0x200002b4

08004838 <global_stdio_init.part.0>:
 8004838:	b510      	push	{r4, lr}
 800483a:	4b09      	ldr	r3, [pc, #36]	@ (8004860 <global_stdio_init.part.0+0x28>)
 800483c:	4a09      	ldr	r2, [pc, #36]	@ (8004864 <global_stdio_init.part.0+0x2c>)
 800483e:	2104      	movs	r1, #4
 8004840:	601a      	str	r2, [r3, #0]
 8004842:	4809      	ldr	r0, [pc, #36]	@ (8004868 <global_stdio_init.part.0+0x30>)
 8004844:	2200      	movs	r2, #0
 8004846:	f7ff ff95 	bl	8004774 <std>
 800484a:	2201      	movs	r2, #1
 800484c:	2109      	movs	r1, #9
 800484e:	4807      	ldr	r0, [pc, #28]	@ (800486c <global_stdio_init.part.0+0x34>)
 8004850:	f7ff ff90 	bl	8004774 <std>
 8004854:	2202      	movs	r2, #2
 8004856:	2112      	movs	r1, #18
 8004858:	4805      	ldr	r0, [pc, #20]	@ (8004870 <global_stdio_init.part.0+0x38>)
 800485a:	f7ff ff8b 	bl	8004774 <std>
 800485e:	bd10      	pop	{r4, pc}
 8004860:	2000031c 	.word	0x2000031c
 8004864:	080047e1 	.word	0x080047e1
 8004868:	200001e4 	.word	0x200001e4
 800486c:	2000024c 	.word	0x2000024c
 8004870:	200002b4 	.word	0x200002b4

08004874 <__sfp_lock_acquire>:
 8004874:	b510      	push	{r4, lr}
 8004876:	4802      	ldr	r0, [pc, #8]	@ (8004880 <__sfp_lock_acquire+0xc>)
 8004878:	f000 f91d 	bl	8004ab6 <__retarget_lock_acquire_recursive>
 800487c:	bd10      	pop	{r4, pc}
 800487e:	46c0      	nop			@ (mov r8, r8)
 8004880:	20000325 	.word	0x20000325

08004884 <__sfp_lock_release>:
 8004884:	b510      	push	{r4, lr}
 8004886:	4802      	ldr	r0, [pc, #8]	@ (8004890 <__sfp_lock_release+0xc>)
 8004888:	f000 f916 	bl	8004ab8 <__retarget_lock_release_recursive>
 800488c:	bd10      	pop	{r4, pc}
 800488e:	46c0      	nop			@ (mov r8, r8)
 8004890:	20000325 	.word	0x20000325

08004894 <__sinit>:
 8004894:	b510      	push	{r4, lr}
 8004896:	0004      	movs	r4, r0
 8004898:	f7ff ffec 	bl	8004874 <__sfp_lock_acquire>
 800489c:	6a23      	ldr	r3, [r4, #32]
 800489e:	2b00      	cmp	r3, #0
 80048a0:	d002      	beq.n	80048a8 <__sinit+0x14>
 80048a2:	f7ff ffef 	bl	8004884 <__sfp_lock_release>
 80048a6:	bd10      	pop	{r4, pc}
 80048a8:	4b04      	ldr	r3, [pc, #16]	@ (80048bc <__sinit+0x28>)
 80048aa:	6223      	str	r3, [r4, #32]
 80048ac:	4b04      	ldr	r3, [pc, #16]	@ (80048c0 <__sinit+0x2c>)
 80048ae:	681b      	ldr	r3, [r3, #0]
 80048b0:	2b00      	cmp	r3, #0
 80048b2:	d1f6      	bne.n	80048a2 <__sinit+0xe>
 80048b4:	f7ff ffc0 	bl	8004838 <global_stdio_init.part.0>
 80048b8:	e7f3      	b.n	80048a2 <__sinit+0xe>
 80048ba:	46c0      	nop			@ (mov r8, r8)
 80048bc:	080047fd 	.word	0x080047fd
 80048c0:	2000031c 	.word	0x2000031c

080048c4 <_fwalk_sglue>:
 80048c4:	b5f7      	push	{r0, r1, r2, r4, r5, r6, r7, lr}
 80048c6:	0014      	movs	r4, r2
 80048c8:	2600      	movs	r6, #0
 80048ca:	9000      	str	r0, [sp, #0]
 80048cc:	9101      	str	r1, [sp, #4]
 80048ce:	68a5      	ldr	r5, [r4, #8]
 80048d0:	6867      	ldr	r7, [r4, #4]
 80048d2:	3f01      	subs	r7, #1
 80048d4:	d504      	bpl.n	80048e0 <_fwalk_sglue+0x1c>
 80048d6:	6824      	ldr	r4, [r4, #0]
 80048d8:	2c00      	cmp	r4, #0
 80048da:	d1f8      	bne.n	80048ce <_fwalk_sglue+0xa>
 80048dc:	0030      	movs	r0, r6
 80048de:	bdfe      	pop	{r1, r2, r3, r4, r5, r6, r7, pc}
 80048e0:	89ab      	ldrh	r3, [r5, #12]
 80048e2:	2b01      	cmp	r3, #1
 80048e4:	d908      	bls.n	80048f8 <_fwalk_sglue+0x34>
 80048e6:	220e      	movs	r2, #14
 80048e8:	5eab      	ldrsh	r3, [r5, r2]
 80048ea:	3301      	adds	r3, #1
 80048ec:	d004      	beq.n	80048f8 <_fwalk_sglue+0x34>
 80048ee:	0029      	movs	r1, r5
 80048f0:	9800      	ldr	r0, [sp, #0]
 80048f2:	9b01      	ldr	r3, [sp, #4]
 80048f4:	4798      	blx	r3
 80048f6:	4306      	orrs	r6, r0
 80048f8:	3568      	adds	r5, #104	@ 0x68
 80048fa:	e7ea      	b.n	80048d2 <_fwalk_sglue+0xe>

080048fc <iprintf>:
 80048fc:	b40f      	push	{r0, r1, r2, r3}
 80048fe:	b507      	push	{r0, r1, r2, lr}
 8004900:	4905      	ldr	r1, [pc, #20]	@ (8004918 <iprintf+0x1c>)
 8004902:	ab04      	add	r3, sp, #16
 8004904:	6808      	ldr	r0, [r1, #0]
 8004906:	cb04      	ldmia	r3!, {r2}
 8004908:	6881      	ldr	r1, [r0, #8]
 800490a:	9301      	str	r3, [sp, #4]
 800490c:	f000 f9fa 	bl	8004d04 <_vfiprintf_r>
 8004910:	b003      	add	sp, #12
 8004912:	bc08      	pop	{r3}
 8004914:	b004      	add	sp, #16
 8004916:	4718      	bx	r3
 8004918:	20000018 	.word	0x20000018

0800491c <__sread>:
 800491c:	b570      	push	{r4, r5, r6, lr}
 800491e:	000c      	movs	r4, r1
 8004920:	250e      	movs	r5, #14
 8004922:	5f49      	ldrsh	r1, [r1, r5]
 8004924:	f000 f874 	bl	8004a10 <_read_r>
 8004928:	2800      	cmp	r0, #0
 800492a:	db03      	blt.n	8004934 <__sread+0x18>
 800492c:	6d63      	ldr	r3, [r4, #84]	@ 0x54
 800492e:	181b      	adds	r3, r3, r0
 8004930:	6563      	str	r3, [r4, #84]	@ 0x54
 8004932:	bd70      	pop	{r4, r5, r6, pc}
 8004934:	89a3      	ldrh	r3, [r4, #12]
 8004936:	4a02      	ldr	r2, [pc, #8]	@ (8004940 <__sread+0x24>)
 8004938:	4013      	ands	r3, r2
 800493a:	81a3      	strh	r3, [r4, #12]
 800493c:	e7f9      	b.n	8004932 <__sread+0x16>
 800493e:	46c0      	nop			@ (mov r8, r8)
 8004940:	ffffefff 	.word	0xffffefff

08004944 <__swrite>:
 8004944:	b5f8      	push	{r3, r4, r5, r6, r7, lr}
 8004946:	001f      	movs	r7, r3
 8004948:	898b      	ldrh	r3, [r1, #12]
 800494a:	0005      	movs	r5, r0
 800494c:	000c      	movs	r4, r1
 800494e:	0016      	movs	r6, r2
 8004950:	05db      	lsls	r3, r3, #23
 8004952:	d505      	bpl.n	8004960 <__swrite+0x1c>
 8004954:	230e      	movs	r3, #14
 8004956:	5ec9      	ldrsh	r1, [r1, r3]
 8004958:	2200      	movs	r2, #0
 800495a:	2302      	movs	r3, #2
 800495c:	f000 f844 	bl	80049e8 <_lseek_r>
 8004960:	89a3      	ldrh	r3, [r4, #12]
 8004962:	4a05      	ldr	r2, [pc, #20]	@ (8004978 <__swrite+0x34>)
 8004964:	0028      	movs	r0, r5
 8004966:	4013      	ands	r3, r2
 8004968:	81a3      	strh	r3, [r4, #12]
 800496a:	0032      	movs	r2, r6
 800496c:	230e      	movs	r3, #14
 800496e:	5ee1      	ldrsh	r1, [r4, r3]
 8004970:	003b      	movs	r3, r7
 8004972:	f000 f861 	bl	8004a38 <_write_r>
 8004976:	bdf8      	pop	{r3, r4, r5, r6, r7, pc}
 8004978:	ffffefff 	.word	0xffffefff

0800497c <__sseek>:
 800497c:	b570      	push	{r4, r5, r6, lr}
 800497e:	000c      	movs	r4, r1
 8004980:	250e      	movs	r5, #14
 8004982:	5f49      	ldrsh	r1, [r1, r5]
 8004984:	f000 f830 	bl	80049e8 <_lseek_r>
 8004988:	89a3      	ldrh	r3, [r4, #12]
 800498a:	1c42      	adds	r2, r0, #1
 800498c:	d103      	bne.n	8004996 <__sseek+0x1a>
 800498e:	4a05      	ldr	r2, [pc, #20]	@ (80049a4 <__sseek+0x28>)
 8004990:	4013      	ands	r3, r2
 8004992:	81a3      	strh	r3, [r4, #12]
 8004994:	bd70      	pop	{r4, r5, r6, pc}
 8004996:	2280      	movs	r2, #128	@ 0x80
 8004998:	0152      	lsls	r2, r2, #5
 800499a:	4313      	orrs	r3, r2
 800499c:	81a3      	strh	r3, [r4, #12]
 800499e:	6560      	str	r0, [r4, #84]	@ 0x54
 80049a0:	e7f8      	b.n	8004994 <__sseek+0x18>
 80049a2:	46c0      	nop			@ (mov r8, r8)
 80049a4:	ffffefff 	.word	0xffffefff

080049a8 <__sclose>:
 80049a8:	b510      	push	{r4, lr}
 80049aa:	230e      	movs	r3, #14
 80049ac:	5ec9      	ldrsh	r1, [r1, r3]
 80049ae:	f000 f809 	bl	80049c4 <_close_r>
 80049b2:	bd10      	pop	{r4, pc}

080049b4 <memset>:
 80049b4:	0003      	movs	r3, r0
 80049b6:	1882      	adds	r2, r0, r2
 80049b8:	4293      	cmp	r3, r2
 80049ba:	d100      	bne.n	80049be <memset+0xa>
 80049bc:	4770      	bx	lr
 80049be:	7019      	strb	r1, [r3, #0]
 80049c0:	3301      	adds	r3, #1
 80049c2:	e7f9      	b.n	80049b8 <memset+0x4>

080049c4 <_close_r>:
 80049c4:	2300      	movs	r3, #0
 80049c6:	b570      	push	{r4, r5, r6, lr}
 80049c8:	4d06      	ldr	r5, [pc, #24]	@ (80049e4 <_close_r+0x20>)
 80049ca:	0004      	movs	r4, r0
 80049cc:	0008      	movs	r0, r1
 80049ce:	602b      	str	r3, [r5, #0]
 80049d0:	f7fc f8c3 	bl	8000b5a <_close>
 80049d4:	1c43      	adds	r3, r0, #1
 80049d6:	d103      	bne.n	80049e0 <_close_r+0x1c>
 80049d8:	682b      	ldr	r3, [r5, #0]
 80049da:	2b00      	cmp	r3, #0
 80049dc:	d000      	beq.n	80049e0 <_close_r+0x1c>
 80049de:	6023      	str	r3, [r4, #0]
 80049e0:	bd70      	pop	{r4, r5, r6, pc}
 80049e2:	46c0      	nop			@ (mov r8, r8)
 80049e4:	20000320 	.word	0x20000320

080049e8 <_lseek_r>:
 80049e8:	b570      	push	{r4, r5, r6, lr}
 80049ea:	0004      	movs	r4, r0
 80049ec:	0008      	movs	r0, r1
 80049ee:	0011      	movs	r1, r2
 80049f0:	001a      	movs	r2, r3
 80049f2:	2300      	movs	r3, #0
 80049f4:	4d05      	ldr	r5, [pc, #20]	@ (8004a0c <_lseek_r+0x24>)
 80049f6:	602b      	str	r3, [r5, #0]
 80049f8:	f7fc f8d0 	bl	8000b9c <_lseek>
 80049fc:	1c43      	adds	r3, r0, #1
 80049fe:	d103      	bne.n	8004a08 <_lseek_r+0x20>
 8004a00:	682b      	ldr	r3, [r5, #0]
 8004a02:	2b00      	cmp	r3, #0
 8004a04:	d000      	beq.n	8004a08 <_lseek_r+0x20>
 8004a06:	6023      	str	r3, [r4, #0]
 8004a08:	bd70      	pop	{r4, r5, r6, pc}
 8004a0a:	46c0      	nop			@ (mov r8, r8)
 8004a0c:	20000320 	.word	0x20000320

08004a10 <_read_r>:
 8004a10:	b570      	push	{r4, r5, r6, lr}
 8004a12:	0004      	movs	r4, r0
 8004a14:	0008      	movs	r0, r1
 8004a16:	0011      	movs	r1, r2
 8004a18:	001a      	movs	r2, r3
 8004a1a:	2300      	movs	r3, #0
 8004a1c:	4d05      	ldr	r5, [pc, #20]	@ (8004a34 <_read_r+0x24>)
 8004a1e:	602b      	str	r3, [r5, #0]
 8004a20:	f7fc f862 	bl	8000ae8 <_read>
 8004a24:	1c43      	adds	r3, r0, #1
 8004a26:	d103      	bne.n	8004a30 <_read_r+0x20>
 8004a28:	682b      	ldr	r3, [r5, #0]
 8004a2a:	2b00      	cmp	r3, #0
 8004a2c:	d000      	beq.n	8004a30 <_read_r+0x20>
 8004a2e:	6023      	str	r3, [r4, #0]
 8004a30:	bd70      	pop	{r4, r5, r6, pc}
 8004a32:	46c0      	nop			@ (mov r8, r8)
 8004a34:	20000320 	.word	0x20000320

08004a38 <_write_r>:
 8004a38:	b570      	push	{r4, r5, r6, lr}
 8004a3a:	0004      	movs	r4, r0
 8004a3c:	0008      	movs	r0, r1
 8004a3e:	0011      	movs	r1, r2
 8004a40:	001a      	movs	r2, r3
 8004a42:	2300      	movs	r3, #0
 8004a44:	4d05      	ldr	r5, [pc, #20]	@ (8004a5c <_write_r+0x24>)
 8004a46:	602b      	str	r3, [r5, #0]
 8004a48:	f7fc f86b 	bl	8000b22 <_write>
 8004a4c:	1c43      	adds	r3, r0, #1
 8004a4e:	d103      	bne.n	8004a58 <_write_r+0x20>
 8004a50:	682b      	ldr	r3, [r5, #0]
 8004a52:	2b00      	cmp	r3, #0
 8004a54:	d000      	beq.n	8004a58 <_write_r+0x20>
 8004a56:	6023      	str	r3, [r4, #0]
 8004a58:	bd70      	pop	{r4, r5, r6, pc}
 8004a5a:	46c0      	nop			@ (mov r8, r8)
 8004a5c:	20000320 	.word	0x20000320

08004a60 <__errno>:
 8004a60:	4b01      	ldr	r3, [pc, #4]	@ (8004a68 <__errno+0x8>)
 8004a62:	6818      	ldr	r0, [r3, #0]
 8004a64:	4770      	bx	lr
 8004a66:	46c0      	nop			@ (mov r8, r8)
 8004a68:	20000018 	.word	0x20000018

08004a6c <__libc_init_array>:
 8004a6c:	b570      	push	{r4, r5, r6, lr}
 8004a6e:	2600      	movs	r6, #0
 8004a70:	4c0c      	ldr	r4, [pc, #48]	@ (8004aa4 <__libc_init_array+0x38>)
 8004a72:	4d0d      	ldr	r5, [pc, #52]	@ (8004aa8 <__libc_init_array+0x3c>)
 8004a74:	1b64      	subs	r4, r4, r5
 8004a76:	10a4      	asrs	r4, r4, #2
 8004a78:	42a6      	cmp	r6, r4
 8004a7a:	d109      	bne.n	8004a90 <__libc_init_array+0x24>
 8004a7c:	2600      	movs	r6, #0
 8004a7e:	f000 fdd9 	bl	8005634 <_init>
 8004a82:	4c0a      	ldr	r4, [pc, #40]	@ (8004aac <__libc_init_array+0x40>)
 8004a84:	4d0a      	ldr	r5, [pc, #40]	@ (8004ab0 <__libc_init_array+0x44>)
 8004a86:	1b64      	subs	r4, r4, r5
 8004a88:	10a4      	asrs	r4, r4, #2
 8004a8a:	42a6      	cmp	r6, r4
 8004a8c:	d105      	bne.n	8004a9a <__libc_init_array+0x2e>
 8004a8e:	bd70      	pop	{r4, r5, r6, pc}
 8004a90:	00b3      	lsls	r3, r6, #2
 8004a92:	58eb      	ldr	r3, [r5, r3]
 8004a94:	4798      	blx	r3
 8004a96:	3601      	adds	r6, #1
 8004a98:	e7ee      	b.n	8004a78 <__libc_init_array+0xc>
 8004a9a:	00b3      	lsls	r3, r6, #2
 8004a9c:	58eb      	ldr	r3, [r5, r3]
 8004a9e:	4798      	blx	r3
 8004aa0:	3601      	adds	r6, #1
 8004aa2:	e7f2      	b.n	8004a8a <__libc_init_array+0x1e>
 8004aa4:	08005734 	.word	0x08005734
 8004aa8:	08005734 	.word	0x08005734
 8004aac:	08005738 	.word	0x08005738
 8004ab0:	08005734 	.word	0x08005734

08004ab4 <__retarget_lock_init_recursive>:
 8004ab4:	4770      	bx	lr

08004ab6 <__retarget_lock_acquire_recursive>:
 8004ab6:	4770      	bx	lr

08004ab8 <__retarget_lock_release_recursive>:
 8004ab8:	4770      	bx	lr
	...

08004abc <_free_r>:
 8004abc:	b570      	push	{r4, r5, r6, lr}
 8004abe:	0005      	movs	r5, r0
 8004ac0:	1e0c      	subs	r4, r1, #0
 8004ac2:	d010      	beq.n	8004ae6 <_free_r+0x2a>
 8004ac4:	3c04      	subs	r4, #4
 8004ac6:	6823      	ldr	r3, [r4, #0]
 8004ac8:	2b00      	cmp	r3, #0
 8004aca:	da00      	bge.n	8004ace <_free_r+0x12>
 8004acc:	18e4      	adds	r4, r4, r3
 8004ace:	0028      	movs	r0, r5
 8004ad0:	f000 f8e0 	bl	8004c94 <__malloc_lock>
 8004ad4:	4a1d      	ldr	r2, [pc, #116]	@ (8004b4c <_free_r+0x90>)
 8004ad6:	6813      	ldr	r3, [r2, #0]
 8004ad8:	2b00      	cmp	r3, #0
 8004ada:	d105      	bne.n	8004ae8 <_free_r+0x2c>
 8004adc:	6063      	str	r3, [r4, #4]
 8004ade:	6014      	str	r4, [r2, #0]
 8004ae0:	0028      	movs	r0, r5
 8004ae2:	f000 f8df 	bl	8004ca4 <__malloc_unlock>
 8004ae6:	bd70      	pop	{r4, r5, r6, pc}
 8004ae8:	42a3      	cmp	r3, r4
 8004aea:	d908      	bls.n	8004afe <_free_r+0x42>
 8004aec:	6820      	ldr	r0, [r4, #0]
 8004aee:	1821      	adds	r1, r4, r0
 8004af0:	428b      	cmp	r3, r1
 8004af2:	d1f3      	bne.n	8004adc <_free_r+0x20>
 8004af4:	6819      	ldr	r1, [r3, #0]
 8004af6:	685b      	ldr	r3, [r3, #4]
 8004af8:	1809      	adds	r1, r1, r0
 8004afa:	6021      	str	r1, [r4, #0]
 8004afc:	e7ee      	b.n	8004adc <_free_r+0x20>
 8004afe:	001a      	movs	r2, r3
 8004b00:	685b      	ldr	r3, [r3, #4]
 8004b02:	2b00      	cmp	r3, #0
 8004b04:	d001      	beq.n	8004b0a <_free_r+0x4e>
 8004b06:	42a3      	cmp	r3, r4
 8004b08:	d9f9      	bls.n	8004afe <_free_r+0x42>
 8004b0a:	6811      	ldr	r1, [r2, #0]
 8004b0c:	1850      	adds	r0, r2, r1
 8004b0e:	42a0      	cmp	r0, r4
 8004b10:	d10b      	bne.n	8004b2a <_free_r+0x6e>
 8004b12:	6820      	ldr	r0, [r4, #0]
 8004b14:	1809      	adds	r1, r1, r0
 8004b16:	1850      	adds	r0, r2, r1
 8004b18:	6011      	str	r1, [r2, #0]
 8004b1a:	4283      	cmp	r3, r0
 8004b1c:	d1e0      	bne.n	8004ae0 <_free_r+0x24>
 8004b1e:	6818      	ldr	r0, [r3, #0]
 8004b20:	685b      	ldr	r3, [r3, #4]
 8004b22:	1841      	adds	r1, r0, r1
 8004b24:	6011      	str	r1, [r2, #0]
 8004b26:	6053      	str	r3, [r2, #4]
 8004b28:	e7da      	b.n	8004ae0 <_free_r+0x24>
 8004b2a:	42a0      	cmp	r0, r4
 8004b2c:	d902      	bls.n	8004b34 <_free_r+0x78>
 8004b2e:	230c      	movs	r3, #12
 8004b30:	602b      	str	r3, [r5, #0]
 8004b32:	e7d5      	b.n	8004ae0 <_free_r+0x24>
 8004b34:	6820      	ldr	r0, [r4, #0]
 8004b36:	1821      	adds	r1, r4, r0
 8004b38:	428b      	cmp	r3, r1
 8004b3a:	d103      	bne.n	8004b44 <_free_r+0x88>
 8004b3c:	6819      	ldr	r1, [r3, #0]
 8004b3e:	685b      	ldr	r3, [r3, #4]
 8004b40:	1809      	adds	r1, r1, r0
 8004b42:	6021      	str	r1, [r4, #0]
 8004b44:	6063      	str	r3, [r4, #4]
 8004b46:	6054      	str	r4, [r2, #4]
 8004b48:	e7ca      	b.n	8004ae0 <_free_r+0x24>
 8004b4a:	46c0      	nop			@ (mov r8, r8)
 8004b4c:	2000032c 	.word	0x2000032c

08004b50 <sbrk_aligned>:
 8004b50:	b570      	push	{r4, r5, r6, lr}
 8004b52:	4e0f      	ldr	r6, [pc, #60]	@ (8004b90 <sbrk_aligned+0x40>)
 8004b54:	000d      	movs	r5, r1
 8004b56:	6831      	ldr	r1, [r6, #0]
 8004b58:	0004      	movs	r4, r0
 8004b5a:	2900      	cmp	r1, #0
 8004b5c:	d102      	bne.n	8004b64 <sbrk_aligned+0x14>
 8004b5e:	f000 fcbb 	bl	80054d8 <_sbrk_r>
 8004b62:	6030      	str	r0, [r6, #0]
 8004b64:	0029      	movs	r1, r5
 8004b66:	0020      	movs	r0, r4
 8004b68:	f000 fcb6 	bl	80054d8 <_sbrk_r>
 8004b6c:	1c43      	adds	r3, r0, #1
 8004b6e:	d103      	bne.n	8004b78 <sbrk_aligned+0x28>
 8004b70:	2501      	movs	r5, #1
 8004b72:	426d      	negs	r5, r5
 8004b74:	0028      	movs	r0, r5
 8004b76:	bd70      	pop	{r4, r5, r6, pc}
 8004b78:	2303      	movs	r3, #3
 8004b7a:	1cc5      	adds	r5, r0, #3
 8004b7c:	439d      	bics	r5, r3
 8004b7e:	42a8      	cmp	r0, r5
 8004b80:	d0f8      	beq.n	8004b74 <sbrk_aligned+0x24>
 8004b82:	1a29      	subs	r1, r5, r0
 8004b84:	0020      	movs	r0, r4
 8004b86:	f000 fca7 	bl	80054d8 <_sbrk_r>
 8004b8a:	3001      	adds	r0, #1
 8004b8c:	d1f2      	bne.n	8004b74 <sbrk_aligned+0x24>
 8004b8e:	e7ef      	b.n	8004b70 <sbrk_aligned+0x20>
 8004b90:	20000328 	.word	0x20000328

08004b94 <_malloc_r>:
 8004b94:	b5f7      	push	{r0, r1, r2, r4, r5, r6, r7, lr}
 8004b96:	2203      	movs	r2, #3
 8004b98:	1ccb      	adds	r3, r1, #3
 8004b9a:	4393      	bics	r3, r2
 8004b9c:	3308      	adds	r3, #8
 8004b9e:	0005      	movs	r5, r0
 8004ba0:	001f      	movs	r7, r3
 8004ba2:	2b0c      	cmp	r3, #12
 8004ba4:	d234      	bcs.n	8004c10 <_malloc_r+0x7c>
 8004ba6:	270c      	movs	r7, #12
 8004ba8:	42b9      	cmp	r1, r7
 8004baa:	d833      	bhi.n	8004c14 <_malloc_r+0x80>
 8004bac:	0028      	movs	r0, r5
 8004bae:	f000 f871 	bl	8004c94 <__malloc_lock>
 8004bb2:	4e37      	ldr	r6, [pc, #220]	@ (8004c90 <_malloc_r+0xfc>)
 8004bb4:	6833      	ldr	r3, [r6, #0]
 8004bb6:	001c      	movs	r4, r3
 8004bb8:	2c00      	cmp	r4, #0
 8004bba:	d12f      	bne.n	8004c1c <_malloc_r+0x88>
 8004bbc:	0039      	movs	r1, r7
 8004bbe:	0028      	movs	r0, r5
 8004bc0:	f7ff ffc6 	bl	8004b50 <sbrk_aligned>
 8004bc4:	0004      	movs	r4, r0
 8004bc6:	1c43      	adds	r3, r0, #1
 8004bc8:	d15f      	bne.n	8004c8a <_malloc_r+0xf6>
 8004bca:	6834      	ldr	r4, [r6, #0]
 8004bcc:	9400      	str	r4, [sp, #0]
 8004bce:	9b00      	ldr	r3, [sp, #0]
 8004bd0:	2b00      	cmp	r3, #0
 8004bd2:	d14a      	bne.n	8004c6a <_malloc_r+0xd6>
 8004bd4:	2c00      	cmp	r4, #0
 8004bd6:	d052      	beq.n	8004c7e <_malloc_r+0xea>
 8004bd8:	6823      	ldr	r3, [r4, #0]
 8004bda:	0028      	movs	r0, r5
 8004bdc:	18e3      	adds	r3, r4, r3
 8004bde:	9900      	ldr	r1, [sp, #0]
 8004be0:	9301      	str	r3, [sp, #4]
 8004be2:	f000 fc79 	bl	80054d8 <_sbrk_r>
 8004be6:	9b01      	ldr	r3, [sp, #4]
 8004be8:	4283      	cmp	r3, r0
 8004bea:	d148      	bne.n	8004c7e <_malloc_r+0xea>
 8004bec:	6823      	ldr	r3, [r4, #0]
 8004bee:	0028      	movs	r0, r5
 8004bf0:	1aff      	subs	r7, r7, r3
 8004bf2:	0039      	movs	r1, r7
 8004bf4:	f7ff ffac 	bl	8004b50 <sbrk_aligned>
 8004bf8:	3001      	adds	r0, #1
 8004bfa:	d040      	beq.n	8004c7e <_malloc_r+0xea>
 8004bfc:	6823      	ldr	r3, [r4, #0]
 8004bfe:	19db      	adds	r3, r3, r7
 8004c00:	6023      	str	r3, [r4, #0]
 8004c02:	6833      	ldr	r3, [r6, #0]
 8004c04:	685a      	ldr	r2, [r3, #4]
 8004c06:	2a00      	cmp	r2, #0
 8004c08:	d133      	bne.n	8004c72 <_malloc_r+0xde>
 8004c0a:	9b00      	ldr	r3, [sp, #0]
 8004c0c:	6033      	str	r3, [r6, #0]
 8004c0e:	e019      	b.n	8004c44 <_malloc_r+0xb0>
 8004c10:	2b00      	cmp	r3, #0
 8004c12:	dac9      	bge.n	8004ba8 <_malloc_r+0x14>
 8004c14:	230c      	movs	r3, #12
 8004c16:	602b      	str	r3, [r5, #0]
 8004c18:	2000      	movs	r0, #0
 8004c1a:	bdfe      	pop	{r1, r2, r3, r4, r5, r6, r7, pc}
 8004c1c:	6821      	ldr	r1, [r4, #0]
 8004c1e:	1bc9      	subs	r1, r1, r7
 8004c20:	d420      	bmi.n	8004c64 <_malloc_r+0xd0>
 8004c22:	290b      	cmp	r1, #11
 8004c24:	d90a      	bls.n	8004c3c <_malloc_r+0xa8>
 8004c26:	19e2      	adds	r2, r4, r7
 8004c28:	6027      	str	r7, [r4, #0]
 8004c2a:	42a3      	cmp	r3, r4
 8004c2c:	d104      	bne.n	8004c38 <_malloc_r+0xa4>
 8004c2e:	6032      	str	r2, [r6, #0]
 8004c30:	6863      	ldr	r3, [r4, #4]
 8004c32:	6011      	str	r1, [r2, #0]
 8004c34:	6053      	str	r3, [r2, #4]
 8004c36:	e005      	b.n	8004c44 <_malloc_r+0xb0>
 8004c38:	605a      	str	r2, [r3, #4]
 8004c3a:	e7f9      	b.n	8004c30 <_malloc_r+0x9c>
 8004c3c:	6862      	ldr	r2, [r4, #4]
 8004c3e:	42a3      	cmp	r3, r4
 8004c40:	d10e      	bne.n	8004c60 <_malloc_r+0xcc>
 8004c42:	6032      	str	r2, [r6, #0]
 8004c44:	0028      	movs	r0, r5
 8004c46:	f000 f82d 	bl	8004ca4 <__malloc_unlock>
 8004c4a:	0020      	movs	r0, r4
 8004c4c:	2207      	movs	r2, #7
 8004c4e:	300b      	adds	r0, #11
 8004c50:	1d23      	adds	r3, r4, #4
 8004c52:	4390      	bics	r0, r2
 8004c54:	1ac2      	subs	r2, r0, r3
 8004c56:	4298      	cmp	r0, r3
 8004c58:	d0df      	beq.n	8004c1a <_malloc_r+0x86>
 8004c5a:	1a1b      	subs	r3, r3, r0
 8004c5c:	50a3      	str	r3, [r4, r2]
 8004c5e:	e7dc      	b.n	8004c1a <_malloc_r+0x86>
 8004c60:	605a      	str	r2, [r3, #4]
 8004c62:	e7ef      	b.n	8004c44 <_malloc_r+0xb0>
 8004c64:	0023      	movs	r3, r4
 8004c66:	6864      	ldr	r4, [r4, #4]
 8004c68:	e7a6      	b.n	8004bb8 <_malloc_r+0x24>
 8004c6a:	9c00      	ldr	r4, [sp, #0]
 8004c6c:	6863      	ldr	r3, [r4, #4]
 8004c6e:	9300      	str	r3, [sp, #0]
 8004c70:	e7ad      	b.n	8004bce <_malloc_r+0x3a>
 8004c72:	001a      	movs	r2, r3
 8004c74:	685b      	ldr	r3, [r3, #4]
 8004c76:	42a3      	cmp	r3, r4
 8004c78:	d1fb      	bne.n	8004c72 <_malloc_r+0xde>
 8004c7a:	2300      	movs	r3, #0
 8004c7c:	e7da      	b.n	8004c34 <_malloc_r+0xa0>
 8004c7e:	230c      	movs	r3, #12
 8004c80:	0028      	movs	r0, r5
 8004c82:	602b      	str	r3, [r5, #0]
 8004c84:	f000 f80e 	bl	8004ca4 <__malloc_unlock>
 8004c88:	e7c6      	b.n	8004c18 <_malloc_r+0x84>
 8004c8a:	6007      	str	r7, [r0, #0]
 8004c8c:	e7da      	b.n	8004c44 <_malloc_r+0xb0>
 8004c8e:	46c0      	nop			@ (mov r8, r8)
 8004c90:	2000032c 	.word	0x2000032c

08004c94 <__malloc_lock>:
 8004c94:	b510      	push	{r4, lr}
 8004c96:	4802      	ldr	r0, [pc, #8]	@ (8004ca0 <__malloc_lock+0xc>)
 8004c98:	f7ff ff0d 	bl	8004ab6 <__retarget_lock_acquire_recursive>
 8004c9c:	bd10      	pop	{r4, pc}
 8004c9e:	46c0      	nop			@ (mov r8, r8)
 8004ca0:	20000324 	.word	0x20000324

08004ca4 <__malloc_unlock>:
 8004ca4:	b510      	push	{r4, lr}
 8004ca6:	4802      	ldr	r0, [pc, #8]	@ (8004cb0 <__malloc_unlock+0xc>)
 8004ca8:	f7ff ff06 	bl	8004ab8 <__retarget_lock_release_recursive>
 8004cac:	bd10      	pop	{r4, pc}
 8004cae:	46c0      	nop			@ (mov r8, r8)
 8004cb0:	20000324 	.word	0x20000324

08004cb4 <__sfputc_r>:
 8004cb4:	6893      	ldr	r3, [r2, #8]
 8004cb6:	b510      	push	{r4, lr}
 8004cb8:	3b01      	subs	r3, #1
 8004cba:	6093      	str	r3, [r2, #8]
 8004cbc:	2b00      	cmp	r3, #0
 8004cbe:	da04      	bge.n	8004cca <__sfputc_r+0x16>
 8004cc0:	6994      	ldr	r4, [r2, #24]
 8004cc2:	42a3      	cmp	r3, r4
 8004cc4:	db07      	blt.n	8004cd6 <__sfputc_r+0x22>
 8004cc6:	290a      	cmp	r1, #10
 8004cc8:	d005      	beq.n	8004cd6 <__sfputc_r+0x22>
 8004cca:	6813      	ldr	r3, [r2, #0]
 8004ccc:	1c58      	adds	r0, r3, #1
 8004cce:	6010      	str	r0, [r2, #0]
 8004cd0:	7019      	strb	r1, [r3, #0]
 8004cd2:	0008      	movs	r0, r1
 8004cd4:	bd10      	pop	{r4, pc}
 8004cd6:	f000 fb5e 	bl	8005396 <__swbuf_r>
 8004cda:	0001      	movs	r1, r0
 8004cdc:	e7f9      	b.n	8004cd2 <__sfputc_r+0x1e>

08004cde <__sfputs_r>:
 8004cde:	b5f8      	push	{r3, r4, r5, r6, r7, lr}
 8004ce0:	0006      	movs	r6, r0
 8004ce2:	000f      	movs	r7, r1
 8004ce4:	0014      	movs	r4, r2
 8004ce6:	18d5      	adds	r5, r2, r3
 8004ce8:	42ac      	cmp	r4, r5
 8004cea:	d101      	bne.n	8004cf0 <__sfputs_r+0x12>
 8004cec:	2000      	movs	r0, #0
 8004cee:	e007      	b.n	8004d00 <__sfputs_r+0x22>
 8004cf0:	7821      	ldrb	r1, [r4, #0]
 8004cf2:	003a      	movs	r2, r7
 8004cf4:	0030      	movs	r0, r6
 8004cf6:	f7ff ffdd 	bl	8004cb4 <__sfputc_r>
 8004cfa:	3401      	adds	r4, #1
 8004cfc:	1c43      	adds	r3, r0, #1
 8004cfe:	d1f3      	bne.n	8004ce8 <__sfputs_r+0xa>
 8004d00:	bdf8      	pop	{r3, r4, r5, r6, r7, pc}
	...

08004d04 <_vfiprintf_r>:
 8004d04:	b5f0      	push	{r4, r5, r6, r7, lr}
 8004d06:	b0a1      	sub	sp, #132	@ 0x84
 8004d08:	000f      	movs	r7, r1
 8004d0a:	0015      	movs	r5, r2
 8004d0c:	001e      	movs	r6, r3
 8004d0e:	9003      	str	r0, [sp, #12]
 8004d10:	2800      	cmp	r0, #0
 8004d12:	d004      	beq.n	8004d1e <_vfiprintf_r+0x1a>
 8004d14:	6a03      	ldr	r3, [r0, #32]
 8004d16:	2b00      	cmp	r3, #0
 8004d18:	d101      	bne.n	8004d1e <_vfiprintf_r+0x1a>
 8004d1a:	f7ff fdbb 	bl	8004894 <__sinit>
 8004d1e:	6e7b      	ldr	r3, [r7, #100]	@ 0x64
 8004d20:	07db      	lsls	r3, r3, #31
 8004d22:	d405      	bmi.n	8004d30 <_vfiprintf_r+0x2c>
 8004d24:	89bb      	ldrh	r3, [r7, #12]
 8004d26:	059b      	lsls	r3, r3, #22
 8004d28:	d402      	bmi.n	8004d30 <_vfiprintf_r+0x2c>
 8004d2a:	6db8      	ldr	r0, [r7, #88]	@ 0x58
 8004d2c:	f7ff fec3 	bl	8004ab6 <__retarget_lock_acquire_recursive>
 8004d30:	89bb      	ldrh	r3, [r7, #12]
 8004d32:	071b      	lsls	r3, r3, #28
 8004d34:	d502      	bpl.n	8004d3c <_vfiprintf_r+0x38>
 8004d36:	693b      	ldr	r3, [r7, #16]
 8004d38:	2b00      	cmp	r3, #0
 8004d3a:	d113      	bne.n	8004d64 <_vfiprintf_r+0x60>
 8004d3c:	0039      	movs	r1, r7
 8004d3e:	9803      	ldr	r0, [sp, #12]
 8004d40:	f000 fb6c 	bl	800541c <__swsetup_r>
 8004d44:	2800      	cmp	r0, #0
 8004d46:	d00d      	beq.n	8004d64 <_vfiprintf_r+0x60>
 8004d48:	6e7b      	ldr	r3, [r7, #100]	@ 0x64
 8004d4a:	07db      	lsls	r3, r3, #31
 8004d4c:	d503      	bpl.n	8004d56 <_vfiprintf_r+0x52>
 8004d4e:	2001      	movs	r0, #1
 8004d50:	4240      	negs	r0, r0
 8004d52:	b021      	add	sp, #132	@ 0x84
 8004d54:	bdf0      	pop	{r4, r5, r6, r7, pc}
 8004d56:	89bb      	ldrh	r3, [r7, #12]
 8004d58:	059b      	lsls	r3, r3, #22
 8004d5a:	d4f8      	bmi.n	8004d4e <_vfiprintf_r+0x4a>
 8004d5c:	6db8      	ldr	r0, [r7, #88]	@ 0x58
 8004d5e:	f7ff feab 	bl	8004ab8 <__retarget_lock_release_recursive>
 8004d62:	e7f4      	b.n	8004d4e <_vfiprintf_r+0x4a>
 8004d64:	2300      	movs	r3, #0
 8004d66:	ac08      	add	r4, sp, #32
 8004d68:	6163      	str	r3, [r4, #20]
 8004d6a:	3320      	adds	r3, #32
 8004d6c:	7663      	strb	r3, [r4, #25]
 8004d6e:	3310      	adds	r3, #16
 8004d70:	76a3      	strb	r3, [r4, #26]
 8004d72:	9607      	str	r6, [sp, #28]
 8004d74:	002e      	movs	r6, r5
 8004d76:	7833      	ldrb	r3, [r6, #0]
 8004d78:	2b00      	cmp	r3, #0
 8004d7a:	d001      	beq.n	8004d80 <_vfiprintf_r+0x7c>
 8004d7c:	2b25      	cmp	r3, #37	@ 0x25
 8004d7e:	d148      	bne.n	8004e12 <_vfiprintf_r+0x10e>
 8004d80:	1b73      	subs	r3, r6, r5
 8004d82:	9305      	str	r3, [sp, #20]
 8004d84:	42ae      	cmp	r6, r5
 8004d86:	d00b      	beq.n	8004da0 <_vfiprintf_r+0x9c>
 8004d88:	002a      	movs	r2, r5
 8004d8a:	0039      	movs	r1, r7
 8004d8c:	9803      	ldr	r0, [sp, #12]
 8004d8e:	f7ff ffa6 	bl	8004cde <__sfputs_r>
 8004d92:	3001      	adds	r0, #1
 8004d94:	d100      	bne.n	8004d98 <_vfiprintf_r+0x94>
 8004d96:	e0ae      	b.n	8004ef6 <_vfiprintf_r+0x1f2>
 8004d98:	6963      	ldr	r3, [r4, #20]
 8004d9a:	9a05      	ldr	r2, [sp, #20]
 8004d9c:	189b      	adds	r3, r3, r2
 8004d9e:	6163      	str	r3, [r4, #20]
 8004da0:	7833      	ldrb	r3, [r6, #0]
 8004da2:	2b00      	cmp	r3, #0
 8004da4:	d100      	bne.n	8004da8 <_vfiprintf_r+0xa4>
 8004da6:	e0a6      	b.n	8004ef6 <_vfiprintf_r+0x1f2>
 8004da8:	2201      	movs	r2, #1
 8004daa:	2300      	movs	r3, #0
 8004dac:	4252      	negs	r2, r2
 8004dae:	6062      	str	r2, [r4, #4]
 8004db0:	a904      	add	r1, sp, #16
 8004db2:	3254      	adds	r2, #84	@ 0x54
 8004db4:	1852      	adds	r2, r2, r1
 8004db6:	1c75      	adds	r5, r6, #1
 8004db8:	6023      	str	r3, [r4, #0]
 8004dba:	60e3      	str	r3, [r4, #12]
 8004dbc:	60a3      	str	r3, [r4, #8]
 8004dbe:	7013      	strb	r3, [r2, #0]
 8004dc0:	65a3      	str	r3, [r4, #88]	@ 0x58
 8004dc2:	4b59      	ldr	r3, [pc, #356]	@ (8004f28 <_vfiprintf_r+0x224>)
 8004dc4:	2205      	movs	r2, #5
 8004dc6:	0018      	movs	r0, r3
 8004dc8:	7829      	ldrb	r1, [r5, #0]
 8004dca:	9305      	str	r3, [sp, #20]
 8004dcc:	f000 fb96 	bl	80054fc <memchr>
 8004dd0:	1c6e      	adds	r6, r5, #1
 8004dd2:	2800      	cmp	r0, #0
 8004dd4:	d11f      	bne.n	8004e16 <_vfiprintf_r+0x112>
 8004dd6:	6822      	ldr	r2, [r4, #0]
 8004dd8:	06d3      	lsls	r3, r2, #27
 8004dda:	d504      	bpl.n	8004de6 <_vfiprintf_r+0xe2>
 8004ddc:	2353      	movs	r3, #83	@ 0x53
 8004dde:	a904      	add	r1, sp, #16
 8004de0:	185b      	adds	r3, r3, r1
 8004de2:	2120      	movs	r1, #32
 8004de4:	7019      	strb	r1, [r3, #0]
 8004de6:	0713      	lsls	r3, r2, #28
 8004de8:	d504      	bpl.n	8004df4 <_vfiprintf_r+0xf0>
 8004dea:	2353      	movs	r3, #83	@ 0x53
 8004dec:	a904      	add	r1, sp, #16
 8004dee:	185b      	adds	r3, r3, r1
 8004df0:	212b      	movs	r1, #43	@ 0x2b
 8004df2:	7019      	strb	r1, [r3, #0]
 8004df4:	782b      	ldrb	r3, [r5, #0]
 8004df6:	2b2a      	cmp	r3, #42	@ 0x2a
 8004df8:	d016      	beq.n	8004e28 <_vfiprintf_r+0x124>
 8004dfa:	002e      	movs	r6, r5
 8004dfc:	2100      	movs	r1, #0
 8004dfe:	200a      	movs	r0, #10
 8004e00:	68e3      	ldr	r3, [r4, #12]
 8004e02:	7832      	ldrb	r2, [r6, #0]
 8004e04:	1c75      	adds	r5, r6, #1
 8004e06:	3a30      	subs	r2, #48	@ 0x30
 8004e08:	2a09      	cmp	r2, #9
 8004e0a:	d950      	bls.n	8004eae <_vfiprintf_r+0x1aa>
 8004e0c:	2900      	cmp	r1, #0
 8004e0e:	d111      	bne.n	8004e34 <_vfiprintf_r+0x130>
 8004e10:	e017      	b.n	8004e42 <_vfiprintf_r+0x13e>
 8004e12:	3601      	adds	r6, #1
 8004e14:	e7af      	b.n	8004d76 <_vfiprintf_r+0x72>
 8004e16:	9b05      	ldr	r3, [sp, #20]
 8004e18:	6822      	ldr	r2, [r4, #0]
 8004e1a:	1ac0      	subs	r0, r0, r3
 8004e1c:	2301      	movs	r3, #1
 8004e1e:	4083      	lsls	r3, r0
 8004e20:	4313      	orrs	r3, r2
 8004e22:	0035      	movs	r5, r6
 8004e24:	6023      	str	r3, [r4, #0]
 8004e26:	e7cc      	b.n	8004dc2 <_vfiprintf_r+0xbe>
 8004e28:	9b07      	ldr	r3, [sp, #28]
 8004e2a:	1d19      	adds	r1, r3, #4
 8004e2c:	681b      	ldr	r3, [r3, #0]
 8004e2e:	9107      	str	r1, [sp, #28]
 8004e30:	2b00      	cmp	r3, #0
 8004e32:	db01      	blt.n	8004e38 <_vfiprintf_r+0x134>
 8004e34:	930b      	str	r3, [sp, #44]	@ 0x2c
 8004e36:	e004      	b.n	8004e42 <_vfiprintf_r+0x13e>
 8004e38:	425b      	negs	r3, r3
 8004e3a:	60e3      	str	r3, [r4, #12]
 8004e3c:	2302      	movs	r3, #2
 8004e3e:	4313      	orrs	r3, r2
 8004e40:	6023      	str	r3, [r4, #0]
 8004e42:	7833      	ldrb	r3, [r6, #0]
 8004e44:	2b2e      	cmp	r3, #46	@ 0x2e
 8004e46:	d10c      	bne.n	8004e62 <_vfiprintf_r+0x15e>
 8004e48:	7873      	ldrb	r3, [r6, #1]
 8004e4a:	2b2a      	cmp	r3, #42	@ 0x2a
 8004e4c:	d134      	bne.n	8004eb8 <_vfiprintf_r+0x1b4>
 8004e4e:	9b07      	ldr	r3, [sp, #28]
 8004e50:	3602      	adds	r6, #2
 8004e52:	1d1a      	adds	r2, r3, #4
 8004e54:	681b      	ldr	r3, [r3, #0]
 8004e56:	9207      	str	r2, [sp, #28]
 8004e58:	2b00      	cmp	r3, #0
 8004e5a:	da01      	bge.n	8004e60 <_vfiprintf_r+0x15c>
 8004e5c:	2301      	movs	r3, #1
 8004e5e:	425b      	negs	r3, r3
 8004e60:	9309      	str	r3, [sp, #36]	@ 0x24
 8004e62:	4d32      	ldr	r5, [pc, #200]	@ (8004f2c <_vfiprintf_r+0x228>)
 8004e64:	2203      	movs	r2, #3
 8004e66:	0028      	movs	r0, r5
 8004e68:	7831      	ldrb	r1, [r6, #0]
 8004e6a:	f000 fb47 	bl	80054fc <memchr>
 8004e6e:	2800      	cmp	r0, #0
 8004e70:	d006      	beq.n	8004e80 <_vfiprintf_r+0x17c>
 8004e72:	2340      	movs	r3, #64	@ 0x40
 8004e74:	1b40      	subs	r0, r0, r5
 8004e76:	4083      	lsls	r3, r0
 8004e78:	6822      	ldr	r2, [r4, #0]
 8004e7a:	3601      	adds	r6, #1
 8004e7c:	4313      	orrs	r3, r2
 8004e7e:	6023      	str	r3, [r4, #0]
 8004e80:	7831      	ldrb	r1, [r6, #0]
 8004e82:	2206      	movs	r2, #6
 8004e84:	482a      	ldr	r0, [pc, #168]	@ (8004f30 <_vfiprintf_r+0x22c>)
 8004e86:	1c75      	adds	r5, r6, #1
 8004e88:	7621      	strb	r1, [r4, #24]
 8004e8a:	f000 fb37 	bl	80054fc <memchr>
 8004e8e:	2800      	cmp	r0, #0
 8004e90:	d040      	beq.n	8004f14 <_vfiprintf_r+0x210>
 8004e92:	4b28      	ldr	r3, [pc, #160]	@ (8004f34 <_vfiprintf_r+0x230>)
 8004e94:	2b00      	cmp	r3, #0
 8004e96:	d122      	bne.n	8004ede <_vfiprintf_r+0x1da>
 8004e98:	2207      	movs	r2, #7
 8004e9a:	9b07      	ldr	r3, [sp, #28]
 8004e9c:	3307      	adds	r3, #7
 8004e9e:	4393      	bics	r3, r2
 8004ea0:	3308      	adds	r3, #8
 8004ea2:	9307      	str	r3, [sp, #28]
 8004ea4:	6963      	ldr	r3, [r4, #20]
 8004ea6:	9a04      	ldr	r2, [sp, #16]
 8004ea8:	189b      	adds	r3, r3, r2
 8004eaa:	6163      	str	r3, [r4, #20]
 8004eac:	e762      	b.n	8004d74 <_vfiprintf_r+0x70>
 8004eae:	4343      	muls	r3, r0
 8004eb0:	002e      	movs	r6, r5
 8004eb2:	2101      	movs	r1, #1
 8004eb4:	189b      	adds	r3, r3, r2
 8004eb6:	e7a4      	b.n	8004e02 <_vfiprintf_r+0xfe>
 8004eb8:	2300      	movs	r3, #0
 8004eba:	200a      	movs	r0, #10
 8004ebc:	0019      	movs	r1, r3
 8004ebe:	3601      	adds	r6, #1
 8004ec0:	6063      	str	r3, [r4, #4]
 8004ec2:	7832      	ldrb	r2, [r6, #0]
 8004ec4:	1c75      	adds	r5, r6, #1
 8004ec6:	3a30      	subs	r2, #48	@ 0x30
 8004ec8:	2a09      	cmp	r2, #9
 8004eca:	d903      	bls.n	8004ed4 <_vfiprintf_r+0x1d0>
 8004ecc:	2b00      	cmp	r3, #0
 8004ece:	d0c8      	beq.n	8004e62 <_vfiprintf_r+0x15e>
 8004ed0:	9109      	str	r1, [sp, #36]	@ 0x24
 8004ed2:	e7c6      	b.n	8004e62 <_vfiprintf_r+0x15e>
 8004ed4:	4341      	muls	r1, r0
 8004ed6:	002e      	movs	r6, r5
 8004ed8:	2301      	movs	r3, #1
 8004eda:	1889      	adds	r1, r1, r2
 8004edc:	e7f1      	b.n	8004ec2 <_vfiprintf_r+0x1be>
 8004ede:	aa07      	add	r2, sp, #28
 8004ee0:	9200      	str	r2, [sp, #0]
 8004ee2:	0021      	movs	r1, r4
 8004ee4:	003a      	movs	r2, r7
 8004ee6:	4b14      	ldr	r3, [pc, #80]	@ (8004f38 <_vfiprintf_r+0x234>)
 8004ee8:	9803      	ldr	r0, [sp, #12]
 8004eea:	e000      	b.n	8004eee <_vfiprintf_r+0x1ea>
 8004eec:	bf00      	nop
 8004eee:	9004      	str	r0, [sp, #16]
 8004ef0:	9b04      	ldr	r3, [sp, #16]
 8004ef2:	3301      	adds	r3, #1
 8004ef4:	d1d6      	bne.n	8004ea4 <_vfiprintf_r+0x1a0>
 8004ef6:	6e7b      	ldr	r3, [r7, #100]	@ 0x64
 8004ef8:	07db      	lsls	r3, r3, #31
 8004efa:	d405      	bmi.n	8004f08 <_vfiprintf_r+0x204>
 8004efc:	89bb      	ldrh	r3, [r7, #12]
 8004efe:	059b      	lsls	r3, r3, #22
 8004f00:	d402      	bmi.n	8004f08 <_vfiprintf_r+0x204>
 8004f02:	6db8      	ldr	r0, [r7, #88]	@ 0x58
 8004f04:	f7ff fdd8 	bl	8004ab8 <__retarget_lock_release_recursive>
 8004f08:	89bb      	ldrh	r3, [r7, #12]
 8004f0a:	065b      	lsls	r3, r3, #25
 8004f0c:	d500      	bpl.n	8004f10 <_vfiprintf_r+0x20c>
 8004f0e:	e71e      	b.n	8004d4e <_vfiprintf_r+0x4a>
 8004f10:	980d      	ldr	r0, [sp, #52]	@ 0x34
 8004f12:	e71e      	b.n	8004d52 <_vfiprintf_r+0x4e>
 8004f14:	aa07      	add	r2, sp, #28
 8004f16:	9200      	str	r2, [sp, #0]
 8004f18:	0021      	movs	r1, r4
 8004f1a:	003a      	movs	r2, r7
 8004f1c:	4b06      	ldr	r3, [pc, #24]	@ (8004f38 <_vfiprintf_r+0x234>)
 8004f1e:	9803      	ldr	r0, [sp, #12]
 8004f20:	f000 f87c 	bl	800501c <_printf_i>
 8004f24:	e7e3      	b.n	8004eee <_vfiprintf_r+0x1ea>
 8004f26:	46c0      	nop			@ (mov r8, r8)
 8004f28:	080056f8 	.word	0x080056f8
 8004f2c:	080056fe 	.word	0x080056fe
 8004f30:	08005702 	.word	0x08005702
 8004f34:	00000000 	.word	0x00000000
 8004f38:	08004cdf 	.word	0x08004cdf

08004f3c <_printf_common>:
 8004f3c:	b5f7      	push	{r0, r1, r2, r4, r5, r6, r7, lr}
 8004f3e:	0016      	movs	r6, r2
 8004f40:	9301      	str	r3, [sp, #4]
 8004f42:	688a      	ldr	r2, [r1, #8]
 8004f44:	690b      	ldr	r3, [r1, #16]
 8004f46:	000c      	movs	r4, r1
 8004f48:	9000      	str	r0, [sp, #0]
 8004f4a:	4293      	cmp	r3, r2
 8004f4c:	da00      	bge.n	8004f50 <_printf_common+0x14>
 8004f4e:	0013      	movs	r3, r2
 8004f50:	0022      	movs	r2, r4
 8004f52:	6033      	str	r3, [r6, #0]
 8004f54:	3243      	adds	r2, #67	@ 0x43
 8004f56:	7812      	ldrb	r2, [r2, #0]
 8004f58:	2a00      	cmp	r2, #0
 8004f5a:	d001      	beq.n	8004f60 <_printf_common+0x24>
 8004f5c:	3301      	adds	r3, #1
 8004f5e:	6033      	str	r3, [r6, #0]
 8004f60:	6823      	ldr	r3, [r4, #0]
 8004f62:	069b      	lsls	r3, r3, #26
 8004f64:	d502      	bpl.n	8004f6c <_printf_common+0x30>
 8004f66:	6833      	ldr	r3, [r6, #0]
 8004f68:	3302      	adds	r3, #2
 8004f6a:	6033      	str	r3, [r6, #0]
 8004f6c:	6822      	ldr	r2, [r4, #0]
 8004f6e:	2306      	movs	r3, #6
 8004f70:	0015      	movs	r5, r2
 8004f72:	401d      	ands	r5, r3
 8004f74:	421a      	tst	r2, r3
 8004f76:	d027      	beq.n	8004fc8 <_printf_common+0x8c>
 8004f78:	0023      	movs	r3, r4
 8004f7a:	3343      	adds	r3, #67	@ 0x43
 8004f7c:	781b      	ldrb	r3, [r3, #0]
 8004f7e:	1e5a      	subs	r2, r3, #1
 8004f80:	4193      	sbcs	r3, r2
 8004f82:	6822      	ldr	r2, [r4, #0]
 8004f84:	0692      	lsls	r2, r2, #26
 8004f86:	d430      	bmi.n	8004fea <_printf_common+0xae>
 8004f88:	0022      	movs	r2, r4
 8004f8a:	9901      	ldr	r1, [sp, #4]
 8004f8c:	9800      	ldr	r0, [sp, #0]
 8004f8e:	9d08      	ldr	r5, [sp, #32]
 8004f90:	3243      	adds	r2, #67	@ 0x43
 8004f92:	47a8      	blx	r5
 8004f94:	3001      	adds	r0, #1
 8004f96:	d025      	beq.n	8004fe4 <_printf_common+0xa8>
 8004f98:	2206      	movs	r2, #6
 8004f9a:	6823      	ldr	r3, [r4, #0]
 8004f9c:	2500      	movs	r5, #0
 8004f9e:	4013      	ands	r3, r2
 8004fa0:	2b04      	cmp	r3, #4
 8004fa2:	d105      	bne.n	8004fb0 <_printf_common+0x74>
 8004fa4:	6833      	ldr	r3, [r6, #0]
 8004fa6:	68e5      	ldr	r5, [r4, #12]
 8004fa8:	1aed      	subs	r5, r5, r3
 8004faa:	43eb      	mvns	r3, r5
 8004fac:	17db      	asrs	r3, r3, #31
 8004fae:	401d      	ands	r5, r3
 8004fb0:	68a3      	ldr	r3, [r4, #8]
 8004fb2:	6922      	ldr	r2, [r4, #16]
 8004fb4:	4293      	cmp	r3, r2
 8004fb6:	dd01      	ble.n	8004fbc <_printf_common+0x80>
 8004fb8:	1a9b      	subs	r3, r3, r2
 8004fba:	18ed      	adds	r5, r5, r3
 8004fbc:	2600      	movs	r6, #0
 8004fbe:	42b5      	cmp	r5, r6
 8004fc0:	d120      	bne.n	8005004 <_printf_common+0xc8>
 8004fc2:	2000      	movs	r0, #0
 8004fc4:	e010      	b.n	8004fe8 <_printf_common+0xac>
 8004fc6:	3501      	adds	r5, #1
 8004fc8:	68e3      	ldr	r3, [r4, #12]
 8004fca:	6832      	ldr	r2, [r6, #0]
 8004fcc:	1a9b      	subs	r3, r3, r2
 8004fce:	42ab      	cmp	r3, r5
 8004fd0:	ddd2      	ble.n	8004f78 <_printf_common+0x3c>
 8004fd2:	0022      	movs	r2, r4
 8004fd4:	2301      	movs	r3, #1
 8004fd6:	9901      	ldr	r1, [sp, #4]
 8004fd8:	9800      	ldr	r0, [sp, #0]
 8004fda:	9f08      	ldr	r7, [sp, #32]
 8004fdc:	3219      	adds	r2, #25
 8004fde:	47b8      	blx	r7
 8004fe0:	3001      	adds	r0, #1
 8004fe2:	d1f0      	bne.n	8004fc6 <_printf_common+0x8a>
 8004fe4:	2001      	movs	r0, #1
 8004fe6:	4240      	negs	r0, r0
 8004fe8:	bdfe      	pop	{r1, r2, r3, r4, r5, r6, r7, pc}
 8004fea:	2030      	movs	r0, #48	@ 0x30
 8004fec:	18e1      	adds	r1, r4, r3
 8004fee:	3143      	adds	r1, #67	@ 0x43
 8004ff0:	7008      	strb	r0, [r1, #0]
 8004ff2:	0021      	movs	r1, r4
 8004ff4:	1c5a      	adds	r2, r3, #1
 8004ff6:	3145      	adds	r1, #69	@ 0x45
 8004ff8:	7809      	ldrb	r1, [r1, #0]
 8004ffa:	18a2      	adds	r2, r4, r2
 8004ffc:	3243      	adds	r2, #67	@ 0x43
 8004ffe:	3302      	adds	r3, #2
 8005000:	7011      	strb	r1, [r2, #0]
 8005002:	e7c1      	b.n	8004f88 <_printf_common+0x4c>
 8005004:	0022      	movs	r2, r4
 8005006:	2301      	movs	r3, #1
 8005008:	9901      	ldr	r1, [sp, #4]
 800500a:	9800      	ldr	r0, [sp, #0]
 800500c:	9f08      	ldr	r7, [sp, #32]
 800500e:	321a      	adds	r2, #26
 8005010:	47b8      	blx	r7
 8005012:	3001      	adds	r0, #1
 8005014:	d0e6      	beq.n	8004fe4 <_printf_common+0xa8>
 8005016:	3601      	adds	r6, #1
 8005018:	e7d1      	b.n	8004fbe <_printf_common+0x82>
	...

0800501c <_printf_i>:
 800501c:	b5f0      	push	{r4, r5, r6, r7, lr}
 800501e:	b08b      	sub	sp, #44	@ 0x2c
 8005020:	9206      	str	r2, [sp, #24]
 8005022:	000a      	movs	r2, r1
 8005024:	3243      	adds	r2, #67	@ 0x43
 8005026:	9307      	str	r3, [sp, #28]
 8005028:	9005      	str	r0, [sp, #20]
 800502a:	9203      	str	r2, [sp, #12]
 800502c:	7e0a      	ldrb	r2, [r1, #24]
 800502e:	000c      	movs	r4, r1
 8005030:	9b10      	ldr	r3, [sp, #64]	@ 0x40
 8005032:	2a78      	cmp	r2, #120	@ 0x78
 8005034:	d809      	bhi.n	800504a <_printf_i+0x2e>
 8005036:	2a62      	cmp	r2, #98	@ 0x62
 8005038:	d80b      	bhi.n	8005052 <_printf_i+0x36>
 800503a:	2a00      	cmp	r2, #0
 800503c:	d100      	bne.n	8005040 <_printf_i+0x24>
 800503e:	e0ba      	b.n	80051b6 <_printf_i+0x19a>
 8005040:	497a      	ldr	r1, [pc, #488]	@ (800522c <_printf_i+0x210>)
 8005042:	9104      	str	r1, [sp, #16]
 8005044:	2a58      	cmp	r2, #88	@ 0x58
 8005046:	d100      	bne.n	800504a <_printf_i+0x2e>
 8005048:	e08e      	b.n	8005168 <_printf_i+0x14c>
 800504a:	0025      	movs	r5, r4
 800504c:	3542      	adds	r5, #66	@ 0x42
 800504e:	702a      	strb	r2, [r5, #0]
 8005050:	e022      	b.n	8005098 <_printf_i+0x7c>
 8005052:	0010      	movs	r0, r2
 8005054:	3863      	subs	r0, #99	@ 0x63
 8005056:	2815      	cmp	r0, #21
 8005058:	d8f7      	bhi.n	800504a <_printf_i+0x2e>
 800505a:	f7fb f853 	bl	8000104 <__gnu_thumb1_case_shi>
 800505e:	0016      	.short	0x0016
 8005060:	fff6001f 	.word	0xfff6001f
 8005064:	fff6fff6 	.word	0xfff6fff6
 8005068:	001ffff6 	.word	0x001ffff6
 800506c:	fff6fff6 	.word	0xfff6fff6
 8005070:	fff6fff6 	.word	0xfff6fff6
 8005074:	0036009f 	.word	0x0036009f
 8005078:	fff6007e 	.word	0xfff6007e
 800507c:	00b0fff6 	.word	0x00b0fff6
 8005080:	0036fff6 	.word	0x0036fff6
 8005084:	fff6fff6 	.word	0xfff6fff6
 8005088:	0082      	.short	0x0082
 800508a:	0025      	movs	r5, r4
 800508c:	681a      	ldr	r2, [r3, #0]
 800508e:	3542      	adds	r5, #66	@ 0x42
 8005090:	1d11      	adds	r1, r2, #4
 8005092:	6019      	str	r1, [r3, #0]
 8005094:	6813      	ldr	r3, [r2, #0]
 8005096:	702b      	strb	r3, [r5, #0]
 8005098:	2301      	movs	r3, #1
 800509a:	e09e      	b.n	80051da <_printf_i+0x1be>
 800509c:	6818      	ldr	r0, [r3, #0]
 800509e:	6809      	ldr	r1, [r1, #0]
 80050a0:	1d02      	adds	r2, r0, #4
 80050a2:	060d      	lsls	r5, r1, #24
 80050a4:	d50b      	bpl.n	80050be <_printf_i+0xa2>
 80050a6:	6806      	ldr	r6, [r0, #0]
 80050a8:	601a      	str	r2, [r3, #0]
 80050aa:	2e00      	cmp	r6, #0
 80050ac:	da03      	bge.n	80050b6 <_printf_i+0x9a>
 80050ae:	232d      	movs	r3, #45	@ 0x2d
 80050b0:	9a03      	ldr	r2, [sp, #12]
 80050b2:	4276      	negs	r6, r6
 80050b4:	7013      	strb	r3, [r2, #0]
 80050b6:	4b5d      	ldr	r3, [pc, #372]	@ (800522c <_printf_i+0x210>)
 80050b8:	270a      	movs	r7, #10
 80050ba:	9304      	str	r3, [sp, #16]
 80050bc:	e018      	b.n	80050f0 <_printf_i+0xd4>
 80050be:	6806      	ldr	r6, [r0, #0]
 80050c0:	601a      	str	r2, [r3, #0]
 80050c2:	0649      	lsls	r1, r1, #25
 80050c4:	d5f1      	bpl.n	80050aa <_printf_i+0x8e>
 80050c6:	b236      	sxth	r6, r6
 80050c8:	e7ef      	b.n	80050aa <_printf_i+0x8e>
 80050ca:	6808      	ldr	r0, [r1, #0]
 80050cc:	6819      	ldr	r1, [r3, #0]
 80050ce:	c940      	ldmia	r1!, {r6}
 80050d0:	0605      	lsls	r5, r0, #24
 80050d2:	d402      	bmi.n	80050da <_printf_i+0xbe>
 80050d4:	0640      	lsls	r0, r0, #25
 80050d6:	d500      	bpl.n	80050da <_printf_i+0xbe>
 80050d8:	b2b6      	uxth	r6, r6
 80050da:	6019      	str	r1, [r3, #0]
 80050dc:	4b53      	ldr	r3, [pc, #332]	@ (800522c <_printf_i+0x210>)
 80050de:	270a      	movs	r7, #10
 80050e0:	9304      	str	r3, [sp, #16]
 80050e2:	2a6f      	cmp	r2, #111	@ 0x6f
 80050e4:	d100      	bne.n	80050e8 <_printf_i+0xcc>
 80050e6:	3f02      	subs	r7, #2
 80050e8:	0023      	movs	r3, r4
 80050ea:	2200      	movs	r2, #0
 80050ec:	3343      	adds	r3, #67	@ 0x43
 80050ee:	701a      	strb	r2, [r3, #0]
 80050f0:	6863      	ldr	r3, [r4, #4]
 80050f2:	60a3      	str	r3, [r4, #8]
 80050f4:	2b00      	cmp	r3, #0
 80050f6:	db06      	blt.n	8005106 <_printf_i+0xea>
 80050f8:	2104      	movs	r1, #4
 80050fa:	6822      	ldr	r2, [r4, #0]
 80050fc:	9d03      	ldr	r5, [sp, #12]
 80050fe:	438a      	bics	r2, r1
 8005100:	6022      	str	r2, [r4, #0]
 8005102:	4333      	orrs	r3, r6
 8005104:	d00c      	beq.n	8005120 <_printf_i+0x104>
 8005106:	9d03      	ldr	r5, [sp, #12]
 8005108:	0030      	movs	r0, r6
 800510a:	0039      	movs	r1, r7
 800510c:	f7fb f88a 	bl	8000224 <__aeabi_uidivmod>
 8005110:	9b04      	ldr	r3, [sp, #16]
 8005112:	3d01      	subs	r5, #1
 8005114:	5c5b      	ldrb	r3, [r3, r1]
 8005116:	702b      	strb	r3, [r5, #0]
 8005118:	0033      	movs	r3, r6
 800511a:	0006      	movs	r6, r0
 800511c:	429f      	cmp	r7, r3
 800511e:	d9f3      	bls.n	8005108 <_printf_i+0xec>
 8005120:	2f08      	cmp	r7, #8
 8005122:	d109      	bne.n	8005138 <_printf_i+0x11c>
 8005124:	6823      	ldr	r3, [r4, #0]
 8005126:	07db      	lsls	r3, r3, #31
 8005128:	d506      	bpl.n	8005138 <_printf_i+0x11c>
 800512a:	6862      	ldr	r2, [r4, #4]
 800512c:	6923      	ldr	r3, [r4, #16]
 800512e:	429a      	cmp	r2, r3
 8005130:	dc02      	bgt.n	8005138 <_printf_i+0x11c>
 8005132:	2330      	movs	r3, #48	@ 0x30
 8005134:	3d01      	subs	r5, #1
 8005136:	702b      	strb	r3, [r5, #0]
 8005138:	9b03      	ldr	r3, [sp, #12]
 800513a:	1b5b      	subs	r3, r3, r5
 800513c:	6123      	str	r3, [r4, #16]
 800513e:	9b07      	ldr	r3, [sp, #28]
 8005140:	0021      	movs	r1, r4
 8005142:	9300      	str	r3, [sp, #0]
 8005144:	9805      	ldr	r0, [sp, #20]
 8005146:	9b06      	ldr	r3, [sp, #24]
 8005148:	aa09      	add	r2, sp, #36	@ 0x24
 800514a:	f7ff fef7 	bl	8004f3c <_printf_common>
 800514e:	3001      	adds	r0, #1
 8005150:	d148      	bne.n	80051e4 <_printf_i+0x1c8>
 8005152:	2001      	movs	r0, #1
 8005154:	4240      	negs	r0, r0
 8005156:	b00b      	add	sp, #44	@ 0x2c
 8005158:	bdf0      	pop	{r4, r5, r6, r7, pc}
 800515a:	2220      	movs	r2, #32
 800515c:	6809      	ldr	r1, [r1, #0]
 800515e:	430a      	orrs	r2, r1
 8005160:	6022      	str	r2, [r4, #0]
 8005162:	2278      	movs	r2, #120	@ 0x78
 8005164:	4932      	ldr	r1, [pc, #200]	@ (8005230 <_printf_i+0x214>)
 8005166:	9104      	str	r1, [sp, #16]
 8005168:	0021      	movs	r1, r4
 800516a:	3145      	adds	r1, #69	@ 0x45
 800516c:	700a      	strb	r2, [r1, #0]
 800516e:	6819      	ldr	r1, [r3, #0]
 8005170:	6822      	ldr	r2, [r4, #0]
 8005172:	c940      	ldmia	r1!, {r6}
 8005174:	0610      	lsls	r0, r2, #24
 8005176:	d402      	bmi.n	800517e <_printf_i+0x162>
 8005178:	0650      	lsls	r0, r2, #25
 800517a:	d500      	bpl.n	800517e <_printf_i+0x162>
 800517c:	b2b6      	uxth	r6, r6
 800517e:	6019      	str	r1, [r3, #0]
 8005180:	07d3      	lsls	r3, r2, #31
 8005182:	d502      	bpl.n	800518a <_printf_i+0x16e>
 8005184:	2320      	movs	r3, #32
 8005186:	4313      	orrs	r3, r2
 8005188:	6023      	str	r3, [r4, #0]
 800518a:	2e00      	cmp	r6, #0
 800518c:	d001      	beq.n	8005192 <_printf_i+0x176>
 800518e:	2710      	movs	r7, #16
 8005190:	e7aa      	b.n	80050e8 <_printf_i+0xcc>
 8005192:	2220      	movs	r2, #32
 8005194:	6823      	ldr	r3, [r4, #0]
 8005196:	4393      	bics	r3, r2
 8005198:	6023      	str	r3, [r4, #0]
 800519a:	e7f8      	b.n	800518e <_printf_i+0x172>
 800519c:	681a      	ldr	r2, [r3, #0]
 800519e:	680d      	ldr	r5, [r1, #0]
 80051a0:	1d10      	adds	r0, r2, #4
 80051a2:	6949      	ldr	r1, [r1, #20]
 80051a4:	6018      	str	r0, [r3, #0]
 80051a6:	6813      	ldr	r3, [r2, #0]
 80051a8:	062e      	lsls	r6, r5, #24
 80051aa:	d501      	bpl.n	80051b0 <_printf_i+0x194>
 80051ac:	6019      	str	r1, [r3, #0]
 80051ae:	e002      	b.n	80051b6 <_printf_i+0x19a>
 80051b0:	066d      	lsls	r5, r5, #25
 80051b2:	d5fb      	bpl.n	80051ac <_printf_i+0x190>
 80051b4:	8019      	strh	r1, [r3, #0]
 80051b6:	2300      	movs	r3, #0
 80051b8:	9d03      	ldr	r5, [sp, #12]
 80051ba:	6123      	str	r3, [r4, #16]
 80051bc:	e7bf      	b.n	800513e <_printf_i+0x122>
 80051be:	681a      	ldr	r2, [r3, #0]
 80051c0:	1d11      	adds	r1, r2, #4
 80051c2:	6019      	str	r1, [r3, #0]
 80051c4:	6815      	ldr	r5, [r2, #0]
 80051c6:	2100      	movs	r1, #0
 80051c8:	0028      	movs	r0, r5
 80051ca:	6862      	ldr	r2, [r4, #4]
 80051cc:	f000 f996 	bl	80054fc <memchr>
 80051d0:	2800      	cmp	r0, #0
 80051d2:	d001      	beq.n	80051d8 <_printf_i+0x1bc>
 80051d4:	1b40      	subs	r0, r0, r5
 80051d6:	6060      	str	r0, [r4, #4]
 80051d8:	6863      	ldr	r3, [r4, #4]
 80051da:	6123      	str	r3, [r4, #16]
 80051dc:	2300      	movs	r3, #0
 80051de:	9a03      	ldr	r2, [sp, #12]
 80051e0:	7013      	strb	r3, [r2, #0]
 80051e2:	e7ac      	b.n	800513e <_printf_i+0x122>
 80051e4:	002a      	movs	r2, r5
 80051e6:	6923      	ldr	r3, [r4, #16]
 80051e8:	9906      	ldr	r1, [sp, #24]
 80051ea:	9805      	ldr	r0, [sp, #20]
 80051ec:	9d07      	ldr	r5, [sp, #28]
 80051ee:	47a8      	blx	r5
 80051f0:	3001      	adds	r0, #1
 80051f2:	d0ae      	beq.n	8005152 <_printf_i+0x136>
 80051f4:	6823      	ldr	r3, [r4, #0]
 80051f6:	079b      	lsls	r3, r3, #30
 80051f8:	d415      	bmi.n	8005226 <_printf_i+0x20a>
 80051fa:	9b09      	ldr	r3, [sp, #36]	@ 0x24
 80051fc:	68e0      	ldr	r0, [r4, #12]
 80051fe:	4298      	cmp	r0, r3
 8005200:	daa9      	bge.n	8005156 <_printf_i+0x13a>
 8005202:	0018      	movs	r0, r3
 8005204:	e7a7      	b.n	8005156 <_printf_i+0x13a>
 8005206:	0022      	movs	r2, r4
 8005208:	2301      	movs	r3, #1
 800520a:	9906      	ldr	r1, [sp, #24]
 800520c:	9805      	ldr	r0, [sp, #20]
 800520e:	9e07      	ldr	r6, [sp, #28]
 8005210:	3219      	adds	r2, #25
 8005212:	47b0      	blx	r6
 8005214:	3001      	adds	r0, #1
 8005216:	d09c      	beq.n	8005152 <_printf_i+0x136>
 8005218:	3501      	adds	r5, #1
 800521a:	68e3      	ldr	r3, [r4, #12]
 800521c:	9a09      	ldr	r2, [sp, #36]	@ 0x24
 800521e:	1a9b      	subs	r3, r3, r2
 8005220:	42ab      	cmp	r3, r5
 8005222:	dcf0      	bgt.n	8005206 <_printf_i+0x1ea>
 8005224:	e7e9      	b.n	80051fa <_printf_i+0x1de>
 8005226:	2500      	movs	r5, #0
 8005228:	e7f7      	b.n	800521a <_printf_i+0x1fe>
 800522a:	46c0      	nop			@ (mov r8, r8)
 800522c:	08005709 	.word	0x08005709
 8005230:	0800571a 	.word	0x0800571a

08005234 <__sflush_r>:
 8005234:	b5f7      	push	{r0, r1, r2, r4, r5, r6, r7, lr}
 8005236:	220c      	movs	r2, #12
 8005238:	5e8b      	ldrsh	r3, [r1, r2]
 800523a:	0005      	movs	r5, r0
 800523c:	000c      	movs	r4, r1
 800523e:	071a      	lsls	r2, r3, #28
 8005240:	d456      	bmi.n	80052f0 <__sflush_r+0xbc>
 8005242:	684a      	ldr	r2, [r1, #4]
 8005244:	2a00      	cmp	r2, #0
 8005246:	dc02      	bgt.n	800524e <__sflush_r+0x1a>
 8005248:	6c0a      	ldr	r2, [r1, #64]	@ 0x40
 800524a:	2a00      	cmp	r2, #0
 800524c:	dd4e      	ble.n	80052ec <__sflush_r+0xb8>
 800524e:	6ae7      	ldr	r7, [r4, #44]	@ 0x2c
 8005250:	2f00      	cmp	r7, #0
 8005252:	d04b      	beq.n	80052ec <__sflush_r+0xb8>
 8005254:	2200      	movs	r2, #0
 8005256:	2080      	movs	r0, #128	@ 0x80
 8005258:	682e      	ldr	r6, [r5, #0]
 800525a:	602a      	str	r2, [r5, #0]
 800525c:	001a      	movs	r2, r3
 800525e:	0140      	lsls	r0, r0, #5
 8005260:	6a21      	ldr	r1, [r4, #32]
 8005262:	4002      	ands	r2, r0
 8005264:	4203      	tst	r3, r0
 8005266:	d033      	beq.n	80052d0 <__sflush_r+0x9c>
 8005268:	6d62      	ldr	r2, [r4, #84]	@ 0x54
 800526a:	89a3      	ldrh	r3, [r4, #12]
 800526c:	075b      	lsls	r3, r3, #29
 800526e:	d506      	bpl.n	800527e <__sflush_r+0x4a>
 8005270:	6863      	ldr	r3, [r4, #4]
 8005272:	1ad2      	subs	r2, r2, r3
 8005274:	6b63      	ldr	r3, [r4, #52]	@ 0x34
 8005276:	2b00      	cmp	r3, #0
 8005278:	d001      	beq.n	800527e <__sflush_r+0x4a>
 800527a:	6c23      	ldr	r3, [r4, #64]	@ 0x40
 800527c:	1ad2      	subs	r2, r2, r3
 800527e:	2300      	movs	r3, #0
 8005280:	0028      	movs	r0, r5
 8005282:	6ae7      	ldr	r7, [r4, #44]	@ 0x2c
 8005284:	6a21      	ldr	r1, [r4, #32]
 8005286:	47b8      	blx	r7
 8005288:	89a2      	ldrh	r2, [r4, #12]
 800528a:	1c43      	adds	r3, r0, #1
 800528c:	d106      	bne.n	800529c <__sflush_r+0x68>
 800528e:	6829      	ldr	r1, [r5, #0]
 8005290:	291d      	cmp	r1, #29
 8005292:	d846      	bhi.n	8005322 <__sflush_r+0xee>
 8005294:	4b29      	ldr	r3, [pc, #164]	@ (800533c <__sflush_r+0x108>)
 8005296:	40cb      	lsrs	r3, r1
 8005298:	07db      	lsls	r3, r3, #31
 800529a:	d542      	bpl.n	8005322 <__sflush_r+0xee>
 800529c:	2300      	movs	r3, #0
 800529e:	6063      	str	r3, [r4, #4]
 80052a0:	6923      	ldr	r3, [r4, #16]
 80052a2:	6023      	str	r3, [r4, #0]
 80052a4:	04d2      	lsls	r2, r2, #19
 80052a6:	d505      	bpl.n	80052b4 <__sflush_r+0x80>
 80052a8:	1c43      	adds	r3, r0, #1
 80052aa:	d102      	bne.n	80052b2 <__sflush_r+0x7e>
 80052ac:	682b      	ldr	r3, [r5, #0]
 80052ae:	2b00      	cmp	r3, #0
 80052b0:	d100      	bne.n	80052b4 <__sflush_r+0x80>
 80052b2:	6560      	str	r0, [r4, #84]	@ 0x54
 80052b4:	6b61      	ldr	r1, [r4, #52]	@ 0x34
 80052b6:	602e      	str	r6, [r5, #0]
 80052b8:	2900      	cmp	r1, #0
 80052ba:	d017      	beq.n	80052ec <__sflush_r+0xb8>
 80052bc:	0023      	movs	r3, r4
 80052be:	3344      	adds	r3, #68	@ 0x44
 80052c0:	4299      	cmp	r1, r3
 80052c2:	d002      	beq.n	80052ca <__sflush_r+0x96>
 80052c4:	0028      	movs	r0, r5
 80052c6:	f7ff fbf9 	bl	8004abc <_free_r>
 80052ca:	2300      	movs	r3, #0
 80052cc:	6363      	str	r3, [r4, #52]	@ 0x34
 80052ce:	e00d      	b.n	80052ec <__sflush_r+0xb8>
 80052d0:	2301      	movs	r3, #1
 80052d2:	0028      	movs	r0, r5
 80052d4:	47b8      	blx	r7
 80052d6:	0002      	movs	r2, r0
 80052d8:	1c43      	adds	r3, r0, #1
 80052da:	d1c6      	bne.n	800526a <__sflush_r+0x36>
 80052dc:	682b      	ldr	r3, [r5, #0]
 80052de:	2b00      	cmp	r3, #0
 80052e0:	d0c3      	beq.n	800526a <__sflush_r+0x36>
 80052e2:	2b1d      	cmp	r3, #29
 80052e4:	d001      	beq.n	80052ea <__sflush_r+0xb6>
 80052e6:	2b16      	cmp	r3, #22
 80052e8:	d11a      	bne.n	8005320 <__sflush_r+0xec>
 80052ea:	602e      	str	r6, [r5, #0]
 80052ec:	2000      	movs	r0, #0
 80052ee:	e01e      	b.n	800532e <__sflush_r+0xfa>
 80052f0:	690e      	ldr	r6, [r1, #16]
 80052f2:	2e00      	cmp	r6, #0
 80052f4:	d0fa      	beq.n	80052ec <__sflush_r+0xb8>
 80052f6:	680f      	ldr	r7, [r1, #0]
 80052f8:	600e      	str	r6, [r1, #0]
 80052fa:	1bba      	subs	r2, r7, r6
 80052fc:	9201      	str	r2, [sp, #4]
 80052fe:	2200      	movs	r2, #0
 8005300:	079b      	lsls	r3, r3, #30
 8005302:	d100      	bne.n	8005306 <__sflush_r+0xd2>
 8005304:	694a      	ldr	r2, [r1, #20]
 8005306:	60a2      	str	r2, [r4, #8]
 8005308:	9b01      	ldr	r3, [sp, #4]
 800530a:	2b00      	cmp	r3, #0
 800530c:	ddee      	ble.n	80052ec <__sflush_r+0xb8>
 800530e:	6aa3      	ldr	r3, [r4, #40]	@ 0x28
 8005310:	0032      	movs	r2, r6
 8005312:	001f      	movs	r7, r3
 8005314:	0028      	movs	r0, r5
 8005316:	9b01      	ldr	r3, [sp, #4]
 8005318:	6a21      	ldr	r1, [r4, #32]
 800531a:	47b8      	blx	r7
 800531c:	2800      	cmp	r0, #0
 800531e:	dc07      	bgt.n	8005330 <__sflush_r+0xfc>
 8005320:	89a2      	ldrh	r2, [r4, #12]
 8005322:	2340      	movs	r3, #64	@ 0x40
 8005324:	2001      	movs	r0, #1
 8005326:	4313      	orrs	r3, r2
 8005328:	b21b      	sxth	r3, r3
 800532a:	81a3      	strh	r3, [r4, #12]
 800532c:	4240      	negs	r0, r0
 800532e:	bdfe      	pop	{r1, r2, r3, r4, r5, r6, r7, pc}
 8005330:	9b01      	ldr	r3, [sp, #4]
 8005332:	1836      	adds	r6, r6, r0
 8005334:	1a1b      	subs	r3, r3, r0
 8005336:	9301      	str	r3, [sp, #4]
 8005338:	e7e6      	b.n	8005308 <__sflush_r+0xd4>
 800533a:	46c0      	nop			@ (mov r8, r8)
 800533c:	20400001 	.word	0x20400001

08005340 <_fflush_r>:
 8005340:	690b      	ldr	r3, [r1, #16]
 8005342:	b570      	push	{r4, r5, r6, lr}
 8005344:	0005      	movs	r5, r0
 8005346:	000c      	movs	r4, r1
 8005348:	2b00      	cmp	r3, #0
 800534a:	d102      	bne.n	8005352 <_fflush_r+0x12>
 800534c:	2500      	movs	r5, #0
 800534e:	0028      	movs	r0, r5
 8005350:	bd70      	pop	{r4, r5, r6, pc}
 8005352:	2800      	cmp	r0, #0
 8005354:	d004      	beq.n	8005360 <_fflush_r+0x20>
 8005356:	6a03      	ldr	r3, [r0, #32]
 8005358:	2b00      	cmp	r3, #0
 800535a:	d101      	bne.n	8005360 <_fflush_r+0x20>
 800535c:	f7ff fa9a 	bl	8004894 <__sinit>
 8005360:	220c      	movs	r2, #12
 8005362:	5ea3      	ldrsh	r3, [r4, r2]
 8005364:	2b00      	cmp	r3, #0
 8005366:	d0f1      	beq.n	800534c <_fflush_r+0xc>
 8005368:	6e62      	ldr	r2, [r4, #100]	@ 0x64
 800536a:	07d2      	lsls	r2, r2, #31
 800536c:	d404      	bmi.n	8005378 <_fflush_r+0x38>
 800536e:	059b      	lsls	r3, r3, #22
 8005370:	d402      	bmi.n	8005378 <_fflush_r+0x38>
 8005372:	6da0      	ldr	r0, [r4, #88]	@ 0x58
 8005374:	f7ff fb9f 	bl	8004ab6 <__retarget_lock_acquire_recursive>
 8005378:	0028      	movs	r0, r5
 800537a:	0021      	movs	r1, r4
 800537c:	f7ff ff5a 	bl	8005234 <__sflush_r>
 8005380:	6e63      	ldr	r3, [r4, #100]	@ 0x64
 8005382:	0005      	movs	r5, r0
 8005384:	07db      	lsls	r3, r3, #31
 8005386:	d4e2      	bmi.n	800534e <_fflush_r+0xe>
 8005388:	89a3      	ldrh	r3, [r4, #12]
 800538a:	059b      	lsls	r3, r3, #22
 800538c:	d4df      	bmi.n	800534e <_fflush_r+0xe>
 800538e:	6da0      	ldr	r0, [r4, #88]	@ 0x58
 8005390:	f7ff fb92 	bl	8004ab8 <__retarget_lock_release_recursive>
 8005394:	e7db      	b.n	800534e <_fflush_r+0xe>

08005396 <__swbuf_r>:
 8005396:	b5f8      	push	{r3, r4, r5, r6, r7, lr}
 8005398:	0006      	movs	r6, r0
 800539a:	000d      	movs	r5, r1
 800539c:	0014      	movs	r4, r2
 800539e:	2800      	cmp	r0, #0
 80053a0:	d004      	beq.n	80053ac <__swbuf_r+0x16>
 80053a2:	6a03      	ldr	r3, [r0, #32]
 80053a4:	2b00      	cmp	r3, #0
 80053a6:	d101      	bne.n	80053ac <__swbuf_r+0x16>
 80053a8:	f7ff fa74 	bl	8004894 <__sinit>
 80053ac:	69a3      	ldr	r3, [r4, #24]
 80053ae:	60a3      	str	r3, [r4, #8]
 80053b0:	89a3      	ldrh	r3, [r4, #12]
 80053b2:	071b      	lsls	r3, r3, #28
 80053b4:	d502      	bpl.n	80053bc <__swbuf_r+0x26>
 80053b6:	6923      	ldr	r3, [r4, #16]
 80053b8:	2b00      	cmp	r3, #0
 80053ba:	d109      	bne.n	80053d0 <__swbuf_r+0x3a>
 80053bc:	0021      	movs	r1, r4
 80053be:	0030      	movs	r0, r6
 80053c0:	f000 f82c 	bl	800541c <__swsetup_r>
 80053c4:	2800      	cmp	r0, #0
 80053c6:	d003      	beq.n	80053d0 <__swbuf_r+0x3a>
 80053c8:	2501      	movs	r5, #1
 80053ca:	426d      	negs	r5, r5
 80053cc:	0028      	movs	r0, r5
 80053ce:	bdf8      	pop	{r3, r4, r5, r6, r7, pc}
 80053d0:	6923      	ldr	r3, [r4, #16]
 80053d2:	6820      	ldr	r0, [r4, #0]
 80053d4:	b2ef      	uxtb	r7, r5
 80053d6:	1ac0      	subs	r0, r0, r3
 80053d8:	6963      	ldr	r3, [r4, #20]
 80053da:	b2ed      	uxtb	r5, r5
 80053dc:	4283      	cmp	r3, r0
 80053de:	dc05      	bgt.n	80053ec <__swbuf_r+0x56>
 80053e0:	0021      	movs	r1, r4
 80053e2:	0030      	movs	r0, r6
 80053e4:	f7ff ffac 	bl	8005340 <_fflush_r>
 80053e8:	2800      	cmp	r0, #0
 80053ea:	d1ed      	bne.n	80053c8 <__swbuf_r+0x32>
 80053ec:	68a3      	ldr	r3, [r4, #8]
 80053ee:	3001      	adds	r0, #1
 80053f0:	3b01      	subs	r3, #1
 80053f2:	60a3      	str	r3, [r4, #8]
 80053f4:	6823      	ldr	r3, [r4, #0]
 80053f6:	1c5a      	adds	r2, r3, #1
 80053f8:	6022      	str	r2, [r4, #0]
 80053fa:	701f      	strb	r7, [r3, #0]
 80053fc:	6963      	ldr	r3, [r4, #20]
 80053fe:	4283      	cmp	r3, r0
 8005400:	d004      	beq.n	800540c <__swbuf_r+0x76>
 8005402:	89a3      	ldrh	r3, [r4, #12]
 8005404:	07db      	lsls	r3, r3, #31
 8005406:	d5e1      	bpl.n	80053cc <__swbuf_r+0x36>
 8005408:	2d0a      	cmp	r5, #10
 800540a:	d1df      	bne.n	80053cc <__swbuf_r+0x36>
 800540c:	0021      	movs	r1, r4
 800540e:	0030      	movs	r0, r6
 8005410:	f7ff ff96 	bl	8005340 <_fflush_r>
 8005414:	2800      	cmp	r0, #0
 8005416:	d0d9      	beq.n	80053cc <__swbuf_r+0x36>
 8005418:	e7d6      	b.n	80053c8 <__swbuf_r+0x32>
	...

0800541c <__swsetup_r>:
 800541c:	4b2d      	ldr	r3, [pc, #180]	@ (80054d4 <__swsetup_r+0xb8>)
 800541e:	b570      	push	{r4, r5, r6, lr}
 8005420:	0005      	movs	r5, r0
 8005422:	6818      	ldr	r0, [r3, #0]
 8005424:	000c      	movs	r4, r1
 8005426:	2800      	cmp	r0, #0
 8005428:	d004      	beq.n	8005434 <__swsetup_r+0x18>
 800542a:	6a03      	ldr	r3, [r0, #32]
 800542c:	2b00      	cmp	r3, #0
 800542e:	d101      	bne.n	8005434 <__swsetup_r+0x18>
 8005430:	f7ff fa30 	bl	8004894 <__sinit>
 8005434:	220c      	movs	r2, #12
 8005436:	5ea3      	ldrsh	r3, [r4, r2]
 8005438:	071a      	lsls	r2, r3, #28
 800543a:	d423      	bmi.n	8005484 <__swsetup_r+0x68>
 800543c:	06da      	lsls	r2, r3, #27
 800543e:	d407      	bmi.n	8005450 <__swsetup_r+0x34>
 8005440:	2209      	movs	r2, #9
 8005442:	602a      	str	r2, [r5, #0]
 8005444:	2240      	movs	r2, #64	@ 0x40
 8005446:	2001      	movs	r0, #1
 8005448:	4313      	orrs	r3, r2
 800544a:	81a3      	strh	r3, [r4, #12]
 800544c:	4240      	negs	r0, r0
 800544e:	e03a      	b.n	80054c6 <__swsetup_r+0xaa>
 8005450:	075b      	lsls	r3, r3, #29
 8005452:	d513      	bpl.n	800547c <__swsetup_r+0x60>
 8005454:	6b61      	ldr	r1, [r4, #52]	@ 0x34
 8005456:	2900      	cmp	r1, #0
 8005458:	d008      	beq.n	800546c <__swsetup_r+0x50>
 800545a:	0023      	movs	r3, r4
 800545c:	3344      	adds	r3, #68	@ 0x44
 800545e:	4299      	cmp	r1, r3
 8005460:	d002      	beq.n	8005468 <__swsetup_r+0x4c>
 8005462:	0028      	movs	r0, r5
 8005464:	f7ff fb2a 	bl	8004abc <_free_r>
 8005468:	2300      	movs	r3, #0
 800546a:	6363      	str	r3, [r4, #52]	@ 0x34
 800546c:	2224      	movs	r2, #36	@ 0x24
 800546e:	89a3      	ldrh	r3, [r4, #12]
 8005470:	4393      	bics	r3, r2
 8005472:	81a3      	strh	r3, [r4, #12]
 8005474:	2300      	movs	r3, #0
 8005476:	6063      	str	r3, [r4, #4]
 8005478:	6923      	ldr	r3, [r4, #16]
 800547a:	6023      	str	r3, [r4, #0]
 800547c:	2308      	movs	r3, #8
 800547e:	89a2      	ldrh	r2, [r4, #12]
 8005480:	4313      	orrs	r3, r2
 8005482:	81a3      	strh	r3, [r4, #12]
 8005484:	6923      	ldr	r3, [r4, #16]
 8005486:	2b00      	cmp	r3, #0
 8005488:	d10b      	bne.n	80054a2 <__swsetup_r+0x86>
 800548a:	21a0      	movs	r1, #160	@ 0xa0
 800548c:	2280      	movs	r2, #128	@ 0x80
 800548e:	89a3      	ldrh	r3, [r4, #12]
 8005490:	0089      	lsls	r1, r1, #2
 8005492:	0092      	lsls	r2, r2, #2
 8005494:	400b      	ands	r3, r1
 8005496:	4293      	cmp	r3, r2
 8005498:	d003      	beq.n	80054a2 <__swsetup_r+0x86>
 800549a:	0021      	movs	r1, r4
 800549c:	0028      	movs	r0, r5
 800549e:	f000 f863 	bl	8005568 <__smakebuf_r>
 80054a2:	220c      	movs	r2, #12
 80054a4:	5ea3      	ldrsh	r3, [r4, r2]
 80054a6:	2101      	movs	r1, #1
 80054a8:	001a      	movs	r2, r3
 80054aa:	400a      	ands	r2, r1
 80054ac:	420b      	tst	r3, r1
 80054ae:	d00b      	beq.n	80054c8 <__swsetup_r+0xac>
 80054b0:	2200      	movs	r2, #0
 80054b2:	60a2      	str	r2, [r4, #8]
 80054b4:	6962      	ldr	r2, [r4, #20]
 80054b6:	4252      	negs	r2, r2
 80054b8:	61a2      	str	r2, [r4, #24]
 80054ba:	2000      	movs	r0, #0
 80054bc:	6922      	ldr	r2, [r4, #16]
 80054be:	4282      	cmp	r2, r0
 80054c0:	d101      	bne.n	80054c6 <__swsetup_r+0xaa>
 80054c2:	061a      	lsls	r2, r3, #24
 80054c4:	d4be      	bmi.n	8005444 <__swsetup_r+0x28>
 80054c6:	bd70      	pop	{r4, r5, r6, pc}
 80054c8:	0799      	lsls	r1, r3, #30
 80054ca:	d400      	bmi.n	80054ce <__swsetup_r+0xb2>
 80054cc:	6962      	ldr	r2, [r4, #20]
 80054ce:	60a2      	str	r2, [r4, #8]
 80054d0:	e7f3      	b.n	80054ba <__swsetup_r+0x9e>
 80054d2:	46c0      	nop			@ (mov r8, r8)
 80054d4:	20000018 	.word	0x20000018

080054d8 <_sbrk_r>:
 80054d8:	2300      	movs	r3, #0
 80054da:	b570      	push	{r4, r5, r6, lr}
 80054dc:	4d06      	ldr	r5, [pc, #24]	@ (80054f8 <_sbrk_r+0x20>)
 80054de:	0004      	movs	r4, r0
 80054e0:	0008      	movs	r0, r1
 80054e2:	602b      	str	r3, [r5, #0]
 80054e4:	f7fb fb66 	bl	8000bb4 <_sbrk>
 80054e8:	1c43      	adds	r3, r0, #1
 80054ea:	d103      	bne.n	80054f4 <_sbrk_r+0x1c>
 80054ec:	682b      	ldr	r3, [r5, #0]
 80054ee:	2b00      	cmp	r3, #0
 80054f0:	d000      	beq.n	80054f4 <_sbrk_r+0x1c>
 80054f2:	6023      	str	r3, [r4, #0]
 80054f4:	bd70      	pop	{r4, r5, r6, pc}
 80054f6:	46c0      	nop			@ (mov r8, r8)
 80054f8:	20000320 	.word	0x20000320

080054fc <memchr>:
 80054fc:	b2c9      	uxtb	r1, r1
 80054fe:	1882      	adds	r2, r0, r2
 8005500:	4290      	cmp	r0, r2
 8005502:	d101      	bne.n	8005508 <memchr+0xc>
 8005504:	2000      	movs	r0, #0
 8005506:	4770      	bx	lr
 8005508:	7803      	ldrb	r3, [r0, #0]
 800550a:	428b      	cmp	r3, r1
 800550c:	d0fb      	beq.n	8005506 <memchr+0xa>
 800550e:	3001      	adds	r0, #1
 8005510:	e7f6      	b.n	8005500 <memchr+0x4>
	...

08005514 <__swhatbuf_r>:
 8005514:	b570      	push	{r4, r5, r6, lr}
 8005516:	000e      	movs	r6, r1
 8005518:	001d      	movs	r5, r3
 800551a:	230e      	movs	r3, #14
 800551c:	5ec9      	ldrsh	r1, [r1, r3]
 800551e:	0014      	movs	r4, r2
 8005520:	b096      	sub	sp, #88	@ 0x58
 8005522:	2900      	cmp	r1, #0
 8005524:	da0c      	bge.n	8005540 <__swhatbuf_r+0x2c>
 8005526:	89b2      	ldrh	r2, [r6, #12]
 8005528:	2380      	movs	r3, #128	@ 0x80
 800552a:	0011      	movs	r1, r2
 800552c:	4019      	ands	r1, r3
 800552e:	421a      	tst	r2, r3
 8005530:	d114      	bne.n	800555c <__swhatbuf_r+0x48>
 8005532:	2380      	movs	r3, #128	@ 0x80
 8005534:	00db      	lsls	r3, r3, #3
 8005536:	2000      	movs	r0, #0
 8005538:	6029      	str	r1, [r5, #0]
 800553a:	6023      	str	r3, [r4, #0]
 800553c:	b016      	add	sp, #88	@ 0x58
 800553e:	bd70      	pop	{r4, r5, r6, pc}
 8005540:	466a      	mov	r2, sp
 8005542:	f000 f853 	bl	80055ec <_fstat_r>
 8005546:	2800      	cmp	r0, #0
 8005548:	dbed      	blt.n	8005526 <__swhatbuf_r+0x12>
 800554a:	23f0      	movs	r3, #240	@ 0xf0
 800554c:	9901      	ldr	r1, [sp, #4]
 800554e:	021b      	lsls	r3, r3, #8
 8005550:	4019      	ands	r1, r3
 8005552:	4b04      	ldr	r3, [pc, #16]	@ (8005564 <__swhatbuf_r+0x50>)
 8005554:	18c9      	adds	r1, r1, r3
 8005556:	424b      	negs	r3, r1
 8005558:	4159      	adcs	r1, r3
 800555a:	e7ea      	b.n	8005532 <__swhatbuf_r+0x1e>
 800555c:	2100      	movs	r1, #0
 800555e:	2340      	movs	r3, #64	@ 0x40
 8005560:	e7e9      	b.n	8005536 <__swhatbuf_r+0x22>
 8005562:	46c0      	nop			@ (mov r8, r8)
 8005564:	ffffe000 	.word	0xffffe000

08005568 <__smakebuf_r>:
 8005568:	b5f0      	push	{r4, r5, r6, r7, lr}
 800556a:	2602      	movs	r6, #2
 800556c:	898b      	ldrh	r3, [r1, #12]
 800556e:	0005      	movs	r5, r0
 8005570:	000c      	movs	r4, r1
 8005572:	b085      	sub	sp, #20
 8005574:	4233      	tst	r3, r6
 8005576:	d007      	beq.n	8005588 <__smakebuf_r+0x20>
 8005578:	0023      	movs	r3, r4
 800557a:	3347      	adds	r3, #71	@ 0x47
 800557c:	6023      	str	r3, [r4, #0]
 800557e:	6123      	str	r3, [r4, #16]
 8005580:	2301      	movs	r3, #1
 8005582:	6163      	str	r3, [r4, #20]
 8005584:	b005      	add	sp, #20
 8005586:	bdf0      	pop	{r4, r5, r6, r7, pc}
 8005588:	ab03      	add	r3, sp, #12
 800558a:	aa02      	add	r2, sp, #8
 800558c:	f7ff ffc2 	bl	8005514 <__swhatbuf_r>
 8005590:	9f02      	ldr	r7, [sp, #8]
 8005592:	9001      	str	r0, [sp, #4]
 8005594:	0039      	movs	r1, r7
 8005596:	0028      	movs	r0, r5
 8005598:	f7ff fafc 	bl	8004b94 <_malloc_r>
 800559c:	2800      	cmp	r0, #0
 800559e:	d108      	bne.n	80055b2 <__smakebuf_r+0x4a>
 80055a0:	220c      	movs	r2, #12
 80055a2:	5ea3      	ldrsh	r3, [r4, r2]
 80055a4:	059a      	lsls	r2, r3, #22
 80055a6:	d4ed      	bmi.n	8005584 <__smakebuf_r+0x1c>
 80055a8:	2203      	movs	r2, #3
 80055aa:	4393      	bics	r3, r2
 80055ac:	431e      	orrs	r6, r3
 80055ae:	81a6      	strh	r6, [r4, #12]
 80055b0:	e7e2      	b.n	8005578 <__smakebuf_r+0x10>
 80055b2:	2380      	movs	r3, #128	@ 0x80
 80055b4:	89a2      	ldrh	r2, [r4, #12]
 80055b6:	6020      	str	r0, [r4, #0]
 80055b8:	4313      	orrs	r3, r2
 80055ba:	81a3      	strh	r3, [r4, #12]
 80055bc:	9b03      	ldr	r3, [sp, #12]
 80055be:	6120      	str	r0, [r4, #16]
 80055c0:	6167      	str	r7, [r4, #20]
 80055c2:	2b00      	cmp	r3, #0
 80055c4:	d00c      	beq.n	80055e0 <__smakebuf_r+0x78>
 80055c6:	0028      	movs	r0, r5
 80055c8:	230e      	movs	r3, #14
 80055ca:	5ee1      	ldrsh	r1, [r4, r3]
 80055cc:	f000 f820 	bl	8005610 <_isatty_r>
 80055d0:	2800      	cmp	r0, #0
 80055d2:	d005      	beq.n	80055e0 <__smakebuf_r+0x78>
 80055d4:	2303      	movs	r3, #3
 80055d6:	89a2      	ldrh	r2, [r4, #12]
 80055d8:	439a      	bics	r2, r3
 80055da:	3b02      	subs	r3, #2
 80055dc:	4313      	orrs	r3, r2
 80055de:	81a3      	strh	r3, [r4, #12]
 80055e0:	89a3      	ldrh	r3, [r4, #12]
 80055e2:	9a01      	ldr	r2, [sp, #4]
 80055e4:	4313      	orrs	r3, r2
 80055e6:	81a3      	strh	r3, [r4, #12]
 80055e8:	e7cc      	b.n	8005584 <__smakebuf_r+0x1c>
	...

080055ec <_fstat_r>:
 80055ec:	2300      	movs	r3, #0
 80055ee:	b570      	push	{r4, r5, r6, lr}
 80055f0:	4d06      	ldr	r5, [pc, #24]	@ (800560c <_fstat_r+0x20>)
 80055f2:	0004      	movs	r4, r0
 80055f4:	0008      	movs	r0, r1
 80055f6:	0011      	movs	r1, r2
 80055f8:	602b      	str	r3, [r5, #0]
 80055fa:	f7fb fab8 	bl	8000b6e <_fstat>
 80055fe:	1c43      	adds	r3, r0, #1
 8005600:	d103      	bne.n	800560a <_fstat_r+0x1e>
 8005602:	682b      	ldr	r3, [r5, #0]
 8005604:	2b00      	cmp	r3, #0
 8005606:	d000      	beq.n	800560a <_fstat_r+0x1e>
 8005608:	6023      	str	r3, [r4, #0]
 800560a:	bd70      	pop	{r4, r5, r6, pc}
 800560c:	20000320 	.word	0x20000320

08005610 <_isatty_r>:
 8005610:	2300      	movs	r3, #0
 8005612:	b570      	push	{r4, r5, r6, lr}
 8005614:	4d06      	ldr	r5, [pc, #24]	@ (8005630 <_isatty_r+0x20>)
 8005616:	0004      	movs	r4, r0
 8005618:	0008      	movs	r0, r1
 800561a:	602b      	str	r3, [r5, #0]
 800561c:	f7fb fab5 	bl	8000b8a <_isatty>
 8005620:	1c43      	adds	r3, r0, #1
 8005622:	d103      	bne.n	800562c <_isatty_r+0x1c>
 8005624:	682b      	ldr	r3, [r5, #0]
 8005626:	2b00      	cmp	r3, #0
 8005628:	d000      	beq.n	800562c <_isatty_r+0x1c>
 800562a:	6023      	str	r3, [r4, #0]
 800562c:	bd70      	pop	{r4, r5, r6, pc}
 800562e:	46c0      	nop			@ (mov r8, r8)
 8005630:	20000320 	.word	0x20000320

08005634 <_init>:
 8005634:	b5f8      	push	{r3, r4, r5, r6, r7, lr}
 8005636:	46c0      	nop			@ (mov r8, r8)
 8005638:	bcf8      	pop	{r3, r4, r5, r6, r7}
 800563a:	bc08      	pop	{r3}
 800563c:	469e      	mov	lr, r3
 800563e:	4770      	bx	lr

08005640 <_fini>:
 8005640:	b5f8      	push	{r3, r4, r5, r6, r7, lr}
 8005642:	46c0      	nop			@ (mov r8, r8)
 8005644:	bcf8      	pop	{r3, r4, r5, r6, r7}
 8005646:	bc08      	pop	{r3}
 8005648:	469e      	mov	lr, r3
 800564a:	4770      	bx	lr
